
rom.elf:     file format elf32-littlearm


Disassembly of section .hdr:

08000000 <_binary_assets_romhdr_bin_start>:
 8000000:	ea00002e 	b	80000c0 <main>
 8000004:	51aeff24 			@ <UNDEFINED> instruction: 0x51aeff24
 8000008:	21a29a69 			@ <UNDEFINED> instruction: 0x21a29a69
 800000c:	0a82843d 	beq	60a1108 <IntrTable+0x309dc18>
 8000010:	ad09e484 	stcge	4, cr14, [r9, #-528]	@ 0xfffffdf0
 8000014:	988b2411 	stmls	fp, {r0, r4, sl, sp}
 8000018:	217f81c0 	cmncs	pc, r0, asr #3
 800001c:	19be52a3 	ldmibne	lr!, {r0, r1, r5, r7, r9, ip, lr}
 8000020:	20ce0993 	smullcs	r0, lr, r3, r9
 8000024:	4a4a4610 	bmi	929186c <IntrRet+0x128f184>
 8000028:	ec3127f8 	ldc	7, cr2, [r1], #-992	@ 0xfffffc20
 800002c:	33e8c758 	mvncc	ip, #88, 14	@ 0x1600000
 8000030:	bfcee382 	svclt	0x00cee382
 8000034:	94dff485 	ldrbls	pc, [pc], #1157	@ 800003c <_binary_assets_romhdr_bin_start+0x3c>	@ <UNPREDICTABLE>
 8000038:	c1094bce 	tstgt	r9, lr, asr #23
 800003c:	c08a5694 	umullgt	r5, sl, r4, r6
 8000040:	fca77213 			@ <UNDEFINED> instruction: 0xfca77213
 8000044:	734d849f 	cmpvc	sp, #-1627389952	@ 0x9f000000
 8000048:	619acaa3 	orrsvs	ip, sl, r3, lsr #21
 800004c:	27a39758 			@ <UNDEFINED> instruction: 0x27a39758
 8000050:	769803fc 			@ <UNDEFINED> instruction: 0x769803fc
 8000054:	61c71d23 	bicvs	r1, r7, r3, lsr #26
 8000058:	56ae0403 	strtpl	r0, [lr], r3, lsl #8
 800005c:	008438bf 			@ <UNDEFINED> instruction: 0x008438bf
 8000060:	fd0ea740 			@ <UNDEFINED> instruction: 0xfd0ea740
 8000064:	03fe52ff 	mvnseq	r5, #-268435441	@ 0xf000000f
 8000068:	f130956f 			@ <UNDEFINED> instruction: 0xf130956f
 800006c:	85c0fb97 	strbhi	pc, [r0, #2967]	@ 0xb97	@ <UNPREDICTABLE>
 8000070:	2580d660 	strcs	sp, [r0, #1632]	@ 0x660
 8000074:	03be63a9 			@ <UNDEFINED> instruction: 0x03be63a9
 8000078:	e2384e01 	eors	r4, r8, #1, 28
 800007c:	ff34a2f9 			@ <UNDEFINED> instruction: 0xff34a2f9
 8000080:	44033ebb 	strmi	r3, [r3], #-3771	@ 0xfffff145
 8000084:	cb900078 	blgt	640026c <IntrTable+0x33fcd7c>
 8000088:	943a1188 	ldrtls	r1, [sl], #-392	@ 0xfffffe78
 800008c:	637cc065 	cmnvs	ip, #101	@ 0x65
 8000090:	af3cf087 	svcge	0x003cf087
 8000094:	8be425d6 	blhi	79097f4 <IntrTable+0x4906304>
 8000098:	72ac0a38 	adcvc	r0, ip, #56, 20	@ 0x38000
 800009c:	07f8d421 	ldrbeq	sp, [r8, r1, lsr #8]!
 80000a0:	48544f4d 	ldmdami	r4, {r0, r2, r3, r6, r8, r9, sl, fp, lr}^
 80000a4:	00335245 	eorseq	r5, r3, r5, asr #4
 80000a8:	00000000 	andeq	r0, r0, r0
 80000ac:	4a553341 	bmi	954cdb8 <IntrRet+0x154a6d0>
 80000b0:	00963130 	addseq	r3, r6, r0, lsr r1
	...
 80000bc:	Address 0x80000bc is out of bounds.


Disassembly of section .text:

080000c0 <main>:
 80000c0:	e3a03a02 	mov	r3, #8192	@ 0x2000
 80000c4:	e3a01000 	mov	r1, #0
 80000c8:	e92d4010 	push	{r4, lr}
 80000cc:	e59f2058 	ldr	r2, [pc, #88]	@ 800012c <main+0x6c>
 80000d0:	e59f0058 	ldr	r0, [pc, #88]	@ 8000130 <main+0x70>
 80000d4:	e59f4058 	ldr	r4, [pc, #88]	@ 8000134 <main+0x74>
 80000d8:	e1c200b4 	strh	r0, [r2, #4]
 80000dc:	e1c230b0 	strh	r3, [r2]
 80000e0:	e1c413b4 	strh	r1, [r4, #52]	@ 0x34
 80000e4:	e1c432b8 	strh	r3, [r4, #40]	@ 0x28
 80000e8:	eb00007d 	bl	80002e4 <clear_ram>
 80000ec:	eb000087 	bl	8000310 <clear_graphics_mem>
 80000f0:	eb000092 	bl	8000340 <check_reset>
 80000f4:	eb00083b 	bl	80021e8 <__irqInit_from_arm>
 80000f8:	eb000012 	bl	8000148 <install_ivt1>
 80000fc:	eb0000bb 	bl	80003f0 <setup_runtime>
 8000100:	e1d433b0 	ldrh	r3, [r4, #48]	@ 0x30
 8000104:	e1a03b03 	lsl	r3, r3, #22
 8000108:	e1a03b23 	lsr	r3, r3, #22
 800010c:	e353000f 	cmp	r3, #15
 8000110:	059f2020 	ldreq	r2, [pc, #32]	@ 8000138 <main+0x78>
 8000114:	05d23001 	ldrbeq	r3, [r2, #1]
 8000118:	03833002 	orreq	r3, r3, #2
 800011c:	05c23001 	strbeq	r3, [r2, #1]
 8000120:	eb0006ed 	bl	8001cdc <runtime_dispatch>
 8000124:	e8bd4010 	pop	{r4, lr}
 8000128:	ea0000bd 	b	8000424 <do_soft_reset>
 800012c:	04000200 	streq	r0, [r0], #-512	@ 0xfffffe00
 8000130:	000045b4 			@ <UNDEFINED> instruction: 0x000045b4
 8000134:	04000100 	streq	r0, [r0], #-256	@ 0xffffff00
 8000138:	03000000 	tsteq	r0, #0

0800013c <_start>:
 800013c:	ebffffdf 	bl	80000c0 <main>
 8000140:	eafffffd 	b	800013c <_start>

08000144 <__int_vblank>:
 8000144:	e12fff1e 	bx	lr

08000148 <install_ivt1>:
 8000148:	e3a03000 	mov	r3, #0
 800014c:	e3a02301 	mov	r2, #67108864	@ 0x4000000
 8000150:	e92d4010 	push	{r4, lr}
 8000154:	e59f403c 	ldr	r4, [pc, #60]	@ 8000198 <install_ivt1+0x50>
 8000158:	e1c430b8 	strh	r3, [r4, #8]
 800015c:	e1d430b0 	ldrh	r3, [r4]
 8000160:	e3c33007 	bic	r3, r3, #7
 8000164:	e1c430b0 	strh	r3, [r4]
 8000168:	e1d230b4 	ldrh	r3, [r2, #4]
 800016c:	e3c33038 	bic	r3, r3, #56	@ 0x38
 8000170:	e1c230b4 	strh	r3, [r2, #4]
 8000174:	e59f1020 	ldr	r1, [pc, #32]	@ 800019c <install_ivt1+0x54>
 8000178:	e3a00001 	mov	r0, #1
 800017c:	eb00081c 	bl	80021f4 <__irqSet_from_arm>
 8000180:	e3a00001 	mov	r0, #1
 8000184:	eb00081d 	bl	8002200 <__irqEnable_from_arm>
 8000188:	e3a03001 	mov	r3, #1
 800018c:	e1c430b8 	strh	r3, [r4, #8]
 8000190:	e8bd4010 	pop	{r4, lr}
 8000194:	e12fff1e 	bx	lr
 8000198:	04000200 	streq	r0, [r0], #-512	@ 0xfffffe00
 800019c:	08000144 	stmdaeq	r0, {r2, r6, r8}

080001a0 <bugcheck>:
 80001a0:	e3a0c301 	mov	ip, #67108864	@ 0x4000000
 80001a4:	e3a03406 	mov	r3, #100663296	@ 0x6000000
 80001a8:	e3a01b1e 	mov	r1, #30720	@ 0x7800
 80001ac:	e52de004 	push	{lr}		@ (str lr, [sp, #-4]!)
 80001b0:	e59fe08c 	ldr	lr, [pc, #140]	@ 8000244 <bugcheck+0xa4>
 80001b4:	e59f208c 	ldr	r2, [pc, #140]	@ 8000248 <bugcheck+0xa8>
 80001b8:	e1cce0b0 	strh	lr, [ip]
 80001bc:	e0c310b2 	strh	r1, [r3], #2
 80001c0:	e1530002 	cmp	r3, r2
 80001c4:	1afffffc 	bne	80001bc <bugcheck+0x1c>
 80001c8:	e3a0101f 	mov	r1, #31
 80001cc:	e59f2078 	ldr	r2, [pc, #120]	@ 800024c <bugcheck+0xac>
 80001d0:	e59f3078 	ldr	r3, [pc, #120]	@ 8000250 <bugcheck+0xb0>
 80001d4:	e59fc078 	ldr	ip, [pc, #120]	@ 8000254 <bugcheck+0xb4>
 80001d8:	e1c310b0 	strh	r1, [r3]
 80001dc:	e2833e1e 	add	r3, r3, #480	@ 0x1e0
 80001e0:	e2833002 	add	r3, r3, #2
 80001e4:	e1c210b0 	strh	r1, [r2]
 80001e8:	e153000c 	cmp	r3, ip
 80001ec:	e2822f77 	add	r2, r2, #476	@ 0x1dc
 80001f0:	e2822002 	add	r2, r2, #2
 80001f4:	1afffff7 	bne	80001d8 <bugcheck+0x38>
 80001f8:	e3500000 	cmp	r0, #0
 80001fc:	0a00000c 	beq	8000234 <bugcheck+0x94>
 8000200:	e59f3050 	ldr	r3, [pc, #80]	@ 8000258 <bugcheck+0xb8>
 8000204:	e3a0101f 	mov	r1, #31
 8000208:	e1a02003 	mov	r2, r3
 800020c:	e0800100 	add	r0, r0, r0, lsl #2
 8000210:	e0830080 	add	r0, r3, r0, lsl #1
 8000214:	e2423d4b 	sub	r3, r2, #4800	@ 0x12c0
 8000218:	e1c310b0 	strh	r1, [r3]
 800021c:	e2833e1e 	add	r3, r3, #480	@ 0x1e0
 8000220:	e1530002 	cmp	r3, r2
 8000224:	1afffffb 	bne	8000218 <bugcheck+0x78>
 8000228:	e282200a 	add	r2, r2, #10
 800022c:	e1520000 	cmp	r2, r0
 8000230:	1afffff7 	bne	8000214 <bugcheck+0x74>
 8000234:	e3a02000 	mov	r2, #0
 8000238:	e59f301c 	ldr	r3, [pc, #28]	@ 800025c <bugcheck+0xbc>
 800023c:	e1c320b8 	strh	r2, [r3, #8]
 8000240:	eafffffe 	b	8000240 <bugcheck+0xa0>
 8000244:	00000403 	andeq	r0, r0, r3, lsl #8
 8000248:	06012c00 	streq	r2, [r1], -r0, lsl #24
 800024c:	06001310 			@ <UNDEFINED> instruction: 0x06001310
 8000250:	060012d4 			@ <UNDEFINED> instruction: 0x060012d4
 8000254:	06004b50 			@ <UNDEFINED> instruction: 0x06004b50
 8000258:	06002f44 	streq	r2, [r0], -r4, asr #30
 800025c:	04000200 	streq	r0, [r0], #-512	@ 0xfffffe00

08000260 <do_dma_clear>:
 8000260:	e3a02301 	mov	r2, #67108864	@ 0x4000000
 8000264:	e3a03000 	mov	r3, #0
 8000268:	e1a01121 	lsr	r1, r1, #2
 800026c:	e3811485 	orr	r1, r1, #-2063597568	@ 0x85000000
 8000270:	e58230d4 	str	r3, [r2, #212]	@ 0xd4
 8000274:	e58200d8 	str	r0, [r2, #216]	@ 0xd8
 8000278:	e58210dc 	str	r1, [r2, #220]	@ 0xdc
 800027c:	e59230dc 	ldr	r3, [r2, #220]	@ 0xdc
 8000280:	e3530000 	cmp	r3, #0
 8000284:	bafffffc 	blt	800027c <do_dma_clear+0x1c>
 8000288:	e12fff1e 	bx	lr

0800028c <do_swi_clear>:
 800028c:	e201301f 	and	r3, r1, #31
 8000290:	e200c003 	and	ip, r0, #3
 8000294:	e193300c 	orrs	r3, r3, ip
 8000298:	e1a02121 	lsr	r2, r1, #2
 800029c:	e92d4010 	push	{r4, lr}
 80002a0:	e1a01000 	mov	r1, r0
 80002a4:	0a000003 	beq	80002b8 <do_swi_clear+0x2c>
 80002a8:	e3a00000 	mov	r0, #0
 80002ac:	eb0007d9 	bl	8002218 <__CpuSet_from_arm>
 80002b0:	e8bd4010 	pop	{r4, lr}
 80002b4:	e12fff1e 	bx	lr
 80002b8:	e1a00003 	mov	r0, r3
 80002bc:	e3822401 	orr	r2, r2, #16777216	@ 0x1000000
 80002c0:	eb0007d7 	bl	8002224 <__CpuFastSet_from_arm>
 80002c4:	e8bd4010 	pop	{r4, lr}
 80002c8:	e12fff1e 	bx	lr

080002cc <lz777_uncomp_vram>:
 80002cc:	e92d4010 	push	{r4, lr}
 80002d0:	e1a00000 	nop			@ (mov r0, r0)
 80002d4:	e1a01001 	mov	r1, r1
 80002d8:	ef000012 	svc	0x00000012
 80002dc:	e8bd4010 	pop	{r4, lr}
 80002e0:	e12fff1e 	bx	lr

080002e4 <clear_ram>:
 80002e4:	e92d4010 	push	{r4, lr}
 80002e8:	e3a01701 	mov	r1, #262144	@ 0x40000
 80002ec:	e3a00402 	mov	r0, #33554432	@ 0x2000000
 80002f0:	ebffffda 	bl	8000260 <do_dma_clear>
 80002f4:	e59f100c 	ldr	r1, [pc, #12]	@ 8000308 <clear_ram+0x24>
 80002f8:	e59f000c 	ldr	r0, [pc, #12]	@ 800030c <clear_ram+0x28>
 80002fc:	ebffffd7 	bl	8000260 <do_dma_clear>
 8000300:	e8bd4010 	pop	{r4, lr}
 8000304:	e12fff1e 	bx	lr
 8000308:	00007d98 	muleq	r0, r8, sp
 800030c:	03000008 	tsteq	r0, #8

08000310 <clear_graphics_mem>:
 8000310:	e92d4010 	push	{r4, lr}
 8000314:	e3a01906 	mov	r1, #98304	@ 0x18000
 8000318:	e3a00406 	mov	r0, #100663296	@ 0x6000000
 800031c:	ebffffda 	bl	800028c <do_swi_clear>
 8000320:	e3a01b01 	mov	r1, #1024	@ 0x400
 8000324:	e3a00405 	mov	r0, #83886080	@ 0x5000000
 8000328:	ebffffd7 	bl	800028c <do_swi_clear>
 800032c:	e3a01b01 	mov	r1, #1024	@ 0x400
 8000330:	e3a00407 	mov	r0, #117440512	@ 0x7000000
 8000334:	ebffffd4 	bl	800028c <do_swi_clear>
 8000338:	e8bd4010 	pop	{r4, lr}
 800033c:	e12fff1e 	bx	lr

08000340 <check_reset>:
 8000340:	e3a03403 	mov	r3, #50331648	@ 0x3000000
 8000344:	e59f2048 	ldr	r2, [pc, #72]	@ 8000394 <check_reset+0x54>
 8000348:	e59fc048 	ldr	ip, [pc, #72]	@ 8000398 <check_reset+0x58>
 800034c:	e5d30000 	ldrb	r0, [r3]
 8000350:	e5d21000 	ldrb	r1, [r2]
 8000354:	e1500001 	cmp	r0, r1
 8000358:	e2833001 	add	r3, r3, #1
 800035c:	1a000007 	bne	8000380 <check_reset+0x40>
 8000360:	e153000c 	cmp	r3, ip
 8000364:	e2822001 	add	r2, r2, #1
 8000368:	1afffff7 	bne	800034c <check_reset+0xc>
 800036c:	e59f2028 	ldr	r2, [pc, #40]	@ 800039c <check_reset+0x5c>
 8000370:	e5d23001 	ldrb	r3, [r2, #1]
 8000374:	e3833001 	orr	r3, r3, #1
 8000378:	e5c23001 	strb	r3, [r2, #1]
 800037c:	e12fff1e 	bx	lr
 8000380:	e59f2014 	ldr	r2, [pc, #20]	@ 800039c <check_reset+0x5c>
 8000384:	e5d23001 	ldrb	r3, [r2, #1]
 8000388:	e20330fe 	and	r3, r3, #254	@ 0xfe
 800038c:	e5c23001 	strb	r3, [r2, #1]
 8000390:	e12fff1e 	bx	lr
 8000394:	08002248 	stmdaeq	r0, {r3, r6, r9, sp}
 8000398:	03000008 	tsteq	r0, #8
 800039c:	03000000 	tsteq	r0, #0

080003a0 <plant_reset_magic>:
 80003a0:	e3a03403 	mov	r3, #50331648	@ 0x3000000
 80003a4:	e3a0004d 	mov	r0, #77	@ 0x4d
 80003a8:	e3a01033 	mov	r1, #51	@ 0x33
 80003ac:	e3a02047 	mov	r2, #71	@ 0x47
 80003b0:	e52de004 	push	{lr}		@ (str lr, [sp, #-4]!)
 80003b4:	e3a0c020 	mov	ip, #32
 80003b8:	e3a0e042 	mov	lr, #66	@ 0x42
 80003bc:	e5c30000 	strb	r0, [r3]
 80003c0:	e5c31001 	strb	r1, [r3, #1]
 80003c4:	e5c32003 	strb	r2, [r3, #3]
 80003c8:	e3a00053 	mov	r0, #83	@ 0x53
 80003cc:	e3a0104f 	mov	r1, #79	@ 0x4f
 80003d0:	e3a0204e 	mov	r2, #78	@ 0x4e
 80003d4:	e5c3e004 	strb	lr, [r3, #4]
 80003d8:	e5c3c002 	strb	ip, [r3, #2]
 80003dc:	e5c30005 	strb	r0, [r3, #5]
 80003e0:	e5c31006 	strb	r1, [r3, #6]
 80003e4:	e5c32007 	strb	r2, [r3, #7]
 80003e8:	e49de004 	pop	{lr}		@ (ldr lr, [sp], #4)
 80003ec:	e12fff1e 	bx	lr

080003f0 <setup_runtime>:
 80003f0:	e3a0100d 	mov	r1, #13
 80003f4:	e92d4010 	push	{r4, lr}
 80003f8:	e59f301c 	ldr	r3, [pc, #28]	@ 800041c <setup_runtime+0x2c>
 80003fc:	e5d32001 	ldrb	r2, [r3, #1]
 8000400:	e59f0018 	ldr	r0, [pc, #24]	@ 8000420 <setup_runtime+0x30>
 8000404:	e3c22002 	bic	r2, r2, #2
 8000408:	e5c32001 	strb	r2, [r3, #1]
 800040c:	e5c31000 	strb	r1, [r3]
 8000410:	eb00001e 	bl	8000490 <rand_init>
 8000414:	e8bd4010 	pop	{r4, lr}
 8000418:	e12fff1e 	bx	lr
 800041c:	03000000 	tsteq	r0, #0
 8000420:	00001105 	andeq	r1, r0, r5, lsl #2

08000424 <do_soft_reset>:
 8000424:	e3a03403 	mov	r3, #50331648	@ 0x3000000
 8000428:	e3a02033 	mov	r2, #51	@ 0x33
 800042c:	e92d4010 	push	{r4, lr}
 8000430:	e3a0c04d 	mov	ip, #77	@ 0x4d
 8000434:	e3a01020 	mov	r1, #32
 8000438:	e3a0e047 	mov	lr, #71	@ 0x47
 800043c:	e5c32001 	strb	r2, [r3, #1]
 8000440:	e3a02042 	mov	r2, #66	@ 0x42
 8000444:	e5c3e003 	strb	lr, [r3, #3]
 8000448:	e5c3c000 	strb	ip, [r3]
 800044c:	e5c31002 	strb	r1, [r3, #2]
 8000450:	e3a0e04e 	mov	lr, #78	@ 0x4e
 8000454:	e3a0c053 	mov	ip, #83	@ 0x53
 8000458:	e3a0104f 	mov	r1, #79	@ 0x4f
 800045c:	e5c32004 	strb	r2, [r3, #4]
 8000460:	e3a00000 	mov	r0, #0
 8000464:	e3a02301 	mov	r2, #67108864	@ 0x4000000
 8000468:	e5c3e007 	strb	lr, [r3, #7]
 800046c:	e5c3c005 	strb	ip, [r3, #5]
 8000470:	e5c31006 	strb	r1, [r3, #6]
 8000474:	e59f3010 	ldr	r3, [pc, #16]	@ 800048c <do_soft_reset+0x68>
 8000478:	e1c208b4 	strh	r0, [r2, #132]	@ 0x84
 800047c:	e1c300b8 	strh	r0, [r3, #8]
 8000480:	eb000761 	bl	800220c <__SoftReset_from_arm>
 8000484:	e8bd4010 	pop	{r4, lr}
 8000488:	e12fff1e 	bx	lr
 800048c:	04000200 	streq	r0, [r0], #-512	@ 0xfffffe00

08000490 <rand_init>:
 8000490:	e59f2044 	ldr	r2, [pc, #68]	@ 80004dc <rand_init+0x4c>
 8000494:	e92d4010 	push	{r4, lr}
 8000498:	e59f1040 	ldr	r1, [pc, #64]	@ 80004e0 <rand_init+0x50>
 800049c:	e59f4040 	ldr	r4, [pc, #64]	@ 80004e4 <rand_init+0x54>
 80004a0:	e282ed27 	add	lr, r2, #2496	@ 0x9c0
 80004a4:	e0030091 	mul	r3, r1, r0
 80004a8:	e2833001 	add	r3, r3, #1
 80004ac:	e00c0391 	mul	ip, r1, r3
 80004b0:	e0000004 	and	r0, r0, r4
 80004b4:	e1800823 	orr	r0, r0, r3, lsr #16
 80004b8:	e5a20004 	str	r0, [r2, #4]!
 80004bc:	e15e0002 	cmp	lr, r2
 80004c0:	e28c0001 	add	r0, ip, #1
 80004c4:	1afffff6 	bne	80004a4 <rand_init+0x14>
 80004c8:	e3a02e27 	mov	r2, #624	@ 0x270
 80004cc:	e59f3014 	ldr	r3, [pc, #20]	@ 80004e8 <rand_init+0x58>
 80004d0:	e8bd4010 	pop	{r4, lr}
 80004d4:	e58329c4 	str	r2, [r3, #2500]	@ 0x9c4
 80004d8:	e12fff1e 	bx	lr
 80004dc:	03000000 	tsteq	r0, #0
 80004e0:	000a8795 	muleq	sl, r5, r7
 80004e4:	ffff0000 			@ <UNDEFINED> instruction: 0xffff0000
 80004e8:	03000004 	tsteq	r0, #4

080004ec <rand_gen>:
 80004ec:	e92d40f0 	push	{r4, r5, r6, r7, lr}
 80004f0:	e59fe11c 	ldr	lr, [pc, #284]	@ 8000614 <rand_gen+0x128>
 80004f4:	e59e39c4 	ldr	r3, [lr, #2500]	@ 0x9c4
 80004f8:	e3530e27 	cmp	r3, #624	@ 0x270
 80004fc:	32831001 	addcc	r1, r3, #1
 8000500:	3a000025 	bcc	800059c <rand_gen+0xb0>
 8000504:	e59f210c 	ldr	r2, [pc, #268]	@ 8000618 <rand_gen+0x12c>
 8000508:	e1530002 	cmp	r3, r2
 800050c:	128e7e9b 	addne	r7, lr, #2480	@ 0x9b0
 8000510:	0a00002d 	beq	80005cc <rand_gen+0xe0>
 8000514:	e59e1000 	ldr	r1, [lr]
 8000518:	e59fe0f4 	ldr	lr, [pc, #244]	@ 8000614 <rand_gen+0x128>
 800051c:	e1a0300e 	mov	r3, lr
 8000520:	e59fc0f4 	ldr	ip, [pc, #244]	@ 800061c <rand_gen+0x130>
 8000524:	e28e6fe3 	add	r6, lr, #908	@ 0x38c
 8000528:	e2015102 	and	r5, r1, #-2147483648	@ 0x80000000
 800052c:	e5931004 	ldr	r1, [r3, #4]
 8000530:	e5932634 	ldr	r2, [r3, #1588]	@ 0x634
 8000534:	e79c4101 	ldr	r4, [ip, r1, lsl #2]
 8000538:	e3c10102 	bic	r0, r1, #-2147483648	@ 0x80000000
 800053c:	e1800005 	orr	r0, r0, r5
 8000540:	e0222004 	eor	r2, r2, r4
 8000544:	e02220a0 	eor	r2, r2, r0, lsr #1
 8000548:	e4832004 	str	r2, [r3], #4
 800054c:	e1530006 	cmp	r3, r6
 8000550:	1afffff4 	bne	8000528 <rand_gen+0x3c>
 8000554:	e59f50c4 	ldr	r5, [pc, #196]	@ 8000620 <rand_gen+0x134>
 8000558:	e59e138c 	ldr	r1, [lr, #908]	@ 0x38c
 800055c:	e287600c 	add	r6, r7, #12
 8000560:	e045500e 	sub	r5, r5, lr
 8000564:	e1a02001 	mov	r2, r1
 8000568:	e2014102 	and	r4, r1, #-2147483648	@ 0x80000000
 800056c:	e5931004 	ldr	r1, [r3, #4]
 8000570:	e79c2102 	ldr	r2, [ip, r2, lsl #2]
 8000574:	e3c10102 	bic	r0, r1, #-2147483648	@ 0x80000000
 8000578:	e1800004 	orr	r0, r0, r4
 800057c:	e02220a0 	eor	r2, r2, r0, lsr #1
 8000580:	e7930005 	ldr	r0, [r3, r5]
 8000584:	e0222000 	eor	r2, r2, r0
 8000588:	e4832004 	str	r2, [r3], #4
 800058c:	e1530006 	cmp	r3, r6
 8000590:	1afffff3 	bne	8000564 <rand_gen+0x78>
 8000594:	e3a01001 	mov	r1, #1
 8000598:	e3a03000 	mov	r3, #0
 800059c:	e79e2103 	ldr	r2, [lr, r3, lsl #2]
 80005a0:	e59f307c 	ldr	r3, [pc, #124]	@ 8000624 <rand_gen+0x138>
 80005a4:	e02225a2 	eor	r2, r2, r2, lsr #11
 80005a8:	e59f0078 	ldr	r0, [pc, #120]	@ 8000628 <rand_gen+0x13c>
 80005ac:	e0033382 	and	r3, r3, r2, lsl #7
 80005b0:	e0233002 	eor	r3, r3, r2
 80005b4:	e0000783 	and	r0, r0, r3, lsl #15
 80005b8:	e0200003 	eor	r0, r0, r3
 80005bc:	e58e19c4 	str	r1, [lr, #2500]	@ 0x9c4
 80005c0:	e0200920 	eor	r0, r0, r0, lsr #18
 80005c4:	e8bd40f0 	pop	{r4, r5, r6, r7, lr}
 80005c8:	e12fff1e 	bx	lr
 80005cc:	e24e1004 	sub	r1, lr, #4
 80005d0:	e59f3054 	ldr	r3, [pc, #84]	@ 800062c <rand_gen+0x140>
 80005d4:	e59f0054 	ldr	r0, [pc, #84]	@ 8000630 <rand_gen+0x144>
 80005d8:	e59f5054 	ldr	r5, [pc, #84]	@ 8000634 <rand_gen+0x148>
 80005dc:	e28e7e9b 	add	r7, lr, #2480	@ 0x9b0
 80005e0:	e2814d27 	add	r4, r1, #2496	@ 0x9c0
 80005e4:	e0020390 	mul	r2, r0, r3
 80005e8:	e2822001 	add	r2, r2, #1
 80005ec:	e00c0290 	mul	ip, r0, r2
 80005f0:	e0033005 	and	r3, r3, r5
 80005f4:	e1833822 	orr	r3, r3, r2, lsr #16
 80005f8:	e5a13004 	str	r3, [r1, #4]!
 80005fc:	e1540001 	cmp	r4, r1
 8000600:	e28c3001 	add	r3, ip, #1
 8000604:	1afffff6 	bne	80005e4 <rand_gen+0xf8>
 8000608:	e3a03e27 	mov	r3, #624	@ 0x270
 800060c:	e58e39c4 	str	r3, [lr, #2500]	@ 0x9c4
 8000610:	eaffffbf 	b	8000514 <rand_gen+0x28>
 8000614:	03000004 	tsteq	r0, #4
 8000618:	00000271 	andeq	r0, r0, r1, ror r2
 800061c:	08002250 	stmdaeq	r0, {r4, r6, r9, sp}
 8000620:	02004ea4 	andeq	r4, r0, #164, 28	@ 0xa40
 8000624:	9d2c5680 	stcls	6, cr5, [ip, #-512]!	@ 0xfffffe00
 8000628:	efc60000 	svc	0x00c60000
 800062c:	00001105 	andeq	r1, r0, r5, lsl #2
 8000630:	000a8795 	muleq	sl, r5, r7
 8000634:	ffff0000 			@ <UNDEFINED> instruction: 0xffff0000

08000638 <index_asset_tbl>:
 8000638:	e2811001 	add	r1, r1, #1
 800063c:	e7903101 	ldr	r3, [r0, r1, lsl #2]
 8000640:	e0800003 	add	r0, r0, r3
 8000644:	e12fff1e 	bx	lr

08000648 <inp_init>:
 8000648:	e3a03000 	mov	r3, #0
 800064c:	e5d0200e 	ldrb	r2, [r0, #14]
 8000650:	e3c22001 	bic	r2, r2, #1
 8000654:	e1c030b0 	strh	r3, [r0]
 8000658:	e5c0200e 	strb	r2, [r0, #14]
 800065c:	e1c030b2 	strh	r3, [r0, #2]
 8000660:	e1c030b4 	strh	r3, [r0, #4]
 8000664:	e1c010b6 	strh	r1, [r0, #6]
 8000668:	e1c030b8 	strh	r3, [r0, #8]
 800066c:	e1c030ba 	strh	r3, [r0, #10]
 8000670:	e1c030bc 	strh	r3, [r0, #12]
 8000674:	e12fff1e 	bx	lr

08000678 <init_gfx_regs>:
 8000678:	e3a03000 	mov	r3, #0
 800067c:	e1c030b4 	strh	r3, [r0, #4]
 8000680:	e1c030b6 	strh	r3, [r0, #6]
 8000684:	e1c030b8 	strh	r3, [r0, #8]
 8000688:	e1c030ba 	strh	r3, [r0, #10]
 800068c:	e1c030bc 	strh	r3, [r0, #12]
 8000690:	e12fff1e 	bx	lr

08000694 <clear_gfx_staging>:
 8000694:	e92d41f0 	push	{r4, r5, r6, r7, r8, lr}
 8000698:	e3a05000 	mov	r5, #0
 800069c:	e2806db1 	add	r6, r0, #11328	@ 0x2c40
 80006a0:	e3a01b02 	mov	r1, #2048	@ 0x800
 80006a4:	e1c650b6 	strh	r5, [r6, #6]
 80006a8:	e1c650b4 	strh	r5, [r6, #4]
 80006ac:	e1c650b2 	strh	r5, [r6, #2]
 80006b0:	e1c650b0 	strh	r5, [r6]
 80006b4:	e1a04000 	mov	r4, r0
 80006b8:	e2807a02 	add	r7, r0, #8192	@ 0x2000
 80006bc:	ebfffee7 	bl	8000260 <do_dma_clear>
 80006c0:	e3a01b02 	mov	r1, #2048	@ 0x800
 80006c4:	e0840001 	add	r0, r4, r1
 80006c8:	ebfffee4 	bl	8000260 <do_dma_clear>
 80006cc:	e2840a01 	add	r0, r4, #4096	@ 0x1000
 80006d0:	e3a01b02 	mov	r1, #2048	@ 0x800
 80006d4:	ebfffee1 	bl	8000260 <do_dma_clear>
 80006d8:	e2840b06 	add	r0, r4, #6144	@ 0x1800
 80006dc:	e3a01b02 	mov	r1, #2048	@ 0x800
 80006e0:	e2844c27 	add	r4, r4, #9984	@ 0x2700
 80006e4:	ebfffedd 	bl	8000260 <do_dma_clear>
 80006e8:	e1a00004 	mov	r0, r4
 80006ec:	e3a01b01 	mov	r1, #1024	@ 0x400
 80006f0:	ebfffeda 	bl	8000260 <do_dma_clear>
 80006f4:	e1c650b8 	strh	r5, [r6, #8]
 80006f8:	e1c650ba 	strh	r5, [r6, #10]
 80006fc:	e1c650bc 	strh	r5, [r6, #12]
 8000700:	e5c75c4e 	strb	r5, [r7, #3150]	@ 0xc4e
 8000704:	e1c450b0 	strh	r5, [r4]
 8000708:	e8bd41f0 	pop	{r4, r5, r6, r7, r8, lr}
 800070c:	e12fff1e 	bx	lr

08000710 <init_subsystems>:
 8000710:	e92d4010 	push	{r4, lr}
 8000714:	e59f001c 	ldr	r0, [pc, #28]	@ 8000738 <init_subsystems+0x28>
 8000718:	ebffffd6 	bl	8000678 <init_gfx_regs>
 800071c:	e59f0018 	ldr	r0, [pc, #24]	@ 800073c <init_subsystems+0x2c>
 8000720:	ebffffdb 	bl	8000694 <clear_gfx_staging>
 8000724:	e3a01002 	mov	r1, #2
 8000728:	e59f0010 	ldr	r0, [pc, #16]	@ 8000740 <init_subsystems+0x30>
 800072c:	ebffffc5 	bl	8000648 <inp_init>
 8000730:	e8bd4010 	pop	{r4, lr}
 8000734:	e12fff1e 	bx	lr
 8000738:	030034dc 	tsteq	r0, #220, 8	@ 0xdc000000
 800073c:	030009dc 	tsteq	r0, #220, 18	@ 0x370000
 8000740:	030009cc 	tsteq	r0, #204, 18	@ 0x330000

08000744 <health_gfx>:
 8000744:	00000005 	andeq	r0, r0, r5
 8000748:	0000001c 	andeq	r0, r0, ip, lsl r0
 800074c:	00000d90 	muleq	r0, r0, sp
 8000750:	00000db0 			@ <UNDEFINED> instruction: 0x00000db0
 8000754:	000012bc 			@ <UNDEFINED> instruction: 0x000012bc
 8000758:	0000148c 	andeq	r1, r0, ip, lsl #9
 800075c:	000014d4 			@ <UNDEFINED> instruction: 0x000014d4
 8000760:	00440010 	subeq	r0, r4, r0, lsl r0
 8000764:	f0000033 			@ <UNDEFINED> instruction: 0xf0000033
 8000768:	ee019001 	cdp	0, 0, cr9, cr1, cr1, {0}
 800076c:	f001f0ee 			@ <UNDEFINED> instruction: 0xf001f0ee
 8000770:	01408101 	cmpeq	r0, r1, lsl #2
 8000774:	1eeeee11 	mcrne	14, 7, lr, cr14, cr1, {0}
 8000778:	0320e111 			@ <UNDEFINED> instruction: 0x0320e111
 800077c:	11cc111f 	bicne	r1, ip, pc, lsl r1
 8000780:	24f00320 	ldrbtcs	r0, [r0], #800	@ 0x320
 8000784:	03202d90 			@ <UNDEFINED> instruction: 0x03202d90
 8000788:	f0cb01f0 			@ <UNDEFINED> instruction: 0xf0cb01f0
 800078c:	1e01e01e 	mcrne	0, 0, lr, cr1, cr14, {0}
 8000790:	115f0011 	cmpne	pc, r1, lsl r0	@ <UNPREDICTABLE>
 8000794:	1af06800 	bne	7c1a79c <IntrTable+0x4c172ac>
 8000798:	e11f50bb 	ldrh	r5, [pc, -fp]
 800079c:	40f00300 	rscsmi	r0, r0, r0, lsl #6
 80007a0:	201e5e70 	andscs	r5, lr, r0, ror lr
 80007a4:	9f19f003 	svcls	0x0019f003
 80007a8:	1ee10120 	cdpne	1, 14, cr0, cr1, cr0, {1}
 80007ac:	19f00130 	ldmibne	r0!, {r4, r5, r8}^
 80007b0:	3c001f40 	stccc	15, cr1, [r0], {64}	@ 0x40
 80007b4:	f0ff0310 			@ <UNDEFINED> instruction: 0xf0ff0310
 80007b8:	f07f7019 			@ <UNDEFINED> instruction: 0xf07f7019
 80007bc:	f001f09f 			@ <UNDEFINED> instruction: 0xf001f09f
 80007c0:	003f4001 	eorseq	r4, pc, r1
 80007c4:	ff03105c 			@ <UNDEFINED> instruction: 0xff03105c
 80007c8:	bf5019f0 	svclt	0x005019f0
 80007cc:	18f00031 	ldmne	r0!, {r0, r4, r5}^
 80007d0:	18f020b1 	ldmne	r0!, {r0, r4, r5, r7, sp}^
 80007d4:	df006070 	svcle	0x00006070
 80007d8:	7017f0ff 	ldrshvc	pc, [r7], -pc	@ <UNPREDICTABLE>
 80007dc:	f001205e 			@ <UNDEFINED> instruction: 0xf001205e
 80007e0:	f09ff019 			@ <UNDEFINED> instruction: 0xf09ff019
 80007e4:	f1223001 			@ <UNDEFINED> instruction: 0xf1223001
 80007e8:	5f90ffc0 	svcpl	0x0090ffc0
 80007ec:	19f0a231 	ldmibne	r0!, {r0, r4, r5, r9, sp, pc}^
 80007f0:	01f05ff1 	ldrsheq	r5, [r0, #241]!	@ 0xf1
 80007f4:	c0f0fe60 	rscsgt	pc, r0, r0, ror #28
 80007f8:	f0ff8dc2 			@ <UNDEFINED> instruction: 0xf0ff8dc2
 80007fc:	f07f9016 			@ <UNDEFINED> instruction: 0xf07f9016
 8000800:	f09ff060 			@ <UNDEFINED> instruction: 0xf09ff060
 8000804:	211f3001 	tstcs	pc, r1
 8000808:	ff3ff0de 			@ <UNDEFINED> instruction: 0xff3ff0de
 800080c:	7d121f60 	ldcvc	15, cr1, [r2, #-384]	@ 0xfffffe80
 8000810:	3ff07ff0 	svccc	0x00f07ff0
 8000814:	fff201f0 			@ <UNDEFINED> instruction: 0xfff201f0
 8000818:	015001f0 	ldrsheq	r0, [r0, #-16]
 800081c:	f0b1f3ff 			@ <UNDEFINED> instruction: 0xf0b1f3ff
 8000820:	f301f001 	vhadd.u8	d15, d1, d1
 8000824:	a101f0df 			@ <UNDEFINED> instruction: 0xa101f0df
 8000828:	11cb51c7 	bicne	r5, fp, r7, asr #3
 800082c:	30c14853 	sbccc	r4, r1, r3, asr r8
 8000830:	10cc1103 	sbcne	r1, ip, r3, lsl #2
 8000834:	1c11c103 	ldcne	1, cr12, [r1], {3}
 8000838:	0310e15a 	tsteq	r0, #-2147483626	@ 0x80000016
 800083c:	40ec03cc 	rscmi	r0, ip, ip, asr #7
 8000840:	03201c01 			@ <UNDEFINED> instruction: 0x03201c01
 8000844:	01009fcc 	tsteq	r0, ip, asr #31
 8000848:	2300cc11 	tstcs	r0, #4352	@ 0x1100
 800084c:	0320c860 			@ <UNDEFINED> instruction: 0x0320c860
 8000850:	0320b001 			@ <UNDEFINED> instruction: 0x0320b001
 8000854:	200c00ef 	andcs	r0, ip, pc, ror #1
 8000858:	1e1a5003 	cdpne	0, 1, cr5, cr10, cr3, {0}
 800085c:	03100a01 	tsteq	r0, #4096	@ 0x1000
 8000860:	bc03d652 	stclt	6, cr13, [r3], {82}	@ 0x52
 8000864:	700320ff 			@ <UNDEFINED> instruction: 0x700320ff
 8000868:	61030019 	tstvs	r3, r9, lsl r0
 800086c:	52137034 	andspl	r7, r3, #52	@ 0x34
 8000870:	21032087 	tstcs	r3, r7, lsl #1
 8000874:	b401fb71 	strlt	pc, [r1], #-2929	@ 0xfffff48f
 8000878:	6d001380 	stcvs	3, cr1, [r0, #-512]	@ 0xfffffe00
 800087c:	0310e703 	tsteq	r0, #786432	@ 0xc0000
 8000880:	10034011 	andne	r4, r3, r1, lsl r0
 8000884:	5820ff54 	stmdapl	r0!, {r2, r4, r6, r8, r9, sl, fp, ip, sp, lr, pc}
 8000888:	e7530120 	ldrb	r0, [r3, -r0, lsr #2]
 800088c:	013001f0 	teqeq	r0, r0	@ <illegal shifter operand>
 8000890:	03302870 	teqeq	r0, #112, 16	@ 0x700000
 8000894:	30ff8000 	rscscc	r8, pc, r0
 8000898:	809f6003 	addshi	r6, pc, r3
 800089c:	20f804dc 	ldrsbcs	r0, [r8], #76	@ 0x4c	@ <UNPREDICTABLE>
 80008a0:	d29f8003 	addsle	r8, pc, #3
 80008a4:	ff032054 			@ <UNDEFINED> instruction: 0xff032054
 80008a8:	bf9047f3 	svclt	0x009047f3
 80008ac:	bf200f70 	svclt	0x00200f70
 80008b0:	1c416090 	stclne	0, cr6, [r1], {144}	@ 0x90
 80008b4:	c74413a0 	strbgt	r1, [r4, -r0, lsr #7]
 80008b8:	600320ff 			@ <UNDEFINED> instruction: 0x600320ff
 80008bc:	1113601f 	tstne	r3, pc, lsl r0
 80008c0:	7003f00c 	andvc	pc, r3, ip
 80008c4:	f0a22003 			@ <UNDEFINED> instruction: 0xf0a22003
 80008c8:	0360ff03 	msreq	SPSR_, #3, 30
 80008cc:	9fc09ff0 	svcls	0x00c09ff0
 80008d0:	03e0dfc1 	mvneq	sp, #772	@ 0x304
 80008d4:	03404315 	cmpeq	r0, #1409286144	@ 0x54000000
 80008d8:	70ff9235 	rscsvc	r9, pc, r5, lsr r2	@ <UNPREDICTABLE>
 80008dc:	f113200f 			@ <UNDEFINED> instruction: 0xf113200f
 80008e0:	815fc15f 	cmphi	pc, pc, asr r1	@ <UNPREDICTABLE>
 80008e4:	d003f0ff 			@ <UNDEFINED> instruction: 0xd003f0ff
 80008e8:	ff34f3b0 			@ <UNDEFINED> instruction: 0xff34f3b0
 80008ec:	af003d91 	svcge	0x00003d91
 80008f0:	01901d21 	orrseq	r1, r0, r1, lsr #26
 80008f4:	9fa09ff0 	svcls	0x00a09ff0
 80008f8:	b322af52 			@ <UNDEFINED> instruction: 0xb322af52
 80008fc:	907e42ff 	ldrshls	r4, [lr], #-47	@ 0xffffffd1	@ <UNPREDICTABLE>
 8000900:	e0def113 	sbcs	pc, lr, r3, lsl r1	@ <UNPREDICTABLE>
 8000904:	40eb627c 	rscmi	r6, fp, ip, ror r2
 8000908:	30a46003 	adccc	r6, r4, r3
 800090c:	0d70ff2a 	ldcleq	15, cr15, [r0, #-168]!	@ 0xffffff58
 8000910:	7321be31 			@ <UNDEFINED> instruction: 0x7321be31
 8000914:	01f00360 	mvnseq	r0, r0, ror #6
 8000918:	01f0fff3 	ldrsheq	pc, [r0, #243]!	@ 0xf3	@ <UNPREDICTABLE>
 800091c:	f0f301f0 			@ <UNDEFINED> instruction: 0xf0f301f0
 8000920:	f0fff301 			@ <UNDEFINED> instruction: 0xf0fff301
 8000924:	c1a01201 	lslgt	r1, r1, #4
 8000928:	f00330cc 			@ <UNDEFINED> instruction: 0xf00330cc
 800092c:	0110fbdd 			@ <UNDEFINED> instruction: 0x0110fbdd
 8000930:	ea23e313 	b	88f9584 <IntrRet+0x8f6e9c>
 8000934:	01202ff6 			@ <UNDEFINED> instruction: 0x01202ff6
 8000938:	1073011c 	rsbsne	r0, r3, ip, lsl r1
 800093c:	2ce1ff03 	stclcs	15, cr15, [r1], #12
 8000940:	01f0e7f4 	ldrsheq	lr, [r0, #116]!	@ 0x74
 8000944:	19f01984 	ldmibne	r0!, {r2, r7, r8, fp, ip}^
 8000948:	01f087f6 	ldrsheq	r8, [r0, #118]!	@ 0x76
 800094c:	f7ffe7f7 			@ <UNDEFINED> instruction: 0xf7ffe7f7
 8000950:	f6e7f7e7 			@ <UNDEFINED> instruction: 0xf6e7f7e7
 8000954:	865ef087 	ldrbhi	pc, [lr], -r7, lsl #1	@ <UNPREDICTABLE>
 8000958:	f0341287 			@ <UNDEFINED> instruction: 0xf0341287
 800095c:	ff01f018 			@ <UNDEFINED> instruction: 0xff01f018
 8000960:	bff001f0 	svclt	0x00f001f0
 8000964:	e7f701f0 	udf	#28688	@ 0x7010
 8000968:	dff0dff0 	svcle	0x00f0dff0
 800096c:	a0f0df80 	rscsge	sp, r0, r0, lsl #31
 8000970:	f8ffc0ff 			@ <UNDEFINED> instruction: 0xf8ffc0ff
 8000974:	f09ff007 			@ <UNDEFINED> instruction: 0xf09ff007
 8000978:	f0c0f13f 			@ <UNDEFINED> instruction: 0xf0c0f13f
 800097c:	33403001 	cmpcc	r0, #1
 8000980:	19f0ff4b 	ldmibne	r0!, {r0, r1, r3, r6, r8, r9, sl, fp, ip, sp, lr, pc}^
 8000984:	01f05ff1 	ldrsheq	r5, [r0, #241]!	@ 0xf1
 8000988:	18f07453 	ldmne	r0!, {r0, r1, r4, r6, sl, ip, sp, lr}^
 800098c:	e7f7e888 	ldrb	lr, [r7, r8, lsl #17]!
 8000990:	23ff93a3 	mvnscs	r9, #-1946157054	@ 0x8c000002
 8000994:	f019f0f7 			@ <UNDEFINED> instruction: 0xf019f0f7
 8000998:	1001f09f 	mulne	r1, pc, r0	@ <UNPREDICTABLE>
 800099c:	f3e7f39f 	vrsra.u64	d31, d15, #25
 80009a0:	ff17f0f3 			@ <UNDEFINED> instruction: 0xff17f0f3
 80009a4:	01f01cf1 	ldrsheq	r1, [r0, #193]!	@ 0xc1
 80009a8:	ddf25f41 	ldclle	15, cr5, [r2, #260]!	@ 0x104
 80009ac:	01f001f0 	ldrsheq	r0, [r0, #16]!
 80009b0:	01f0fff3 	ldrsheq	pc, [r0, #243]!	@ 0xf3	@ <UNPREDICTABLE>
 80009b4:	f301f0ff 	vqadd.u8	<illegal reg q7.5>, <illegal reg q8.5>, <illegal reg q15.5>
 80009b8:	f052f0ff 			@ <UNDEFINED> instruction: 0xf052f0ff
 80009bc:	f001f001 			@ <UNDEFINED> instruction: 0xf001f001
 80009c0:	f001f001 			@ <UNDEFINED> instruction: 0xf001f001
 80009c4:	01f0f901 	mvnseq	pc, r1, lsl #18
 80009c8:	d7b101f0 			@ <UNDEFINED> instruction: 0xd7b101f0
 80009cc:	d77216f0 			@ <UNDEFINED> instruction: 0xd77216f0
 80009d0:	1ef01ee1 	cdpne	14, 15, cr1, cr0, cr1, {7}
 80009d4:	05f7a1ff 	ldrbeq	sl, [r7, #511]!	@ 0x1ff
 80009d8:	b018f049 	andslt	pc, r8, r9, asr #32
 80009dc:	6020f03f 	eorvs	pc, r0, pc, lsr r0	@ <UNPREDICTABLE>
 80009e0:	f03df07d 			@ <UNDEFINED> instruction: 0xf03df07d
 80009e4:	22f0ff20 	rscscs	pc, r0, #32, 30	@ 0x80
 80009e8:	01f034d9 	ldrsbeq	r3, [r0, #73]!	@ 0x49
 80009ec:	01301f50 	teqeq	r0, r0, asr pc
 80009f0:	1f5019f0 	svcne	0x005019f0
 80009f4:	f0ff8826 			@ <UNDEFINED> instruction: 0xf0ff8826
 80009f8:	f13f9018 			@ <UNDEFINED> instruction: 0xf13f9018
 80009fc:	12ff7001 	rscsne	r7, pc, #1
 8000a00:	f01df053 			@ <UNDEFINED> instruction: 0xf01df053
 8000a04:	ff19f0bf 			@ <UNDEFINED> instruction: 0xff19f0bf
 8000a08:	01f0fff0 	ldrsheq	pc, [r0, #240]!	@ 0xf0	@ <UNPREDICTABLE>
 8000a0c:	2100b313 	tstcs	r0, r3, lsl r3
 8000a10:	41b0b8f2 	rorsmi	fp, r2	@ <illegal shifter operand>
 8000a14:	9f6042f0 	svcls	0x006042f0
 8000a18:	f000f1ff 			@ <UNDEFINED> instruction: 0xf000f1ff
 8000a1c:	f116f07f 			@ <UNDEFINED> instruction: 0xf116f07f
 8000a20:	f019f040 			@ <UNDEFINED> instruction: 0xf019f040
 8000a24:	0001f03f 	andeq	pc, r1, pc, lsr r0	@ <UNPREDICTABLE>
 8000a28:	0130ffb9 	teqpeq	r0, r9	@ <illegal shifter operand>	@ p-variant is OBSOLETE
 8000a2c:	3e6d19f0 			@ <UNDEFINED> instruction: 0x3e6d19f0
 8000a30:	e0f15ff0 	ldrsh	r5, [r1], #240	@ 0xf0	@ <UNPREDICTABLE>
 8000a34:	01f017f0 	ldrsheq	r1, [r0, #112]!	@ 0x70
 8000a38:	f0ff01f0 			@ <UNDEFINED> instruction: 0xf0ff01f0
 8000a3c:	f001f001 			@ <UNDEFINED> instruction: 0xf001f001
 8000a40:	f301f001 	vhadd.u8	d15, d1, d1
 8000a44:	f001f0ff 			@ <UNDEFINED> instruction: 0xf001f0ff
 8000a48:	fffff301 			@ <UNDEFINED> instruction: 0xfffff301
 8000a4c:	01f001f0 	ldrsheq	r0, [r0, #16]!
 8000a50:	01f001f0 	ldrsheq	r0, [r0, #16]!
 8000a54:	01f001f0 	ldrsheq	r0, [r0, #16]!
 8000a58:	035048f1 	cmpeq	r0, #15794176	@ 0xf10000
 8000a5c:	90ef43ff 			@ <UNDEFINED> instruction: 0x90ef43ff
 8000a60:	0005000f 	andeq	r0, r5, pc
 8000a64:	5303100a 	tstpl	r3, #10
 8000a68:	310f90ef 	tstcc	pc, pc, ror #1
 8000a6c:	201e7fc7 	andscs	r7, lr, r7, asr #31
 8000a70:	50ae1103 	adcpl	r1, lr, r3, lsl #2
 8000a74:	3503300b 	strcc	r3, [r3, #-11]
 8000a78:	30e31376 	rsccc	r1, r3, r6, ror r3
 8000a7c:	3f20ff03 	svccc	0x0020ff03
 8000a80:	f5250350 			@ <UNDEFINED> instruction: 0xf5250350
 8000a84:	2f327db0 	svccs	0x00327db0
 8000a88:	67a20f90 			@ <UNDEFINED> instruction: 0x67a20f90
 8000a8c:	c0fd20e0 	rscsgt	r2, sp, r0, ror #1
 8000a90:	700330bd 	strhvc	r3, [r3], -sp
 8000a94:	109010a2 	addsne	r1, r0, r2, lsr #1
 8000a98:	e168009f 			@ <UNDEFINED> instruction: 0xe168009f
 8000a9c:	10ff6802 	rscsne	r6, pc, r2, lsl #16
 8000aa0:	a0531e03 	subsge	r1, r3, r3, lsl #28
 8000aa4:	505e4001 	subspl	r4, lr, r1
 8000aa8:	304db0b3 	strhcc	fp, [sp], #-3
 8000aac:	ffe31380 			@ <UNDEFINED> instruction: 0xffe31380
 8000ab0:	390301a0 	stmdbcc	r3, {r5, r7, r8}
 8000ab4:	7cb20330 	ldcvc	3, cr0, [r2], #192	@ 0xc0
 8000ab8:	3e802d21 	cdpcc	13, 8, cr2, cr0, cr1, {1}
 8000abc:	89109c33 	ldmdbhi	r0, {r0, r1, r4, r5, sl, fp, ip, pc}
 8000ac0:	50bfa0ff 	ldrshpl	sl, [pc], pc	@ <UNPREDICTABLE>
 8000ac4:	507f8003 	rsbspl	r8, pc, r3
 8000ac8:	105e21af 	subsne	r2, lr, pc, lsr #3
 8000acc:	110c17b4 			@ <UNDEFINED> instruction: 0x110c17b4
 8000ad0:	7f30ff5e 	svcvc	0x0030ff5e
 8000ad4:	12205181 	eorne	r5, r0, #1073741856	@ 0x40000020
 8000ad8:	f5360360 			@ <UNDEFINED> instruction: 0xf5360360
 8000adc:	033031fc 	teqeq	r0, #252, 2	@ 0x3f
 8000ae0:	70ff2161 	rscsvc	r2, pc, r1, ror #2
 8000ae4:	f1fdd07f 			@ <UNDEFINED> instruction: 0xf1fdd07f
 8000ae8:	f07ff17f 			@ <UNDEFINED> instruction: 0xf07ff17f
 8000aec:	f03ff03f 			@ <UNDEFINED> instruction: 0xf03ff03f
 8000af0:	ffbff0bf 			@ <UNDEFINED> instruction: 0xffbff0bf
 8000af4:	bf40bff0 	svclt	0x0040bff0
 8000af8:	014053e0 	cmpeq	r0, r0, ror #7
 8000afc:	4f517c65 	svcmi	0x00517c65
 8000b00:	fbf35fc1 			@ <UNDEFINED> instruction: 0xfbf35fc1
 8000b04:	f001f0ff 			@ <UNDEFINED> instruction: 0xf001f0ff
 8000b08:	f001f001 			@ <UNDEFINED> instruction: 0xf001f001
 8000b0c:	f001f001 			@ <UNDEFINED> instruction: 0xf001f001
 8000b10:	f0fff301 			@ <UNDEFINED> instruction: 0xf0fff301
 8000b14:	01f0ff01 	mvnseq	pc, r1, lsl #30
 8000b18:	fff301f0 			@ <UNDEFINED> instruction: 0xfff301f0
 8000b1c:	01f001f0 	ldrsheq	r0, [r0, #16]!
 8000b20:	01f001f0 	ldrsheq	r0, [r0, #16]!
 8000b24:	f0ff01f0 			@ <UNDEFINED> instruction: 0xf0ff01f0
 8000b28:	e401f001 	str	pc, [r1], #-1
 8000b2c:	86a0f514 			@ <UNDEFINED> instruction: 0x86a0f514
 8000b30:	b6b7fbfc 			@ <UNDEFINED> instruction: 0xb6b7fbfc
 8000b34:	ffbef5da 			@ <UNDEFINED> instruction: 0xffbef5da
 8000b38:	1ef01d87 	cdpne	13, 15, cr1, cr0, cr7, {4}
 8000b3c:	bc135bf6 			@ <UNDEFINED> instruction: 0xbc135bf6
 8000b40:	a71e1df0 			@ <UNDEFINED> instruction: 0xa71e1df0
 8000b44:	9a100d02 	bls	8403f54 <IntrRet+0x40186c>
 8000b48:	a69ef0ff 			@ <UNDEFINED> instruction: 0xa69ef0ff
 8000b4c:	f461f03b 	vld4.8	{d31-d34}, [r1 :256], fp
 8000b50:	1001f034 	andne	pc, r1, r4, lsr r0	@ <UNPREDICTABLE>
 8000b54:	f0b664bf 			@ <UNDEFINED> instruction: 0xf0b664bf
 8000b58:	7f10ff1d 	svcvc	0x0010ff1d
 8000b5c:	6954ed03 	ldmdbvs	r4, {r0, r1, r8, sl, fp, sp, lr, pc}^
 8000b60:	372f01f0 			@ <UNDEFINED> instruction: 0x372f01f0
 8000b64:	fcf6def6 			@ <UNDEFINED> instruction: 0xfcf6def6
 8000b68:	f0ff0b15 			@ <UNDEFINED> instruction: 0xf0ff0b15
 8000b6c:	1f1f101c 	svcne	0x001f101c
 8000b70:	7041f080 	subvc	pc, r1, r0, lsl #1
 8000b74:	451d231e 	ldrmi	r2, [sp, #-798]	@ 0xfffffce2
 8000b78:	ff01f066 			@ <UNDEFINED> instruction: 0xff01f066
 8000b7c:	24003c10 	strcs	r3, [r0], #-3088	@ 0xfffff3f0
 8000b80:	01f00330 	mvnseq	r0, r0, lsr r3
 8000b84:	1335db3f 	teqne	r5, #64512	@ 0xfc00
 8000b88:	556b1cf0 	strbpl	r1, [fp, #-3312]!	@ 0xfffff310
 8000b8c:	945ff1ff 	ldrbls	pc, [pc], #-511	@ 8000b94 <health_gfx+0x450>	@ <UNPREDICTABLE>
 8000b90:	f05355ec 			@ <UNDEFINED> instruction: 0xf05355ec
 8000b94:	f01ea01c 			@ <UNDEFINED> instruction: 0xf01ea01c
 8000b98:	f094351f 			@ <UNDEFINED> instruction: 0xf094351f
 8000b9c:	7eb0ffbe 	mrcvc	15, 5, APSR_nzcv, cr0, cr14, {5}
 8000ba0:	1ef01a30 			@ <UNDEFINED> instruction: 0x1ef01a30
 8000ba4:	bef19d60 	cdplt	13, 15, cr9, cr1, cr0, {3}
 8000ba8:	01f001f0 	ldrsheq	r0, [r0, #16]!
 8000bac:	f0ff01f0 			@ <UNDEFINED> instruction: 0xf0ff01f0
 8000bb0:	f001f001 			@ <UNDEFINED> instruction: 0xf001f001
 8000bb4:	f0fff301 			@ <UNDEFINED> instruction: 0xf0fff301
 8000bb8:	f001f001 			@ <UNDEFINED> instruction: 0xf001f001
 8000bbc:	fffff301 			@ <UNDEFINED> instruction: 0xfffff301
 8000bc0:	01f001f0 	ldrsheq	r0, [r0, #16]!
 8000bc4:	01f001f0 	ldrsheq	r0, [r0, #16]!
 8000bc8:	01f001f0 	ldrsheq	r0, [r0, #16]!
 8000bcc:	4626627d 			@ <UNDEFINED> instruction: 0x4626627d
 8000bd0:	52ffc7df 	rscspl	ip, pc, #58458112	@ 0x37c0000
 8000bd4:	02271e2b 	eoreq	r1, r7, #688	@ 0x2b0
 8000bd8:	fcf6f106 			@ <UNDEFINED> instruction: 0xfcf6f106
 8000bdc:	ea66bef5 	b	99b07b8 <IntrRet+0x19ae0d0>
 8000be0:	7b6ba3ff 	blvc	9ae9be4 <IntrRet+0x1ae74fc>
 8000be4:	8093430d 	addshi	r4, r3, sp, lsl #6
 8000be8:	27a03720 	strcs	r3, [r0, r0, lsr #14]!
 8000bec:	a32a68af 			@ <UNDEFINED> instruction: 0xa32a68af
 8000bf0:	3716ff58 			@ <UNDEFINED> instruction: 0x3716ff58
 8000bf4:	03108f92 	tsteq	r0, #584	@ 0x248
 8000bf8:	13d6f18d 	bicsne	pc, r6, #1073741859	@ 0x40000023
 8000bfc:	6e5618c2 	cdpvs	8, 5, cr1, cr6, cr2, {6}
 8000c00:	60ff1ef0 	ldrshvs	r1, [pc], #224	@ <UNPREDICTABLE>
 8000c04:	a0bb56bf 			@ <UNDEFINED> instruction: 0xa0bb56bf
 8000c08:	2c207003 	stccs	0, cr7, [r0], #-12
 8000c0c:	46d10209 	ldrbmi	r0, [r1], r9, lsl #4
 8000c10:	ffed46d9 			@ <UNDEFINED> instruction: 0xffed46d9
 8000c14:	e5223d91 	str	r3, [r2, #-3473]!	@ 0xfffff26f
 8000c18:	cd000370 	stcgt	3, cr0, [r0, #-448]	@ 0xfffffe40
 8000c1c:	f3489e80 	vcge.f32	d25, d24, d0
 8000c20:	1363ad0b 	cmnne	r3, #704	@ 0x2c0
 8000c24:	ebfa13ff 	bl	7e85c28 <IntrTable+0x4e82738>
 8000c28:	40018008 	andmi	r8, r1, r8
 8000c2c:	b9a050ec 	stmiblt	r0!, {r2, r3, r5, r6, r7, ip, lr}
 8000c30:	80483756 	subhi	r3, r8, r6, asr r7
 8000c34:	5690ff3f 			@ <UNDEFINED> instruction: 0x5690ff3f
 8000c38:	ff234b31 			@ <UNDEFINED> instruction: 0xff234b31
 8000c3c:	1130ff90 	teqpne	r0, r0	@ <illegal shifter operand>	@ p-variant is OBSOLETE
 8000c40:	9fc00a31 	svcls	0x00c00a31
 8000c44:	f1ff4f71 			@ <UNDEFINED> instruction: 0xf1ff4f71
 8000c48:	203f405f 	eorscs	r4, pc, pc, asr r0	@ <UNPREDICTABLE>
 8000c4c:	9f659001 	svcls	0x00659001
 8000c50:	a05a59ee 	subsge	r5, sl, lr, ror #19
 8000c54:	ff808084 			@ <UNDEFINED> instruction: 0xff808084
 8000c58:	44302234 	ldrtmi	r2, [r0], #-564	@ 0xfffffdcc
 8000c5c:	fb57f363 			@ <UNDEFINED> instruction: 0xfb57f363
 8000c60:	4f317ef0 	svcmi	0x00317ef0
 8000c64:	bff1def1 	svclt	0x00f1def1
 8000c68:	f001f0ff 			@ <UNDEFINED> instruction: 0xf001f0ff
 8000c6c:	f001f001 			@ <UNDEFINED> instruction: 0xf001f001
 8000c70:	f001f001 			@ <UNDEFINED> instruction: 0xf001f001
 8000c74:	f301f001 	vhadd.u8	d15, d1, d1
 8000c78:	01f0ffff 	ldrsheq	pc, [r0, #255]!	@ 0xff	@ <UNPREDICTABLE>
 8000c7c:	01f001f0 	ldrsheq	r0, [r0, #16]!
 8000c80:	01f0fff3 	ldrsheq	pc, [r0, #243]!	@ 0xf3	@ <UNPREDICTABLE>
 8000c84:	01f001f0 	ldrsheq	r0, [r0, #16]!
 8000c88:	f0ff01f0 			@ <UNDEFINED> instruction: 0xf0ff01f0
 8000c8c:	f001f001 			@ <UNDEFINED> instruction: 0xf001f001
 8000c90:	f001f001 			@ <UNDEFINED> instruction: 0xf001f001
 8000c94:	ff01f001 			@ <UNDEFINED> instruction: 0xff01f001
 8000c98:	ff538bf7 			@ <UNDEFINED> instruction: 0xff538bf7
 8000c9c:	e893f7ff 	ldm	r3, {r0, r1, r2, r3, r4, r5, r6, r7, r8, r9, sl, ip, sp, lr, pc}
 8000ca0:	01f041f0 	ldrsheq	r4, [r0, #16]!
 8000ca4:	1e5a7bc7 	vnmlane.f64	d23, d26, d7
 8000ca8:	3fe00310 	svccc	0x00e00310
 8000cac:	17cc13ff 			@ <UNDEFINED> instruction: 0x17cc13ff
 8000cb0:	f00310fd 			@ <UNDEFINED> instruction: 0xf00310fd
 8000cb4:	f440305f 	vst4.16	{d19-d22}, [r0 :64]
 8000cb8:	badbd767 	blt	76f6a5c <IntrTable+0x46f356c>
 8000cbc:	5be7ffe3 	blpl	7a00c50 <IntrTable+0x49fd760>
 8000cc0:	fff72e25 			@ <UNDEFINED> instruction: 0xfff72e25
 8000cc4:	bc27ef42 	stclt	15, cr14, [r7], #-264	@ 0xfffffef8
 8000cc8:	fef6c027 			@ <UNDEFINED> instruction: 0xfef6c027
 8000ccc:	93fff924 	mvnsls	pc, #36, 18	@ 0x90000
 8000cd0:	3020f069 	eorcc	pc, r0, r9, rrx
 8000cd4:	807ff0e0 	rsbshi	pc, pc, r0, ror #1
 8000cd8:	f0445de0 			@ <UNDEFINED> instruction: 0xf0445de0
 8000cdc:	ff7b987f 			@ <UNDEFINED> instruction: 0xff7b987f
 8000ce0:	9f313ff8 	svcls	0x00313ff8
 8000ce4:	b323af53 			@ <UNDEFINED> instruction: 0xb323af53
 8000ce8:	420040f0 	andmi	r4, r0, #240	@ 0xf0
 8000cec:	f7050320 			@ <UNDEFINED> instruction: 0xf7050320
 8000cf0:	e91625ff 	ldmdb	r6, {r0, r1, r2, r3, r4, r5, r6, r7, r8, sl, sp}
 8000cf4:	b088f35b 	addlt	pc, r8, fp, asr r3	@ <UNPREDICTABLE>
 8000cf8:	f07c89df 			@ <UNDEFINED> instruction: 0xf07c89df
 8000cfc:	26b42120 	ldrtcs	r2, [r4], r0, lsr #2
 8000d00:	583dff51 	ldmdapl	sp!, {r0, r4, r6, r8, r9, sl, fp, ip, sp, lr, pc}
 8000d04:	01f041f0 	ldrsheq	r4, [r0, #16]!
 8000d08:	01f001f0 	ldrsheq	r0, [r0, #16]!
 8000d0c:	01f001f0 	ldrsheq	r0, [r0, #16]!
 8000d10:	f0ff01f0 			@ <UNDEFINED> instruction: 0xf0ff01f0
 8000d14:	f001f001 			@ <UNDEFINED> instruction: 0xf001f001
 8000d18:	f0fff301 			@ <UNDEFINED> instruction: 0xf0fff301
 8000d1c:	f001f001 			@ <UNDEFINED> instruction: 0xf001f001
 8000d20:	fffff301 			@ <UNDEFINED> instruction: 0xfffff301
 8000d24:	01f001f0 	ldrsheq	r0, [r0, #16]!
 8000d28:	01f001f0 	ldrsheq	r0, [r0, #16]!
 8000d2c:	01f001f0 	ldrsheq	r0, [r0, #16]!
 8000d30:	01f001f0 	ldrsheq	r0, [r0, #16]!
 8000d34:	f201f0ff 	vqadd.s8	<illegal reg q7.5>, <illegal reg q8.5>, <illegal reg q15.5>
 8000d38:	f2f7ff4f 	vext.8	<illegal reg q15.5>, <illegal reg q3.5>, <illegal reg q7.5>, #15
 8000d3c:	f0f7ffae 			@ <UNDEFINED> instruction: 0xf0f7ffae
 8000d40:	6701f001 	strvs	pc, [r1, -r1]
 8000d44:	4f82ff9f 	svcmi	0x0082ff9f
 8000d48:	5f80fa96 	svcpl	0x0080fa96
 8000d4c:	3ff0bca7 	svccc	0x00f0bca7
 8000d50:	40c0ef83 	sbcmi	lr, r0, r3, lsl #31
 8000d54:	dfff95ff 	svcle	0x00ff95ff
 8000d58:	b77c2ed8 			@ <UNDEFINED> instruction: 0xb77c2ed8
 8000d5c:	57caaaa1 	strbpl	sl, [sl, r1, lsr #21]
 8000d60:	c30340d1 	tstgt	r3, #209	@ 0xd1
 8000d64:	ff1ab872 			@ <UNDEFINED> instruction: 0xff1ab872
 8000d68:	3ce9f3f3 	stclcc	3, cr15, [r9], #972	@ 0x3cc
 8000d6c:	7a499fc0 	bvc	9268c74 <IntrRet+0x126658c>
 8000d70:	0310593f 	tsteq	r0, #1032192	@ 0xfc000
 8000d74:	9f57e0c0 	svcls	0x0057e0c0
 8000d78:	a70160ff 			@ <UNDEFINED> instruction: 0xa70160ff
 8000d7c:	3def43db 	stclcc	3, cr4, [pc, #876]!	@ 80010f0 <health_gfx+0x9ac>
 8000d80:	3993fb49 	ldmibcc	r3, {r0, r3, r6, r8, r9, fp, ip, sp, lr, pc}
 8000d84:	7f9d287e 	svcvc	0x009d287e
 8000d88:	a1c0ff97 			@ <UNDEFINED> instruction: 0xa1c0ff97
 8000d8c:	0370d06f 	cmneq	r0, #111	@ 0x6f
 8000d90:	be90bef0 	mrclt	14, 4, fp, cr0, cr0, {7}
 8000d94:	0150ffd1 	ldrsbeq	pc, [r0, #-241]	@ 0xffffff0f	@ <UNPREDICTABLE>
 8000d98:	f1ff3b3a 			@ <UNDEFINED> instruction: 0xf1ff3b3a
 8000d9c:	f001f0ff 			@ <UNDEFINED> instruction: 0xf001f0ff
 8000da0:	f001f001 			@ <UNDEFINED> instruction: 0xf001f001
 8000da4:	f001f001 			@ <UNDEFINED> instruction: 0xf001f001
 8000da8:	ff01f001 			@ <UNDEFINED> instruction: 0xff01f001
 8000dac:	01f001f0 	ldrsheq	r0, [r0, #16]!
 8000db0:	fff301f0 			@ <UNDEFINED> instruction: 0xfff301f0
 8000db4:	01f001f0 	ldrsheq	r0, [r0, #16]!
 8000db8:	fff301f0 			@ <UNDEFINED> instruction: 0xfff301f0
 8000dbc:	f001f0ff 			@ <UNDEFINED> instruction: 0xf001f0ff
 8000dc0:	f001f001 			@ <UNDEFINED> instruction: 0xf001f001
 8000dc4:	f001f001 			@ <UNDEFINED> instruction: 0xf001f001
 8000dc8:	f001f001 			@ <UNDEFINED> instruction: 0xf001f001
 8000dcc:	ecf1ff01 	ldcl	15, cr15, [r1], #4
 8000dd0:	0350974f 	cmpeq	r0, #20709376	@ 0x13c0000
 8000dd4:	8893fbc5 	ldmhi	r3, {r0, r2, r6, r7, r8, r9, fp, ip, sp, lr, pc}
 8000dd8:	fb35abd3 			@ <UNDEFINED> instruction: 0xfb35abd3
 8000ddc:	f6ff03b0 			@ <UNDEFINED> instruction: 0xf6ff03b0
 8000de0:	f2e8f95b 	vqrshrn.s64	d31, <illegal reg q5.5>, #24
 8000de4:	f295226c 	vmlal.s16	q1, d5, d4[3]
 8000de8:	e7dbc7ac 	ldrb	ip, [fp, ip, lsr #15]
 8000dec:	ffb71bdf 			@ <UNDEFINED> instruction: 0xffb71bdf
 8000df0:	aba22cb4 	blge	688c0c8 <IntrTable+0x3888bd8>
 8000df4:	0330a47c 	teqeq	r0, #124, 8	@ 0x7c000000
 8000df8:	e7daabd3 			@ <UNDEFINED> instruction: 0xe7daabd3
 8000dfc:	3fa01604 	svccc	0x00a01604
 8000e00:	403818ff 			@ <UNDEFINED> instruction: 0x403818ff
 8000e04:	339b2039 	orrscc	r2, fp, #57	@ 0x39
 8000e08:	134aa354 	cmpne	sl, #84, 6	@ 0x50000001
 8000e0c:	60def0c1 	sbcsvs	pc, lr, r1, asr #1
 8000e10:	ccd3ffbe 	ldclgt	15, cr15, [r3], {190}	@ 0xbe
 8000e14:	43b4088b 			@ <UNDEFINED> instruction: 0x43b4088b
 8000e18:	03306904 	teqeq	r0, #4, 18	@ 0x10000
 8000e1c:	79289fc0 	stmdbvc	r8!, {r6, r7, r8, r9, sl, fp, ip, pc}
 8000e20:	61ff7901 	mvnsvs	r7, r1, lsl #18
 8000e24:	471fa0a4 	ldrmi	sl, [pc, -r4, lsr #1]
 8000e28:	dfcbabfc 	svcle	0x00cbabfc
 8000e2c:	c4a9a4b9 	strtgt	sl, [r9], #1209	@ 0x4b9
 8000e30:	fffe544c 			@ <UNDEFINED> instruction: 0xfffe544c
 8000e34:	0b566cf5 	bleq	959c210 <IntrRet+0x1599b28>
 8000e38:	0f104ea5 	svceq	0x00104ea5
 8000e3c:	fda87fc0 			@ <UNDEFINED> instruction: 0xfda87fc0
 8000e40:	c6842bf5 			@ <UNDEFINED> instruction: 0xc6842bf5
 8000e44:	f05ef0ff 			@ <UNDEFINED> instruction: 0xf05ef0ff
 8000e48:	f001f001 			@ <UNDEFINED> instruction: 0xf001f001
 8000e4c:	f001f001 			@ <UNDEFINED> instruction: 0xf001f001
 8000e50:	f001f001 			@ <UNDEFINED> instruction: 0xf001f001
 8000e54:	01f0ff01 	mvnseq	pc, r1, lsl #30
 8000e58:	01f0fff3 	ldrsheq	pc, [r0, #243]!	@ 0xf3	@ <UNPREDICTABLE>
 8000e5c:	fff301f0 			@ <UNDEFINED> instruction: 0xfff301f0
 8000e60:	01f001f0 	ldrsheq	r0, [r0, #16]!
 8000e64:	f0ff01f0 			@ <UNDEFINED> instruction: 0xf0ff01f0
 8000e68:	f001f001 			@ <UNDEFINED> instruction: 0xf001f001
 8000e6c:	f001f001 			@ <UNDEFINED> instruction: 0xf001f001
 8000e70:	f3efd901 			@ <UNDEFINED> instruction: 0xf3efd901
 8000e74:	ff1fd74f 			@ <UNDEFINED> instruction: 0xff1fd74f
 8000e78:	fbb5ef63 			@ <UNDEFINED> instruction: 0xfbb5ef63
 8000e7c:	3c601e40 	stclcc	14, cr1, [r0], #-256	@ 0xffffff00
 8000e80:	3ff0b81e 	svccc	0x00f0b81e
 8000e84:	20f010f3 	ldrshcs	r1, [r0], #3	@ <UNPREDICTABLE>
 8000e88:	f720f0ff 			@ <UNDEFINED> instruction: 0xf720f0ff
 8000e8c:	f08030df 			@ <UNDEFINED> instruction: 0xf08030df
 8000e90:	f38ff420 	vraddhn.i16	d15, <illegal reg q7.5>, q8
 8000e94:	ce5df053 	mrcgt	0, 2, APSR_nzcv, cr13, cr3, {2}
 8000e98:	0350ffdf 	cmppeq	r0, #892	@ p-variant is OBSOLETE	@ 0x37c
 8000e9c:	b424dfe0 	strtlt	sp, [r4], #-4064	@ 0xfffff020
 8000ea0:	f82a9344 			@ <UNDEFINED> instruction: 0xf82a9344
 8000ea4:	0370bdf0 	cmneq	r0, #240, 26	@ 0x3c00
 8000ea8:	ffffceb3 			@ <UNDEFINED> instruction: 0xffffceb3
 8000eac:	291df8fe 	ldmdbcs	sp, {r1, r2, r3, r4, r5, r6, r7, fp, ip, sp, lr, pc}
 8000eb0:	fb99874f 			@ <UNDEFINED> instruction: 0xfb99874f
 8000eb4:	fbf78fcf 			@ <UNDEFINED> instruction: 0xfbf78fcf
 8000eb8:	ff1f38ce 			@ <UNDEFINED> instruction: 0xff1f38ce
 8000ebc:	e0f0b084 	rscs	fp, r0, r4, lsl #1
 8000ec0:	20e0fdb4 	strhcs	pc, [r0], #212	@ 0xd4	@ <UNPREDICTABLE>
 8000ec4:	2b64b313 	blcs	992db18 <IntrRet+0x192b430>
 8000ec8:	fbc9a0f0 			@ <UNDEFINED> instruction: 0xfbc9a0f0
 8000ecc:	f33ff0ff 	vqadd.u64	<illegal reg q7.5>, <illegal reg q15.5>, <illegal reg q15.5>
 8000ed0:	f01ef0ef 			@ <UNDEFINED> instruction: 0xf01ef0ef
 8000ed4:	f001f01e 			@ <UNDEFINED> instruction: 0xf001f01e
 8000ed8:	f001f001 			@ <UNDEFINED> instruction: 0xf001f001
 8000edc:	01f0ff01 	mvnseq	pc, r1, lsl #30
 8000ee0:	01f001f0 	ldrsheq	r0, [r0, #16]!
 8000ee4:	01f001f0 	ldrsheq	r0, [r0, #16]!
 8000ee8:	01f0fff3 	ldrsheq	pc, [r0, #243]!	@ 0xf3	@ <UNPREDICTABLE>
 8000eec:	f0ff01f0 			@ <UNDEFINED> instruction: 0xf0ff01f0
 8000ef0:	f051f001 			@ <UNDEFINED> instruction: 0xf051f001
 8000ef4:	f001f001 			@ <UNDEFINED> instruction: 0xf001f001
 8000ef8:	f001f001 			@ <UNDEFINED> instruction: 0xf001f001
 8000efc:	ff01f001 			@ <UNDEFINED> instruction: 0xff01f001
 8000f00:	01f001f0 	ldrsheq	r0, [r0, #16]!
 8000f04:	01f001f0 	ldrsheq	r0, [r0, #16]!
 8000f08:	01f001f0 	ldrsheq	r0, [r0, #16]!
 8000f0c:	01f001f0 	ldrsheq	r0, [r0, #16]!
 8000f10:	f001f0ff 			@ <UNDEFINED> instruction: 0xf001f0ff
 8000f14:	f001f001 			@ <UNDEFINED> instruction: 0xf001f001
 8000f18:	f001f001 			@ <UNDEFINED> instruction: 0xf001f001
 8000f1c:	f001f001 			@ <UNDEFINED> instruction: 0xf001f001
 8000f20:	01f0ff01 	mvnseq	pc, r1, lsl #30
 8000f24:	01f001f0 	ldrsheq	r0, [r0, #16]!
 8000f28:	01f001f0 	ldrsheq	r0, [r0, #16]!
 8000f2c:	01f001f0 	ldrsheq	r0, [r0, #16]!
 8000f30:	f0ff01f0 			@ <UNDEFINED> instruction: 0xf0ff01f0
 8000f34:	f001f001 			@ <UNDEFINED> instruction: 0xf001f001
 8000f38:	f001f001 			@ <UNDEFINED> instruction: 0xf001f001
 8000f3c:	f001f001 			@ <UNDEFINED> instruction: 0xf001f001
 8000f40:	ff01f001 			@ <UNDEFINED> instruction: 0xff01f001
 8000f44:	01f001f0 	ldrsheq	r0, [r0, #16]!
 8000f48:	01f001f0 	ldrsheq	r0, [r0, #16]!
 8000f4c:	01f001f0 	ldrsheq	r0, [r0, #16]!
 8000f50:	01f001f0 	ldrsheq	r0, [r0, #16]!
 8000f54:	f001f0ff 			@ <UNDEFINED> instruction: 0xf001f0ff
 8000f58:	f001f001 			@ <UNDEFINED> instruction: 0xf001f001
 8000f5c:	f001f001 			@ <UNDEFINED> instruction: 0xf001f001
 8000f60:	f0fff301 			@ <UNDEFINED> instruction: 0xf0fff301
 8000f64:	01f0ff01 	mvnseq	pc, r1, lsl #30
 8000f68:	01f0fff3 	ldrsheq	pc, [r0, #243]!	@ 0xf3	@ <UNPREDICTABLE>
 8000f6c:	73df01f0 	bicsvc	r0, pc, #240, 2	@ 0x3c
 8000f70:	31f5eb15 	mvnscc	lr, r5, lsl fp
 8000f74:	16ff5285 	ldrbtne	r5, [pc], r5, lsl #5
 8000f78:	f0ae2df1 			@ <UNDEFINED> instruction: 0xf0ae2df1
 8000f7c:	46841a1d 			@ <UNDEFINED> instruction: 0x46841a1d
 8000f80:	5ef0f6a9 	cdppl	6, 15, cr15, cr0, cr9, {5}
 8000f84:	cf1ef033 	svcgt	0x001ef033
 8000f88:	7e10d396 	mrcvc	3, 0, sp, cr0, cr6, {4}
 8000f8c:	3a1e1e1e 	bcc	878880c <IntrRet+0x786124>
 8000f90:	13365ff0 	teqne	r6, #240, 30	@ 0x3c0
 8000f94:	f0ff076a 			@ <UNDEFINED> instruction: 0xf0ff076a
 8000f98:	fbb3371d 			@ <UNDEFINED> instruction: 0xfbb3371d
 8000f9c:	ff47babe 			@ <UNDEFINED> instruction: 0xff47babe
 8000fa0:	fc80a08a 			@ <UNDEFINED> instruction: 0xfc80a08a
 8000fa4:	ffc6fa7e 			@ <UNDEFINED> instruction: 0xffc6fa7e
 8000fa8:	a76b80f0 			@ <UNDEFINED> instruction: 0xa76b80f0
 8000fac:	40f0c62b 	rscsmi	ip, r0, fp, lsr #12
 8000fb0:	9ff0668c 	svcls	0x00f0668c
 8000fb4:	7ff167bc 	svcvc	0x00f167bc
 8000fb8:	2ce79cff 	stclcs	12, cr9, [r7], #1020	@ 0x3fc
 8000fbc:	f0592f66 			@ <UNDEFINED> instruction: 0xf0592f66
 8000fc0:	f060f01d 			@ <UNDEFINED> instruction: 0xf060f01d
 8000fc4:	f7bb115f 			@ <UNDEFINED> instruction: 0xf7bb115f
 8000fc8:	c6ccffd0 			@ <UNDEFINED> instruction: 0xc6ccffd0
 8000fcc:	ff905ff0 			@ <UNDEFINED> instruction: 0xff905ff0
 8000fd0:	1df09257 	ldclne	2, cr9, [r0, #348]!	@ 0x15c
 8000fd4:	0011be10 	andseq	fp, r1, r0, lsl lr
 8000fd8:	60ffbef0 	ldrshvs	fp, [pc], #224	@ <UNPREDICTABLE>
 8000fdc:	cd5ff09e 	ldclgt	0, cr15, [pc, #-632]	@ 8000d6c <health_gfx+0x628>
 8000fe0:	2cc82cc7 	stclcs	12, cr2, [r8], {199}	@ 0xc7
 8000fe4:	cc01f0cc 	stcgt	0, cr15, [r1], {204}	@ 0xcc
 8000fe8:	ff01f047 			@ <UNDEFINED> instruction: 0xff01f047
 8000fec:	9ef0251a 	mrcls	5, 7, r2, cr0, cr10, {0}
 8000ff0:	5e00ffe0 	cdppl	15, 0, cr15, cr0, cr0, {7}
 8000ff4:	53da6ff9 	bicspl	r6, sl, #996	@ 0x3e4
 8000ff8:	5b201df0 	blpl	88087c0 <IntrRet+0x8060d8>
 8000ffc:	9d02115f 	stcls	1, cr1, [r2, #-380]	@ 0xfffffe84
 8001000:	f00310e1 			@ <UNDEFINED> instruction: 0xf00310e1
 8001004:	f253391d 	vmul.i16	d19, d3, d13
 8001008:	ff60b3e1 			@ <UNDEFINED> instruction: 0xff60b3e1
 800100c:	01f01ff1 	ldrsheq	r1, [r0, #241]!	@ 0xf1
 8001010:	01f0fff3 	ldrsheq	pc, [r0, #243]!	@ 0xf3	@ <UNPREDICTABLE>
 8001014:	fff301f0 			@ <UNDEFINED> instruction: 0xfff301f0
 8001018:	20fa01f0 	ldrshcs	r0, [sl], #16	@ <UNPREDICTABLE>
 800101c:	f0165dff 			@ <UNDEFINED> instruction: 0xf0165dff
 8001020:	42e733eb 	rscmi	r3, r7, #-1409286141	@ 0xac000003
 8001024:	1d1fe050 	ldcne	0, cr14, [pc, #-320]	@ 8000eec <health_gfx+0x7a8>
 8001028:	12025b82 	andne	r5, r2, #133120	@ 0x20800
 800102c:	3ff0ff97 	svccc	0x00f0ff97
 8001030:	8bc35dfb 	blhi	70d8824 <IntrTable+0x40d5334>
 8001034:	0320ee03 			@ <UNDEFINED> instruction: 0x0320ee03
 8001038:	9ef01022 	cdpls	0, 15, cr1, cr0, cr2, {1}
 800103c:	f0fff3ad 			@ <UNDEFINED> instruction: 0xf0fff3ad
 8001040:	f30e7f60 	vpmax.f32	<illegal reg q3.5>, q7, q8
 8001044:	130a33cf 	tstne	sl, #1006632963	@ 0x3c000003
 8001048:	f0ca21eb 			@ <UNDEFINED> instruction: 0xf0ca21eb
 800104c:	ff8c441f 			@ <UNDEFINED> instruction: 0xff8c441f
 8001050:	1ff00d63 	svcne	0x00f00d63
 8001054:	7ef080aa 	cdpvc	0, 15, cr8, cr0, cr10, {5}
 8001058:	eb13c01a 	bl	84f10c8 <IntrRet+0x4ee9e0>
 800105c:	56027f20 	strpl	r7, [r2], -r0, lsr #30
 8001060:	f11ff0ff 			@ <UNDEFINED> instruction: 0xf11ff0ff
 8001064:	f194ff00 			@ <UNDEFINED> instruction: 0xf194ff00
 8001068:	448bc37f 	strmi	ip, [fp], #895	@ 0x37f
 800106c:	f0d0f2d1 			@ <UNDEFINED> instruction: 0xf0d0f2d1
 8001070:	abf2ff60 	blge	7cc0df8 <IntrTable+0x4cbd908>
 8001074:	491ceb73 	ldmdbmi	ip, {r0, r1, r4, r5, r6, r8, r9, fp, sp, lr, pc}
 8001078:	5ff05ff0 	svcpl	0x00f05ff0
 800107c:	e011ebe3 	ands	lr, r1, r3, ror #23
 8001080:	40ff50f3 	ldrshmi	r5, [pc], #3	@ <UNPREDICTABLE>
 8001084:	150011be 	strne	r1, [r0, #-446]	@ 0xfffffe42
 8001088:	f5a80131 			@ <UNDEFINED> instruction: 0xf5a80131
 800108c:	20e753af 	rsccs	r5, r7, pc, lsr #7
 8001090:	ffbefd03 			@ <UNDEFINED> instruction: 0xffbefd03
 8001094:	03208123 			@ <UNDEFINED> instruction: 0x03208123
 8001098:	bff07f20 	svclt	0x00f07f20
 800109c:	03201d60 			@ <UNDEFINED> instruction: 0x03201d60
 80010a0:	1d9c5ff0 	ldcne	15, cr5, [ip, #960]	@ 0x3c0
 80010a4:	e05ef0fd 	ldrsh	pc, [lr], #-13	@ <UNPREDICTABLE>
 80010a8:	82bff0ff 	adcshi	pc, pc, #255	@ 0xff
 80010ac:	f10b0120 			@ <UNDEFINED> instruction: 0xf10b0120
 80010b0:	eb031e1f 	bl	80c8934 <IntrRet+0xc624c>
 80010b4:	308a16ff 			@ <UNDEFINED> instruction: 0x308a16ff
 80010b8:	45bffc43 	ldrmi	pc, [pc, #3139]!	@ 8001d03 <runtime_dispatch+0x27>
 80010bc:	f089500c 			@ <UNDEFINED> instruction: 0xf089500c
 80010c0:	f07ffd1f 			@ <UNDEFINED> instruction: 0xf07ffd1f
 80010c4:	01f0ff01 	mvnseq	pc, r1, lsl #30
 80010c8:	01f0fff3 	ldrsheq	pc, [r0, #243]!	@ 0xf3	@ <UNPREDICTABLE>
 80010cc:	01f001f0 	ldrsheq	r0, [r0, #16]!
 80010d0:	01f051f0 	ldrsheq	r5, [r0, #16]!
 80010d4:	f0f701f0 			@ <UNDEFINED> instruction: 0xf0f701f0
 80010d8:	f001f001 			@ <UNDEFINED> instruction: 0xf001f001
 80010dc:	ed013001 	stc	0, cr3, [r1, #-4]
 80010e0:	04000350 	streq	r0, [r0], #-848	@ 0xfffffcb0
 80010e4:	c08b0310 	addgt	r0, fp, r0, lsl r3
 80010e8:	deeede1d 	mcrle	14, 7, sp, cr14, cr13, {0}
 80010ec:	20de0330 	sbcscs	r0, lr, r0, lsr r3
 80010f0:	f13ef003 			@ <UNDEFINED> instruction: 0xf13ef003
 80010f4:	3b000150 	blcc	800163c <health_gfx+0xef8>
 80010f8:	20f00310 	rscscs	r0, r0, r0, lsl r3
 80010fc:	00eeeedd 			@ <UNDEFINED> instruction: 0x00eeeedd
 8001100:	6760eb02 	strbvs	lr, [r0, -r2, lsl #22]!
 8001104:	4d300180 	ldcmi	1, cr0, [r0, #-512]!	@ 0xfffffe00
 8001108:	dd5f00ed 	ldclle	0, cr0, [pc, #-948]	@ 8000d5c <health_gfx+0x618>
 800110c:	07100300 	ldreq	r0, [r0, -r0, lsl #6]
 8001110:	003fd0ce 	eorseq	sp, pc, lr, asr #1
 8001114:	70dddd3c 	sbcsvc	sp, sp, ip, lsr sp
 8001118:	001fe063 	andseq	lr, pc, r3, rrx
 800111c:	ed7fdd10 	ldcl	13, cr13, [pc, #-64]!	@ 80010e4 <health_gfx+0x9a0>
 8001120:	01404700 	cmpeq	r0, r0, lsl #14
 8001124:	7ef02b00 	vmovvc.f64	d18, #0	@ 0x40000000  2.0
 8001128:	3ff07e10 	svccc	0x00f07e10
 800112c:	40f77c20 	rscsmi	r7, r7, r0, lsr #24
 8001130:	50360003 	eorspl	r0, r6, r3
 8001134:	de3ed042 	cdple	0, 3, cr13, cr14, cr2, {2}
 8001138:	7ef03e00 	cdpvc	14, 15, cr3, cr0, cr0, {0}
 800113c:	f0fb20f0 			@ <UNDEFINED> instruction: 0xf0fb20f0
 8001140:	900140de 			@ <UNDEFINED> instruction: 0x900140de
 8001144:	305ff09e 			@ <UNDEFINED> instruction: 0x305ff09e
 8001148:	3801defc 	stmdacc	r1, {r2, r3, r4, r5, r6, r7, r9, sl, fp, ip, lr, pc}
 800114c:	00f7ffe0 	rscseq	pc, r7, r0, ror #31
 8001150:	f003500d 			@ <UNDEFINED> instruction: 0xf003500d
 8001154:	de81a040 	cdple	0, 8, cr10, cr1, cr0, {2}
 8001158:	3b107911 	blcc	841f5a4 <IntrRet+0x41cebc>
 800115c:	e0ff4a00 	rscs	r4, pc, r0, lsl #20
 8001160:	10fd207e 	rscsne	r2, sp, lr, ror r0
 8001164:	808a2046 	addhi	r2, sl, r6, asr #32
 8001168:	00b0301f 	adcseq	r3, r0, pc, lsl r0
 800116c:	fdd40101 			@ <UNDEFINED> instruction: 0xfdd40101
 8001170:	1c103a10 			@ <UNDEFINED> instruction: 0x1c103a10
 8001174:	3520c0a0 	strcc	ip, [r0, #-160]!	@ 0xffffff60
 8001178:	88407d11 	stmdahi	r0, {r0, r4, r8, sl, fp, ip, sp, lr}^
 800117c:	ff4530dd 			@ <UNDEFINED> instruction: 0xff4530dd
 8001180:	3d11e1f0 	ldccc	1, cr14, [r1, #-960]	@ 0xfffffc40
 8001184:	7fe06340 	svcvc	0x00e06340
 8001188:	37005900 	strcc	r5, [r0, -r0, lsl #18]
 800118c:	0b103630 	bleq	840ea54 <IntrRet+0x40c36c>
 8001190:	12b680e7 	adcsne	r8, r6, #231	@ 0xe7
 8001194:	dd83306f 	stcle	0, cr3, [r3, #444]	@ 0x1bc
 8001198:	f13c12dd 			@ <UNDEFINED> instruction: 0xf13c12dd
 800119c:	ff5e315f 			@ <UNDEFINED> instruction: 0xff5e315f
 80011a0:	0130b600 	teqeq	r0, r0, lsl #12
 80011a4:	b9e22600 	stmiblt	r2!, {r9, sl, sp}^
 80011a8:	bd203822 	stclt	8, cr3, [r0, #-136]!	@ 0xffffff78
 80011ac:	20906520 	addscs	r6, r0, r0, lsr #10
 80011b0:	915c20ff 	ldrshls	r2, [ip, #-15]
 80011b4:	f0231040 			@ <UNDEFINED> instruction: 0xf0231040
 80011b8:	f001f0be 			@ <UNDEFINED> instruction: 0xf001f0be
 80011bc:	f001f001 			@ <UNDEFINED> instruction: 0xf001f001
 80011c0:	fff3ff01 			@ <UNDEFINED> instruction: 0xfff3ff01
 80011c4:	01f001f0 	ldrsheq	r0, [r0, #16]!
 80011c8:	01f0fff3 	ldrsheq	pc, [r0, #243]!	@ 0xf3	@ <UNPREDICTABLE>
 80011cc:	01f001f0 	ldrsheq	r0, [r0, #16]!
 80011d0:	f0f701f0 			@ <UNDEFINED> instruction: 0xf0f701f0
 80011d4:	f1ae4101 			@ <UNDEFINED> instruction: 0xf1ae4101
 80011d8:	edf4a1ca 	ldcl	1, cr10, [r4, #808]!	@ 0x328
 80011dc:	03105201 	tsteq	r0, #268435456	@ 0x10000000
 80011e0:	40ff2cf1 	ldrshmi	r2, [pc], #193	@ <UNPREDICTABLE>
 80011e4:	1288013e 	addne	r0, r8, #-2147483633	@ 0x8000000f
 80011e8:	9240f071 	subls	pc, r0, #113	@ 0x71
 80011ec:	62caf357 	sbcvs	pc, sl, #1543503873	@ 0x5c000001
 80011f0:	ffebf254 			@ <UNDEFINED> instruction: 0xffebf254
 80011f4:	01104ff4 			@ <UNDEFINED> instruction: 0x01104ff4
 80011f8:	b6737ff0 			@ <UNDEFINED> instruction: 0xb6737ff0
 80011fc:	3ff08410 	svccc	0x00f08410
 8001200:	1ff03fb0 	svcne	0x00f03fb0
 8001204:	333a30ff 	teqcc	sl, #255	@ 0xff
 8001208:	a02af446 	eorge	pc, sl, r6, asr #8
 800120c:	f077023e 			@ <UNDEFINED> instruction: 0xf077023e
 8001210:	9236937f 	eorsls	r9, r6, #-67108863	@ 0xfc000001
 8001214:	5ff0ffca 	svcpl	0x00f0ffca
 8001218:	1df06c23 	ldclne	12, cr6, [r0, #140]!	@ 0x8c
 800121c:	20f0fff0 	ldrshcs	pc, [r0], #240	@ 0xf0	@ <UNPREDICTABLE>
 8001220:	7ff0cc62 	svcvc	0x00f0cc62
 8001224:	50ff6030 	rscspl	r6, pc, r0, lsr r0	@ <UNPREDICTABLE>
 8001228:	511ff01d 	tstppl	pc, sp, lsl r0	@ p-variant is OBSOLETE	@ <UNPREDICTABLE>
 800122c:	35531420 	ldrbcc	r1, [r3, #-1056]	@ 0xfffffbe0
 8001230:	631df074 	tstpvs	sp, #116	@ p-variant is OBSOLETE	@ 0x74
 8001234:	ff7f13eb 			@ <UNDEFINED> instruction: 0xff7f13eb
 8001238:	c98301f0 	stmibgt	r3, {r4, r5, r6, r7, r8}
 800123c:	55a31ff0 	strpl	r1, [r3, #4080]!	@ 0xff0
 8001240:	5f905ff0 	svcpl	0x00905ff0
 8001244:	9ef120f1 	mrcls	0, 7, r2, cr1, cr1, {7}
 8001248:	f11df0ff 			@ <UNDEFINED> instruction: 0xf11df0ff
 800124c:	261ff05e 			@ <UNDEFINED> instruction: 0x261ff05e
 8001250:	00f314a4 	rscseq	r1, r3, r4, lsr #9
 8001254:	75c3f084 	strbvc	pc, [r3, #132]	@ 0x84	@ <UNPREDICTABLE>
 8001258:	5ff0ff88 	svcpl	0x00f0ff88
 800125c:	01f001f0 	ldrsheq	r0, [r0, #16]!
 8001260:	01f001f0 	ldrsheq	r0, [r0, #16]!
 8001264:	fff301f0 			@ <UNDEFINED> instruction: 0xfff301f0
 8001268:	f0ff01f0 			@ <UNDEFINED> instruction: 0xf0ff01f0
 800126c:	f301f001 	vhadd.u8	d15, d1, d1
 8001270:	f001f0ff 			@ <UNDEFINED> instruction: 0xf001f0ff
 8001274:	f001f001 			@ <UNDEFINED> instruction: 0xf001f001
 8001278:	ff01f001 			@ <UNDEFINED> instruction: 0xff01f001
 800127c:	01f001f0 	ldrsheq	r0, [r0, #16]!
 8001280:	01f001f0 	ldrsheq	r0, [r0, #16]!
 8001284:	01f001f0 	ldrsheq	r0, [r0, #16]!
 8001288:	01f001f0 	ldrsheq	r0, [r0, #16]!
 800128c:	f001f0ff 			@ <UNDEFINED> instruction: 0xf001f0ff
 8001290:	f001f001 			@ <UNDEFINED> instruction: 0xf001f001
 8001294:	f001f001 			@ <UNDEFINED> instruction: 0xf001f001
 8001298:	f001f001 			@ <UNDEFINED> instruction: 0xf001f001
 800129c:	01f0ff01 	mvnseq	pc, r1, lsl #30
 80012a0:	01f001f0 	ldrsheq	r0, [r0, #16]!
 80012a4:	01f001f0 	ldrsheq	r0, [r0, #16]!
 80012a8:	01f001f0 	ldrsheq	r0, [r0, #16]!
 80012ac:	f0ff01f0 			@ <UNDEFINED> instruction: 0xf0ff01f0
 80012b0:	f001f001 			@ <UNDEFINED> instruction: 0xf001f001
 80012b4:	f001f001 			@ <UNDEFINED> instruction: 0xf001f001
 80012b8:	f001f001 			@ <UNDEFINED> instruction: 0xf001f001
 80012bc:	ff01f001 			@ <UNDEFINED> instruction: 0xff01f001
 80012c0:	01f001f0 	ldrsheq	r0, [r0, #16]!
 80012c4:	01f001f0 	ldrsheq	r0, [r0, #16]!
 80012c8:	01f001f0 	ldrsheq	r0, [r0, #16]!
 80012cc:	01f001f0 	ldrsheq	r0, [r0, #16]!
 80012d0:	f001f0ff 			@ <UNDEFINED> instruction: 0xf001f0ff
 80012d4:	f001f001 			@ <UNDEFINED> instruction: 0xf001f001
 80012d8:	f001f001 			@ <UNDEFINED> instruction: 0xf001f001
 80012dc:	f301f001 	vhadd.u8	d15, d1, d1
 80012e0:	01f0e0ff 	ldrsheq	lr, [r0, #15]!
 80012e4:	01f001f0 	ldrsheq	r0, [r0, #16]!
 80012e8:	7b311ff0 	blvc	8c492b0 <IntrRet+0xc46bc8>
 80012ec:	f0a749ff 			@ <UNDEFINED> instruction: 0xf0a749ff
 80012f0:	f0e3ff5f 			@ <UNDEFINED> instruction: 0xf0e3ff5f
 80012f4:	29c0017f 	stmibcs	r0, {r0, r1, r2, r3, r4, r5, r6, r8}^
 80012f8:	213df07d 	teqpcs	sp, sp, ror r0	@ p-variant is OBSOLETE
 80012fc:	4200ffd6 	andmi	pc, r0, #856	@ 0x358
 8001300:	7df0bb30 			@ <UNDEFINED> instruction: 0x7df0bb30
 8001304:	9d00dfa0 	stcls	15, cr13, [r0, #-640]	@ 0xfffffd80
 8001308:	9f7020f0 	svcls	0x007020f0
 800130c:	60ff60f0 	ldrshvs	r6, [pc], #0	@ <UNPREDICTABLE>
 8001310:	f068193f 			@ <UNDEFINED> instruction: 0xf068193f
 8001314:	001f821f 	andseq	r8, pc, pc, lsl r2	@ <UNPREDICTABLE>
 8001318:	f01e101b 			@ <UNDEFINED> instruction: 0xf01e101b
 800131c:	ff01f01f 			@ <UNDEFINED> instruction: 0xff01f01f
 8001320:	01f001f0 	ldrsheq	r0, [r0, #16]!
 8001324:	fff301f0 			@ <UNDEFINED> instruction: 0xfff301f0
 8001328:	01f001f0 	ldrsheq	r0, [r0, #16]!
 800132c:	fff301f0 			@ <UNDEFINED> instruction: 0xfff301f0
 8001330:	f001f0ff 			@ <UNDEFINED> instruction: 0xf001f0ff
 8001334:	f092f101 			@ <UNDEFINED> instruction: 0xf092f101
 8001338:	1ad1c2e9 	bne	7471ee4 <IntrTable+0x446e9f4>
 800133c:	411af083 	tstpmi	sl, r3, lsl #1	@ p-variant is OBSOLETE
 8001340:	6e7bff87 	cdpvs	15, 7, cr15, cr11, cr7, {4}
 8001344:	ec1301f0 	ldc	1, cr0, [r3], {240}	@ 0xf0
 8001348:	01f0ef41 	mvnseq	lr, r1, asr #30
 800134c:	51ab206c 			@ <UNDEFINED> instruction: 0x51ab206c
 8001350:	22ff6fe4 	rscscs	r6, pc, #228, 30	@ 0x390
 8001354:	637ff08f 	cmnpvs	pc, #143	@ p-variant is OBSOLETE	@ 0x8f
 8001358:	f03e3c06 			@ <UNDEFINED> instruction: 0xf03e3c06
 800135c:	22454b42 	subcs	r4, r5, #67584	@ 0x10800
 8001360:	f31df029 	vhadd.u16	d15, d13, d25
 8001364:	552bdc30 	strpl	sp, [fp, #-3120]!	@ 0xfffff3d0
 8001368:	1ff05a00 	svcne	0x00f05a00
 800136c:	27f1deee 	ldrbcs	sp, [r1, lr, ror #29]!
 8001370:	ed7f01b0 	ldcl	1, cr0, [pc, #-704]!	@ 80010b8 <health_gfx+0x974>
 8001374:	d43ccf24 	ldrtle	ip, [ip], #-3876	@ 0xfffff0dc
 8001378:	3e81abf3 			@ <UNDEFINED> instruction: 0x3e81abf3
 800137c:	3d303af0 	vldmdbcc	r0!, {s6-s245}
 8001380:	f0ff0320 			@ <UNDEFINED> instruction: 0xf0ff0320
 8001384:	fb90e45f 			@ <UNDEFINED> instruction: 0xfb90e45f
 8001388:	f35de0af 	vhadd.u16	d30, d29, d31
 800138c:	255e6d77 	ldrbcs	r6, [lr, #-3447]	@ 0xfffff289
 8001390:	fb1ff08e 			@ <UNDEFINED> instruction: 0xfb1ff08e
 8001394:	98117e20 	ldmdals	r1, {r5, r9, sl, fp, ip, sp, lr}
 8001398:	1ef06723 	cdpne	7, 15, cr6, cr0, cr3, {1}
 800139c:	14defe10 	ldrbne	pc, [lr], #3600	@ 0xe10	@ <UNPREDICTABLE>
 80013a0:	ffc11102 			@ <UNDEFINED> instruction: 0xffc11102
 80013a4:	a9c5d7f3 	stmibge	r5, {r0, r1, r4, r5, r6, r7, r8, r9, sl, ip, lr, pc}^
 80013a8:	0ea5fff0 	mcreq	15, 5, pc, cr5, cr0, {7}	@ <UNPREDICTABLE>
 80013ac:	1ff0e24c 	svcne	0x00f0e24c
 80013b0:	01f0969d 			@ <UNDEFINED> instruction: 0x01f0969d
 80013b4:	f0df50ff 			@ <UNDEFINED> instruction: 0xf0df50ff
 80013b8:	109d20bf 	ldrhne	r2, [sp], pc	@ <UNPREDICTABLE>
 80013bc:	f01730f6 			@ <UNDEFINED> instruction: 0xf01730f6
 80013c0:	308f747e 	addcc	r7, pc, lr, ror r4	@ <UNPREDICTABLE>
 80013c4:	1bf0ffbf 	blne	7c412c8 <IntrTable+0x4c3ddd8>
 80013c8:	5c11bf4e 	ldcpl	15, cr11, [r1], {78}	@ 0x4e
 80013cc:	5fc11ff2 	svcpl	0x00c11ff2
 80013d0:	01f01ef0 	ldrsheq	r1, [r0, #224]!	@ 0xe0
 80013d4:	f0ff01f0 			@ <UNDEFINED> instruction: 0xf0ff01f0
 80013d8:	f0fff301 			@ <UNDEFINED> instruction: 0xf0fff301
 80013dc:	f001f001 			@ <UNDEFINED> instruction: 0xf001f001
 80013e0:	f0fff301 			@ <UNDEFINED> instruction: 0xf0fff301
 80013e4:	ff01f001 			@ <UNDEFINED> instruction: 0xff01f001
 80013e8:	01f001f0 	ldrsheq	r0, [r0, #16]!
 80013ec:	01f001f0 	ldrsheq	r0, [r0, #16]!
 80013f0:	01f001f0 	ldrsheq	r0, [r0, #16]!
 80013f4:	01f001f0 	ldrsheq	r0, [r0, #16]!
 80013f8:	00cca1f9 			@ <UNDEFINED> instruction: 0x00cca1f9
 80013fc:	b3035004 	tstlt	r3, #4
 8001400:	de11001b 	mrcle	0, 0, r0, cr1, cr11, {0}
 8001404:	0f0180de 	svceq	0x000180de
 8001408:	ededeeed 	stcl	14, cr14, [sp, #948]!	@ 0x3b4
 800140c:	3d700310 	ldclcc	3, cr0, [r0, #-64]!	@ 0xffffffc0
 8001410:	03602020 	cmneq	r0, #32
 8001414:	701a20e6 	andsvc	r2, sl, r6, ror #1
 8001418:	dd20001e 	stcle	0, cr0, [r0, #-120]!	@ 0xffffff88
 800141c:	702430ed 	eorvc	r3, r4, sp, ror #1
 8001420:	10cfed01 	sbcne	lr, pc, r1, lsl #26
 8001424:	dd5f6005 	ldclle	0, cr6, [pc, #-20]	@ 8001418 <health_gfx+0xcd4>
 8001428:	603e80ed 	eorsvs	r8, lr, sp, ror #1
 800142c:	10a55303 	adcne	r5, r5, r3, lsl #6
 8001430:	0700de1e 			@ <UNDEFINED> instruction: 0x0700de1e
 8001434:	40dd0110 	sbcsmi	r0, sp, r0, lsl r1
 8001438:	004f0007 	subeq	r0, pc, r7
 800143c:	dd3f4013 	ldcle	0, cr4, [pc, #-76]!	@ 80013f8 <health_gfx+0xcb4>
 8001440:	00ddee3f 	sbcseq	lr, sp, pc, lsr lr
 8001444:	201c0017 	andscs	r0, ip, r7, lsl r0
 8001448:	30033073 	andcc	r3, r3, r3, ror r0
 800144c:	ff41400b 			@ <UNDEFINED> instruction: 0xff41400b
 8001450:	b0204000 	eorlt	r4, r0, r0
 8001454:	93100390 	tstls	r0, #144, 6	@ 0x40000002
 8001458:	24109e60 	ldrcs	r9, [r0], #-3680	@ 0xfffff1a0
 800145c:	130001b0 	tstne	r0, #176, 2	@ 0x2c
 8001460:	107e74ff 	ldrshne	r7, [lr], #-79	@ 0xffffffb1	@ <UNPREDICTABLE>
 8001464:	305a702b 	subscc	r7, sl, fp, lsr #32
 8001468:	f03ff003 			@ <UNDEFINED> instruction: 0xf03ff003
 800146c:	10e7733f 	rscne	r7, r7, pc, lsr r3
 8001470:	1441fb21 	strbne	pc, [r1], #-2849	@ 0xfffff4df	@ <UNPREDICTABLE>
 8001474:	0f300320 	svceq	0x00300320
 8001478:	3ee0cd10 	mcrcc	13, 7, ip, cr0, cr0, {0}
 800147c:	431600de 	tstmi	r6, #222	@ 0xde
 8001480:	e060fe5c 	rsb	pc, r0, ip, asr lr	@ <UNPREDICTABLE>
 8001484:	c7402100 	strbgt	r2, [r0, -r0, lsl #2]
 8001488:	7f606080 	svcvc	0x00606080
 800148c:	18801e00 	stmne	r0, {r9, sl, fp, ip}
 8001490:	9f51ffed 	svcls	0x0051ffed
 8001494:	1f203420 	svcne	0x00203420
 8001498:	4031ec00 	eorsmi	lr, r1, r0, lsl #24
 800149c:	1f514810 	svcne	0x00514810
 80014a0:	70ff7610 	rscsvc	r7, pc, r0, lsl r6	@ <UNPREDICTABLE>
 80014a4:	50175140 	andspl	r5, r7, r0, asr #2
 80014a8:	520b2001 	andpl	r2, fp, #1
 80014ac:	50f7801a 	rscspl	r8, r7, sl, lsl r0
 80014b0:	ff9bc599 			@ <UNDEFINED> instruction: 0xff9bc599
 80014b4:	01f001f0 	ldrsheq	r0, [r0, #16]!
 80014b8:	01f001f0 	ldrsheq	r0, [r0, #16]!
 80014bc:	01f001f0 	ldrsheq	r0, [r0, #16]!
 80014c0:	01f001f0 	ldrsheq	r0, [r0, #16]!
 80014c4:	f001f0fc 			@ <UNDEFINED> instruction: 0xf001f0fc
 80014c8:	f0fff301 			@ <UNDEFINED> instruction: 0xf0fff301
 80014cc:	c001f001 	andgt	pc, r1, r1
 80014d0:	00000001 	andeq	r0, r0, r1
 80014d4:	00006f7b 	andeq	r6, r0, fp, ror pc
	...
 80014ec:	71cb035f 	bicvc	r0, fp, pc, asr r3
 80014f0:	52947fff 	addspl	r7, r4, #1020	@ 0x3fc
 80014f4:	00080010 	andeq	r0, r8, r0, lsl r0
 80014f8:	01000100 	mrseq	r0, (UNDEF: 16)
 80014fc:	03000200 	tsteq	r0, #0, 4
 8001500:	00040000 	andeq	r0, r4, r0
 8001504:	00060005 	andeq	r0, r6, r5
 8001508:	08000007 	stmdaeq	r0, {r0, r1, r2}
 800150c:	0a000900 	beq	8003914 <IntrRet+0x122c>
 8001510:	00000b00 	andeq	r0, r0, r0, lsl #22
 8001514:	000d000c 	andeq	r0, sp, ip
 8001518:	000f000e 	andeq	r0, pc, lr
 800151c:	11001000 	mrsne	r1, (UNDEF: 0)
 8001520:	13001200 	tstne	r0, #0, 4
 8001524:	00140000 	andseq	r0, r4, r0
 8001528:	00160015 	andseq	r0, r6, r5, lsl r0
 800152c:	18000017 	stmdane	r0, {r0, r1, r2, r4}
 8001530:	1a001900 	bne	8007938 <IntrRet+0x5250>
 8001534:	04001b00 	streq	r1, [r0], #-2816	@ 0xfffff500
 8001538:	001d001c 	andseq	r0, sp, ip, lsl r0
 800153c:	20010000 	andcs	r0, r1, r0
 8001540:	00210000 	eoreq	r0, r1, r0
 8001544:	00230022 	eoreq	r0, r3, r2, lsr #32
 8001548:	25000024 	strcs	r0, [r0, #-36]	@ 0xffffffdc
 800154c:	27002600 	strcs	r2, [r0, -r0, lsl #12]
 8001550:	00002800 	andeq	r2, r0, r0, lsl #16
 8001554:	002a0029 	eoreq	r0, sl, r9, lsr #32
 8001558:	002c002b 	eoreq	r0, ip, fp, lsr #32
 800155c:	2e002d00 	cdpcs	13, 0, cr2, cr0, cr0, {0}
 8001560:	30002f00 	andcc	r2, r0, r0, lsl #30
 8001564:	00310000 	eorseq	r0, r1, r0
 8001568:	00330032 	eorseq	r0, r3, r2, lsr r0
 800156c:	35000034 	strcc	r0, [r0, #-52]	@ 0xffffffcc
 8001570:	37003600 	strcc	r3, [r0, -r0, lsl #12]
 8001574:	00003800 	andeq	r3, r0, r0, lsl #16
 8001578:	003a0039 	eorseq	r0, sl, r9, lsr r0
 800157c:	003c003b 	eorseq	r0, ip, fp, lsr r0
 8001580:	3f203d40 	svccc	0x00203d40
 8001584:	00410040 	subeq	r0, r1, r0, asr #32
 8001588:	43000042 	tstmi	r0, #66	@ 0x42
 800158c:	45004400 	strmi	r4, [r0, #-1024]	@ 0xfffffc00
 8001590:	00004600 	andeq	r4, r0, r0, lsl #12
 8001594:	00480047 	subeq	r0, r8, r7, asr #32
 8001598:	004a0049 	subeq	r0, sl, r9, asr #32
 800159c:	4c004b00 			@ <UNDEFINED> instruction: 0x4c004b00
 80015a0:	4e004d00 	cdpmi	13, 0, cr4, cr0, cr0, {0}
 80015a4:	004f0000 	subeq	r0, pc, r0
 80015a8:	00510050 	subseq	r0, r1, r0, asr r0
 80015ac:	53000052 	tstpl	r0, #82	@ 0x52
 80015b0:	55005400 	strpl	r5, [r0, #-1024]	@ 0xfffffc00
 80015b4:	00005600 	andeq	r5, r0, r0, lsl #12
 80015b8:	00580057 	subseq	r0, r8, r7, asr r0
 80015bc:	005a0059 	subseq	r0, sl, r9, asr r0
 80015c0:	5c005b04 			@ <UNDEFINED> instruction: 0x5c005b04
 80015c4:	3f205d00 	svccc	0x00205d00
 80015c8:	61000060 	tstvs	r0, r0, rrx
 80015cc:	63006200 	tstvs	r0, #0, 4
 80015d0:	00006400 	andeq	r6, r0, r0, lsl #8
 80015d4:	00660065 	rsbeq	r0, r6, r5, rrx
 80015d8:	00680067 	rsbeq	r0, r8, r7, rrx
 80015dc:	6a006900 	bvs	801b9e4 <IntrRet+0x192fc>
 80015e0:	6c006b00 			@ <UNDEFINED> instruction: 0x6c006b00
 80015e4:	006d0000 	rsbeq	r0, sp, r0
 80015e8:	006f006e 	rsbeq	r0, pc, lr, rrx
 80015ec:	71000070 	tstvc	r0, r0, ror r0
 80015f0:	73007200 	tstvc	r0, #0, 4
 80015f4:	00007400 	andeq	r7, r0, r0, lsl #8
 80015f8:	00760075 	rsbseq	r0, r6, r5, ror r0
 80015fc:	00780077 	rsbseq	r0, r8, r7, ror r0
 8001600:	7a007900 	bvc	801fa08 <IntrRet+0x1d320>
 8001604:	7c007b00 			@ <UNDEFINED> instruction: 0x7c007b00
 8001608:	207d4000 	rsbscs	r4, sp, r0
 800160c:	8100803f 	tsthi	r0, pc, lsr r0
 8001610:	00008200 	andeq	r8, r0, r0, lsl #4
 8001614:	00840083 	addeq	r0, r4, r3, lsl #1
 8001618:	00860085 	addeq	r0, r6, r5, lsl #1
 800161c:	88008700 	stmdahi	r0, {r8, r9, sl, pc}
 8001620:	8a008900 	bhi	8023a28 <IntrRet+0x21340>
 8001624:	008b0000 	addeq	r0, fp, r0
 8001628:	008d008c 	addeq	r0, sp, ip, lsl #1
 800162c:	8f00008e 	svchi	0x0000008e
 8001630:	91009000 	mrsls	r9, (UNDEF: 0)
 8001634:	00009200 	andeq	r9, r0, r0, lsl #4
 8001638:	00940093 	umullseq	r0, r4, r3, r0
 800163c:	00960095 	umullseq	r0, r6, r5, r0
 8001640:	98009700 	stmdals	r0, {r8, r9, sl, ip, pc}
 8001644:	9a009900 	bls	8027a4c <IntrRet+0x25364>
 8001648:	009b0400 	addseq	r0, fp, r0, lsl #8
 800164c:	209d009c 	umullscs	r0, sp, ip, r0
 8001650:	0000a03f 	andeq	sl, r0, pc, lsr r0
 8001654:	00a200a1 	adceq	r0, r2, r1, lsr #1
 8001658:	00a400a3 	adceq	r0, r4, r3, lsr #1
 800165c:	a600a500 	strge	sl, [r0], -r0, lsl #10
 8001660:	a800a700 	stmdage	r0, {r8, r9, sl, sp, pc}
 8001664:	00a90000 	adceq	r0, r9, r0
 8001668:	00ab00aa 	adceq	r0, fp, sl, lsr #1
 800166c:	ad0000ac 	stcge	0, cr0, [r0, #-688]	@ 0xfffffd50
 8001670:	af00ae00 	svcge	0x0000ae00
 8001674:	0000b000 	andeq	fp, r0, r0
 8001678:	00b200b1 	ldrheq	r0, [r2], r1	@ <UNPREDICTABLE>
 800167c:	00b400b3 	ldrheq	r0, [r4], r3	@ <UNPREDICTABLE>
 8001680:	b600b500 	strlt	fp, [r0], -r0, lsl #10
 8001684:	b800b700 	stmdalt	r0, {r8, r9, sl, ip, sp, pc}
 8001688:	00b90000 	adcseq	r0, r9, r0
 800168c:	00bb00ba 	ldrheq	r0, [fp], sl	@ <UNPREDICTABLE>
 8001690:	bd4000bc 	stcllt	0, cr0, [r0, #-752]	@ 0xfffffd10
 8001694:	00c03f20 	sbceq	r3, r0, r0, lsr #30
 8001698:	00c200c1 	sbceq	r0, r2, r1, asr #1
 800169c:	c400c300 	strgt	ip, [r0], #-768	@ 0xfffffd00
 80016a0:	c600c500 	strgt	ip, [r0], -r0, lsl #10
 80016a4:	00c70000 	sbceq	r0, r7, r0
 80016a8:	00c900c8 	sbceq	r0, r9, r8, asr #1
 80016ac:	cb0000ca 	blgt	80019dc <health_gfx+0x1298>
 80016b0:	cd00cc00 	stcgt	12, cr12, [r0, #-0]
 80016b4:	0000ce00 	andeq	ip, r0, r0, lsl #28
 80016b8:	00d000cf 	sbcseq	r0, r0, pc, asr #1
 80016bc:	00d200d1 	ldrsbeq	r0, [r2], #1
 80016c0:	d400d300 	strle	sp, [r0], #-768	@ 0xfffffd00
 80016c4:	d600d500 	strle	sp, [r0], -r0, lsl #10
 80016c8:	00d70000 	sbcseq	r0, r7, r0
 80016cc:	00d900d8 	ldrsbeq	r0, [r9], #8
 80016d0:	db0400da 	blle	8101a40 <IntrRet+0xff358>
 80016d4:	dd00dc00 	stcle	12, cr13, [r0, #-0]
 80016d8:	00e03f20 	rsceq	r3, r0, r0, lsr #30
 80016dc:	e200e100 	and	lr, r0, #0, 2
 80016e0:	e400e300 	str	lr, [r0], #-768	@ 0xfffffd00
 80016e4:	00e50000 	rsceq	r0, r5, r0
 80016e8:	00e700e6 	rsceq	r0, r7, r6, ror #1
 80016ec:	e90000e8 	stmdb	r0, {r3, r5, r6, r7}
 80016f0:	eb00ea00 	bl	803bef8 <IntrRet+0x39810>
 80016f4:	0000ec00 	andeq	lr, r0, r0, lsl #24
 80016f8:	00ee00ed 	rsceq	r0, lr, sp, ror #1
 80016fc:	00f000ef 	rscseq	r0, r0, pc, ror #1
 8001700:	f200f100 	vrhadd.s8	d15, d0, d0
 8001704:	f400f300 	vst2.8	{d15-d18}, [r0], r0
 8001708:	00f50000 	rscseq	r0, r5, r0
 800170c:	00f700f6 	ldrsheq	r0, [r7], #6	@ <UNPREDICTABLE>
 8001710:	f90000f8 			@ <UNDEFINED> instruction: 0xf90000f8
 8001714:	fb00fa00 			@ <UNDEFINED> instruction: 0xfb00fa00
 8001718:	4000fc00 	andmi	pc, r0, r0, lsl #24
 800171c:	003f20fd 	ldrsheq	r2, [pc], -sp	@ <UNPREDICTABLE>
 8001720:	02010101 	andeq	r0, r1, #1073741824	@ 0x40000000
 8001724:	01030001 	tsteq	r3, r1
 8001728:	01050104 	tsteq	r5, r4, lsl #2
 800172c:	07000106 	streq	r0, [r0, -r6, lsl #2]
 8001730:	09010801 	stmdbeq	r1, {r0, fp}
 8001734:	00010a01 	andeq	r0, r1, r1, lsl #20
 8001738:	010c010b 	tsteq	ip, fp, lsl #2
 800173c:	010e010d 	tsteq	lr, sp, lsl #2
 8001740:	10010f00 	andne	r0, r1, r0, lsl #30
 8001744:	12011101 	andne	r1, r1, #1073741824	@ 0x40000000
 8001748:	01130001 	tsteq	r3, r1
 800174c:	01150114 	tsteq	r5, r4, lsl r1
 8001750:	17000116 			@ <UNDEFINED> instruction: 0x17000116
 8001754:	19011801 	stmdbne	r1, {r0, fp, ip}
 8001758:	02011a01 	andeq	r1, r1, #4096	@ 0x1000
 800175c:	011c011b 	tsteq	ip, fp, lsl r1
 8001760:	ff21011d 			@ <UNDEFINED> instruction: 0xff21011d
 8001764:	01210001 			@ <UNDEFINED> instruction: 0x01210001
 8001768:	01230122 			@ <UNDEFINED> instruction: 0x01230122
 800176c:	25000124 	strcs	r0, [r0, #-292]	@ 0xfffffedc
 8001770:	27012601 	strcs	r2, [r1, -r1, lsl #12]
 8001774:	00012801 	andeq	r2, r1, r1, lsl #16
 8001778:	012a0129 			@ <UNDEFINED> instruction: 0x012a0129
 800177c:	012c012b 			@ <UNDEFINED> instruction: 0x012c012b
 8001780:	2e012d00 	cdpcs	13, 0, cr2, cr1, cr0, {0}
 8001784:	30012f01 	andcc	r2, r1, r1, lsl #30
 8001788:	01310001 	teqeq	r1, r1
 800178c:	01330132 	teqeq	r3, r2, lsr r1
 8001790:	35000134 	strcc	r0, [r0, #-308]	@ 0xfffffecc
 8001794:	37013601 	strcc	r3, [r1, -r1, lsl #12]
 8001798:	00013801 	andeq	r3, r1, r1, lsl #16
 800179c:	013a0139 	teqeq	sl, r9, lsr r1
 80017a0:	013c013b 	teqeq	ip, fp, lsr r1
 80017a4:	3f203d40 	svccc	0x00203d40
 80017a8:	01410140 	cmpeq	r1, r0, asr #2
 80017ac:	43000142 	tstmi	r0, #-2147483632	@ 0x80000010
 80017b0:	45014401 	strmi	r4, [r1, #-1025]	@ 0xfffffbff
 80017b4:	00014601 	andeq	r4, r1, r1, lsl #12
 80017b8:	01480147 	cmpeq	r8, r7, asr #2
 80017bc:	014a0149 	cmpeq	sl, r9, asr #2
 80017c0:	4c014b00 			@ <UNDEFINED> instruction: 0x4c014b00
 80017c4:	4e014d01 	cdpmi	13, 0, cr4, cr1, cr1, {0}
 80017c8:	014f0001 	cmpeq	pc, r1
 80017cc:	01510150 	cmpeq	r1, r0, asr r1
 80017d0:	53000152 	tstpl	r0, #-2147483628	@ 0x80000014
 80017d4:	55015401 	strpl	r5, [r1, #-1025]	@ 0xfffffbff
 80017d8:	00015601 	andeq	r5, r1, r1, lsl #12
 80017dc:	01580157 	cmpeq	r8, r7, asr r1
 80017e0:	015a0159 	cmpeq	sl, r9, asr r1
 80017e4:	5c015b04 			@ <UNDEFINED> instruction: 0x5c015b04
 80017e8:	3f205d01 	svccc	0x00205d01
 80017ec:	61000160 	tstvs	r0, r0, ror #2
 80017f0:	63016201 	tstvs	r1, #268435456	@ 0x10000000
 80017f4:	00016401 	andeq	r6, r1, r1, lsl #8
 80017f8:	01660165 	cmneq	r6, r5, ror #2
 80017fc:	01680167 	cmneq	r8, r7, ror #2
 8001800:	6a016900 	bvs	805bc08 <IntrRet+0x59520>
 8001804:	6c016b01 			@ <UNDEFINED> instruction: 0x6c016b01
 8001808:	016d0001 	cmneq	sp, r1
 800180c:	016f016e 	cmneq	pc, lr, ror #2
 8001810:	71000170 	tstvc	r0, r0, ror r1
 8001814:	73017201 	tstvc	r1, #268435456	@ 0x10000000
 8001818:	00017401 	andeq	r7, r1, r1, lsl #8
 800181c:	01760175 	cmneq	r6, r5, ror r1
 8001820:	01780177 	cmneq	r8, r7, ror r1
 8001824:	7a017900 	bvc	805fc2c <IntrRet+0x5d544>
 8001828:	7c017b01 			@ <UNDEFINED> instruction: 0x7c017b01
 800182c:	207d4001 	rsbscs	r4, sp, r1
 8001830:	8101803f 	tsthi	r1, pc, lsr r0
 8001834:	00018201 	andeq	r8, r1, r1, lsl #4
 8001838:	01840183 	orreq	r0, r4, r3, lsl #3
 800183c:	01860185 	orreq	r0, r6, r5, lsl #3
 8001840:	88018700 	stmdahi	r1, {r8, r9, sl, pc}
 8001844:	8a018901 	bhi	8063c50 <IntrRet+0x61568>
 8001848:	018b0001 	orreq	r0, fp, r1
 800184c:	018d018c 	orreq	r0, sp, ip, lsl #3
 8001850:	8f00018e 	svchi	0x0000018e
 8001854:	91019001 	tstls	r1, r1
 8001858:	00019201 	andeq	r9, r1, r1, lsl #4
 800185c:	01940193 			@ <UNDEFINED> instruction: 0x01940193
 8001860:	01960195 			@ <UNDEFINED> instruction: 0x01960195
 8001864:	98019700 	stmdals	r1, {r8, r9, sl, ip, pc}
 8001868:	9a019901 	bls	8067c74 <IntrRet+0x6558c>
 800186c:	019b0401 	orrseq	r0, fp, r1, lsl #8
 8001870:	209d019c 	umullscs	r0, sp, ip, r1
 8001874:	0001a03f 	andeq	sl, r1, pc, lsr r0
 8001878:	01a201a1 			@ <UNDEFINED> instruction: 0x01a201a1
 800187c:	01a401a3 			@ <UNDEFINED> instruction: 0x01a401a3
 8001880:	a601a500 	strge	sl, [r1], -r0, lsl #10
 8001884:	a801a701 	stmdage	r1, {r0, r8, r9, sl, sp, pc}
 8001888:	01a90001 			@ <UNDEFINED> instruction: 0x01a90001
 800188c:	01ab01aa 			@ <UNDEFINED> instruction: 0x01ab01aa
 8001890:	ad0001ac 	stcge	1, cr0, [r0, #-688]	@ 0xfffffd50
 8001894:	af01ae01 	svcge	0x0001ae01
 8001898:	0001b001 	andeq	fp, r1, r1
 800189c:	01b201b1 			@ <UNDEFINED> instruction: 0x01b201b1
 80018a0:	01b401b3 			@ <UNDEFINED> instruction: 0x01b401b3
 80018a4:	b601b500 	strlt	fp, [r1], -r0, lsl #10
 80018a8:	b801b701 	stmdalt	r1, {r0, r8, r9, sl, ip, sp, pc}
 80018ac:	01b90001 			@ <UNDEFINED> instruction: 0x01b90001
 80018b0:	01bb01ba 			@ <UNDEFINED> instruction: 0x01bb01ba
 80018b4:	bd4001bc 	stcllt	1, cr0, [r0, #-752]	@ 0xfffffd10
 80018b8:	01c03f20 	biceq	r3, r0, r0, lsr #30
 80018bc:	01c201c1 	biceq	r0, r2, r1, asr #3
 80018c0:	c401c300 	strgt	ip, [r1], #-768	@ 0xfffffd00
 80018c4:	c601c501 	strgt	ip, [r1], -r1, lsl #10
 80018c8:	01c70001 	biceq	r0, r7, r1
 80018cc:	01c901c8 	biceq	r0, r9, r8, asr #3
 80018d0:	cb0001ca 	blgt	8002000 <irqSet+0x5c>
 80018d4:	cd01cc01 	stcgt	12, cr12, [r1, #-4]
 80018d8:	0001ce01 	andeq	ip, r1, r1, lsl #28
 80018dc:	01d001cf 	bicseq	r0, r0, pc, asr #3
 80018e0:	01d201d1 	ldrsbeq	r0, [r2, #17]
 80018e4:	d401d300 	strle	sp, [r1], #-768	@ 0xfffffd00
 80018e8:	d601d501 	strle	sp, [r1], -r1, lsl #10
 80018ec:	01d70001 	bicseq	r0, r7, r1
 80018f0:	01d901d8 	ldrsbeq	r0, [r9, #24]
 80018f4:	db0401da 	blle	8102064 <IntrRet+0xff97c>
 80018f8:	dd01dc01 	stcle	12, cr13, [r1, #-4]
 80018fc:	01e03f20 	mvneq	r3, r0, lsr #30
 8001900:	e201e100 	and	lr, r1, #0, 2
 8001904:	e401e301 	str	lr, [r1], #-769	@ 0xfffffcff
 8001908:	01e50001 	mvneq	r0, r1
 800190c:	01e701e6 	mvneq	r0, r6, ror #3
 8001910:	e90001e8 	stmdb	r0, {r3, r5, r6, r7, r8}
 8001914:	eb01ea01 	bl	807c120 <IntrRet+0x79a38>
 8001918:	0001ec01 	andeq	lr, r1, r1, lsl #24
 800191c:	01ee01ed 	mvneq	r0, sp, ror #3
 8001920:	01f001ef 	mvnseq	r0, pc, ror #3
 8001924:	f201f100 	vrhadd.s8	d15, d1, d0
 8001928:	f401f301 	vst2.8	{d15-d18}, [r1], r1
 800192c:	01f50001 	mvnseq	r0, r1
 8001930:	01f701f6 	ldrsheq	r0, [r7, #22]!
 8001934:	f90001f8 			@ <UNDEFINED> instruction: 0xf90001f8
 8001938:	fb01fa01 			@ <UNDEFINED> instruction: 0xfb01fa01
 800193c:	4001fc01 	andmi	pc, r1, r1, lsl #24
 8001940:	003f20fd 	ldrsheq	r2, [pc], -sp	@ <UNPREDICTABLE>
 8001944:	02020102 	andeq	r0, r2, #-2147483648	@ 0x80000000
 8001948:	02030002 	andeq	r0, r3, #2
 800194c:	02050204 	andeq	r0, r5, #4, 4	@ 0x40000000
 8001950:	07000206 	streq	r0, [r0, -r6, lsl #4]
 8001954:	09020802 	stmdbeq	r2, {r1, fp}
 8001958:	00020a02 	andeq	r0, r2, r2, lsl #20
 800195c:	020c020b 	andeq	r0, ip, #-1342177280	@ 0xb0000000
 8001960:	020e020d 	andeq	r0, lr, #-805306368	@ 0xd0000000
 8001964:	10020f00 	andne	r0, r2, r0, lsl #30
 8001968:	12021102 	andne	r1, r2, #-2147483648	@ 0x80000000
 800196c:	02130002 	andseq	r0, r3, #2
 8001970:	02150214 	andseq	r0, r5, #20, 4	@ 0x40000001
 8001974:	17000216 			@ <UNDEFINED> instruction: 0x17000216
 8001978:	19021802 	stmdbne	r2, {r1, fp, ip}
 800197c:	03021a02 	tsteq	r2, #8192	@ 0x2000
 8001980:	021c021b 	andseq	r0, ip, #-1342177279	@ 0xb0000001
 8001984:	3e22021d 	mcrcc	2, 1, r0, cr2, cr13, {0}
 8001988:	f0ff01f0 			@ <UNDEFINED> instruction: 0xf0ff01f0
 800198c:	2001f001 	andcs	pc, r1, r1
 8001990:	f03ff001 			@ <UNDEFINED> instruction: 0xf03ff001
 8001994:	f001f001 			@ <UNDEFINED> instruction: 0xf001f001
 8001998:	ff01f03f 			@ <UNDEFINED> instruction: 0xff01f03f
 800199c:	01f001f0 	ldrsheq	r0, [r0, #16]!
 80019a0:	01f03f30 	mvnseq	r3, r0, lsr pc
 80019a4:	01f001f0 	ldrsheq	r0, [r0, #16]!
 80019a8:	01f001f0 	ldrsheq	r0, [r0, #16]!
 80019ac:	f001f0ff 			@ <UNDEFINED> instruction: 0xf001f0ff
 80019b0:	f001f001 			@ <UNDEFINED> instruction: 0xf001f001
 80019b4:	f001f001 			@ <UNDEFINED> instruction: 0xf001f001
 80019b8:	f001f001 			@ <UNDEFINED> instruction: 0xf001f001
 80019bc:	01f0ff01 	mvnseq	pc, r1, lsl #30
 80019c0:	01f001f0 	ldrsheq	r0, [r0, #16]!
 80019c4:	01f001f0 	ldrsheq	r0, [r0, #16]!
 80019c8:	01f001f0 	ldrsheq	r0, [r0, #16]!
 80019cc:	f0ff01f0 			@ <UNDEFINED> instruction: 0xf0ff01f0
 80019d0:	f001f001 			@ <UNDEFINED> instruction: 0xf001f001
 80019d4:	f001f001 			@ <UNDEFINED> instruction: 0xf001f001
 80019d8:	f001f001 			@ <UNDEFINED> instruction: 0xf001f001
 80019dc:	ff01f001 			@ <UNDEFINED> instruction: 0xff01f001
 80019e0:	01f001f0 	ldrsheq	r0, [r0, #16]!
 80019e4:	01f001f0 	ldrsheq	r0, [r0, #16]!
 80019e8:	01f001f0 	ldrsheq	r0, [r0, #16]!
 80019ec:	01f001f0 	ldrsheq	r0, [r0, #16]!
 80019f0:	f001f0fc 			@ <UNDEFINED> instruction: 0xf001f0fc
 80019f4:	f001f001 			@ <UNDEFINED> instruction: 0xf001f001
 80019f8:	9001f001 	andls	pc, r1, r1
 80019fc:	00000001 	andeq	r0, r0, r1
 8001a00:	00080010 	andeq	r0, r8, r0, lsl r0
 8001a04:	2000002c 	andcs	r0, r0, ip, lsr #32
 8001a08:	03f01101 	mvnseq	r1, #1073741824	@ 0x40000000
 8001a0c:	11000360 	tstne	r0, r0, ror #6
 8001a10:	11050080 	tstne	r5, r0, lsl #1
 8001a14:	00000111 	andeq	r0, r0, r1, lsl r1
 8001a18:	117c0110 	cmnne	ip, r0, lsl r1
 8001a1c:	0f000350 	svceq	0x00000350
 8001a20:	1f300300 	svcne	0x00300300
 8001a24:	01100150 	tsteq	r0, r0, asr r1
 8001a28:	1660105f 			@ <UNDEFINED> instruction: 0x1660105f
 8001a2c:	a03e3001 	eorsge	r3, lr, r1
 8001a30:	2038001f 	eorscs	r0, r8, pc, lsl r0
 8001a34:	ff46501f 			@ <UNDEFINED> instruction: 0xff46501f
 8001a38:	6ff00b10 	svcvs	0x00f00b10
 8001a3c:	1bf053b0 	blne	7c16904 <IntrTable+0x4c13414>
 8001a40:	9d201fd0 	stcls	15, cr1, [r0, #-832]!	@ 0xfffffcc0
 8001a44:	04001a50 	streq	r1, [r0], #-2640	@ 0xfffff5b0
 8001a48:	73e0107f 	mvnvc	r1, #127	@ 0x7f
 8001a4c:	b6400b60 	strblt	r0, [r0], -r0, ror #22
 8001a50:	2b705fc0 	blcs	9c19958 <IntrRet+0x1c17270>
 8001a54:	4f50bf40 	svcmi	0x0050bf40
 8001a58:	b00100ff 			@ <UNDEFINED> instruction: 0xb00100ff
 8001a5c:	1002014b 	andne	r0, r2, fp, asr #2
 8001a60:	b0989003 	addslt	r9, r8, r3
 8001a64:	31311089 	teqcc	r1, r9, lsl #1
 8001a68:	0d51f728 	ldcleq	7, cr15, [r1, #-160]	@ 0xffffff60
 8001a6c:	8a001fa0 	bhi	80098f4 <IntrRet+0x720c>
 8001a70:	81018120 	tsthi	r1, r0, lsr #2
 8001a74:	30250048 	eorcc	r0, r5, r8, asr #32
 8001a78:	9f40ff2d 	svcls	0x0040ff2d
 8001a7c:	4d4073f0 	stclmi	3, cr7, [r0, #-960]	@ 0xfffffc40
 8001a80:	73f07f40 	mvnsvc	r7, #64, 30	@ 0x100
 8001a84:	73e094a1 	mvnvc	r9, #-1593835520	@ 0xa1000000
 8001a88:	40fbb491 	smlalsmi	fp, fp, r1, r4	@ <UNPREDICTABLE>
 8001a8c:	f0f9f003 			@ <UNDEFINED> instruction: 0xf0f9f003
 8001a90:	612bb02b 			@ <UNDEFINED> instruction: 0x612bb02b
 8001a94:	6f41105f 	svcvs	0x0041105f
 8001a98:	b0ff8940 	rscslt	r8, pc, r0, asr #18
 8001a9c:	c031218d 	eorsgt	r2, r1, sp, lsl #3
 8001aa0:	21195241 	tstcs	r9, r1, asr #4
 8001aa4:	00fb310f 	rscseq	r3, fp, pc, lsl #2
 8001aa8:	ff017003 			@ <UNDEFINED> instruction: 0xff017003
 8001aac:	2730b7b0 			@ <UNDEFINED> instruction: 0x2730b7b0
 8001ab0:	fef15c52 			@ <UNDEFINED> instruction: 0xfef15c52
 8001ab4:	6b90dff1 	blvs	6439a80 <IntrTable+0x3436590>
 8001ab8:	1fd03530 	svcne	0x00d03530
 8001abc:	306740fd 			@ <UNDEFINED> instruction: 0x306740fd
 8001ac0:	f16b1103 			@ <UNDEFINED> instruction: 0xf16b1103
 8001ac4:	006041ff 			@ <UNDEFINED> instruction: 0x006041ff
 8001ac8:	0310013e 	tsteq	r0, #-2147483633	@ 0x8000000f
 8001acc:	c17061ff 	ldrshgt	r6, [r0, #-31]!	@ 0xffffffe1
 8001ad0:	b1a3002a 			@ <UNDEFINED> instruction: 0xb1a3002a
 8001ad4:	f120c06f 			@ <UNDEFINED> instruction: 0xf120c06f
 8001ad8:	611f50df 	ldrsbvs	r5, [pc, -pc]
 8001adc:	4923fbc1 	stmdbmi	r3!, {r0, r6, r7, r8, r9, fp, ip, sp, lr, pc}
 8001ae0:	03000f70 	tsteq	r0, #112, 30	@ 0x1c0
 8001ae4:	9e000a80 	vmlals.f32	s0, s1, s0
 8001ae8:	f19e0001 			@ <UNDEFINED> instruction: 0xf19e0001
 8001aec:	dfb1ffbf 	svcle	0x00b1ffbf
 8001af0:	b3f1b3f1 	mvnslt	fp, #-1006632957	@ 0xc4000003
 8001af4:	0330dcf0 	teqeq	r0, #240, 24	@ 0xf000
 8001af8:	0180b4f1 			@ <UNDEFINED> instruction: 0x0180b4f1
 8001afc:	107fbe83 	rsbsne	fp, pc, r3, lsl #29
 8001b00:	4cf00360 	ldclmi	3, cr0, [r0], #384	@ 0x180
 8001b04:	8ee20653 	mcrhi	6, 7, r0, cr2, cr3, {2}
 8001b08:	63101e31 	tstvs	r0, #784	@ 0x310
 8001b0c:	43ff40f1 	mvnsmi	r4, #241	@ 0xf1
 8001b10:	00fd115f 	rscseq	r1, sp, pc, asr r1
 8001b14:	00032025 	andeq	r2, r3, r5, lsr #32
 8001b18:	608d21ea 	addvs	r2, sp, sl, ror #3
 8001b1c:	ffe0f06b 			@ <UNDEFINED> instruction: 0xffe0f06b
 8001b20:	6ff09300 	svcvs	0x00f09300
 8001b24:	6b7093c0 	blvs	9c26a2c <IntrRet+0x1c24344>
 8001b28:	93d45b10 	bicsls	r5, r4, #16, 22	@ 0x4000
 8001b2c:	7d426770 	stclvc	7, cr6, [r2, #-448]	@ 0xfffffe40
 8001b30:	f08300ff 			@ <UNDEFINED> instruction: 0xf08300ff
 8001b34:	105c42f9 	ldrshne	r4, [ip], #-41	@ 0xffffffd7
 8001b38:	809b207c 	addshi	r2, fp, ip, ror r0
 8001b3c:	21628001 	cmncs	r2, r1
 8001b40:	6ed1f7bc 	mrcvs	7, 6, APSR_nzcv, cr1, cr12, {5}
 8001b44:	def31fa2 	cdple	15, 15, cr1, cr3, cr2, {5}
 8001b48:	e110aac0 	tst	r0, r0, asr #21
 8001b4c:	b001f0ae 	andlt	pc, r1, lr, lsr #1
 8001b50:	fe91ffdf 			@ <UNDEFINED> instruction: 0xfe91ffdf
 8001b54:	1ff00340 	svcne	0x00f00340
 8001b58:	3ff003a0 	svccc	0x00f003a0
 8001b5c:	7c331c63 	ldcvc	12, cr1, [r3], #-396	@ 0xfffffe74
 8001b60:	85fffef0 	ldrbhi	pc, [pc, #3824]!	@ 8002a58 <IntrRet+0x370>	@ <UNPREDICTABLE>
 8001b64:	c4708449 	ldrbtgt	r8, [r0], #-1097	@ 0xfffffbb7
 8001b68:	c501f04a 	strgt	pc, [r1, #-74]	@ 0xffffffb6
 8001b6c:	f0c643e1 			@ <UNDEFINED> instruction: 0xf0c643e1
 8001b70:	cfcb715f 	svcgt	0x00cb715f
 8001b74:	01900320 	orrseq	r0, r0, r0, lsr #6
 8001b78:	01f0ffff 	ldrsheq	pc, [r0, #255]!	@ 0xff	@ <UNPREDICTABLE>
 8001b7c:	45f00190 	ldrbmi	r0, [r0, #400]!	@ 0x190
 8001b80:	f0ff01f0 			@ <UNDEFINED> instruction: 0xf0ff01f0
 8001b84:	f001f001 			@ <UNDEFINED> instruction: 0xf001f001
 8001b88:	f001f001 			@ <UNDEFINED> instruction: 0xf001f001
 8001b8c:	f001f001 			@ <UNDEFINED> instruction: 0xf001f001
 8001b90:	ff01f001 			@ <UNDEFINED> instruction: 0xff01f001
 8001b94:	01f001f0 	ldrsheq	r0, [r0, #16]!
 8001b98:	01f001f0 	ldrsheq	r0, [r0, #16]!
 8001b9c:	01f001f0 	ldrsheq	r0, [r0, #16]!
 8001ba0:	01f001f0 	ldrsheq	r0, [r0, #16]!
 8001ba4:	7001f0c0 	andvc	pc, r1, r0, asr #1
 8001ba8:	f001f001 			@ <UNDEFINED> instruction: 0xf001f001
 8001bac:	f001f001 			@ <UNDEFINED> instruction: 0xf001f001
 8001bb0:	01f0ff01 	mvnseq	pc, r1, lsl #30
 8001bb4:	01f001f0 	ldrsheq	r0, [r0, #16]!
 8001bb8:	01f001f0 	ldrsheq	r0, [r0, #16]!
 8001bbc:	01f001f0 	ldrsheq	r0, [r0, #16]!
 8001bc0:	f0fc01f0 			@ <UNDEFINED> instruction: 0xf0fc01f0
 8001bc4:	f001f001 			@ <UNDEFINED> instruction: 0xf001f001
 8001bc8:	f001f001 			@ <UNDEFINED> instruction: 0xf001f001
 8001bcc:	00017001 	andeq	r7, r1, r1
 8001bd0:	00080001 	andeq	r0, r8, r1
 8001bd4:	00000038 	andeq	r0, r0, r8, lsr r0
 8001bd8:	00000001 	andeq	r0, r0, r1
 8001bdc:	40e80007 	rscmi	r0, r8, r7
 8001be0:	00008198 	muleq	r0, r8, r1
 8001be4:	81b840e8 			@ <UNDEFINED> instruction: 0x81b840e8
 8001be8:	40e80008 	rscmi	r0, r8, r8
 8001bec:	001081d8 			@ <UNDEFINED> instruction: 0x001081d8
 8001bf0:	81f840e8 	mvnshi	r4, r8, ror #1
 8001bf4:	40e80018 	rscmi	r0, r8, r8, lsl r0
 8001bf8:	00208018 	eoreq	r8, r0, r8, lsl r0
 8001bfc:	803840e8 	eorshi	r4, r8, r8, ror #1
 8001c00:	00e80028 	rsceq	r0, r8, r8, lsr #32
 8001c04:	00304058 	eorseq	r4, r0, r8, asr r0
 8001c08:	00400002 	subeq	r0, r0, r2
 8001c0c:	00000040 	andeq	r0, r0, r0, asr #32
 8001c10:	00400040 	subeq	r0, r0, r0, asr #32
 8001c14:	00000001 	andeq	r0, r0, r1

08001c18 <rt_mode_gameplay>:
 8001c18:	e92d4010 	push	{r4, lr}
 8001c1c:	e3a00000 	mov	r0, #0
 8001c20:	ebfff95e 	bl	80001a0 <bugcheck>
 8001c24:	e8bd4010 	pop	{r4, lr}
 8001c28:	e12fff1e 	bx	lr

08001c2c <rt_mode_unused>:
 8001c2c:	e92d4010 	push	{r4, lr}
 8001c30:	e3a00000 	mov	r0, #0
 8001c34:	ebfff959 	bl	80001a0 <bugcheck>
 8001c38:	e8bd4010 	pop	{r4, lr}
 8001c3c:	e12fff1e 	bx	lr

08001c40 <hns_load_graphics>:
 8001c40:	e92d4010 	push	{r4, lr}
 8001c44:	e3a01000 	mov	r1, #0
 8001c48:	e59f0058 	ldr	r0, [pc, #88]	@ 8001ca8 <hns_load_graphics+0x68>
 8001c4c:	ebfffa79 	bl	8000638 <index_asset_tbl>
 8001c50:	e59f1054 	ldr	r1, [pc, #84]	@ 8001cac <hns_load_graphics+0x6c>
 8001c54:	ebfff99c 	bl	80002cc <lz777_uncomp_vram>
 8001c58:	e3a01002 	mov	r1, #2
 8001c5c:	e59f0044 	ldr	r0, [pc, #68]	@ 8001ca8 <hns_load_graphics+0x68>
 8001c60:	ebfffa74 	bl	8000638 <index_asset_tbl>
 8001c64:	e3a01406 	mov	r1, #100663296	@ 0x6000000
 8001c68:	ebfff997 	bl	80002cc <lz777_uncomp_vram>
 8001c6c:	e3a01003 	mov	r1, #3
 8001c70:	e59f0030 	ldr	r0, [pc, #48]	@ 8001ca8 <hns_load_graphics+0x68>
 8001c74:	ebfffa6f 	bl	8000638 <index_asset_tbl>
 8001c78:	e59f1030 	ldr	r1, [pc, #48]	@ 8001cb0 <hns_load_graphics+0x70>
 8001c7c:	ebfff992 	bl	80002cc <lz777_uncomp_vram>
 8001c80:	e3a01004 	mov	r1, #4
 8001c84:	e59f001c 	ldr	r0, [pc, #28]	@ 8001ca8 <hns_load_graphics+0x68>
 8001c88:	ebfffa6a 	bl	8000638 <index_asset_tbl>
 8001c8c:	e59f3020 	ldr	r3, [pc, #32]	@ 8001cb4 <hns_load_graphics+0x74>
 8001c90:	e3a01001 	mov	r1, #1
 8001c94:	e5830000 	str	r0, [r3]
 8001c98:	e59f0008 	ldr	r0, [pc, #8]	@ 8001ca8 <hns_load_graphics+0x68>
 8001c9c:	ebfffa65 	bl	8000638 <index_asset_tbl>
 8001ca0:	e8bd4010 	pop	{r4, lr}
 8001ca4:	e12fff1e 	bx	lr
 8001ca8:	08000744 	stmdaeq	r0, {r2, r6, r8, r9, sl}
 8001cac:	06008000 	streq	r8, [r0], -r0
 8001cb0:	06010000 	streq	r0, [r1], -r0
 8001cb4:	030034ec 	tsteq	r0, #236, 8	@ 0xec000000

08001cb8 <hns_main>:
 8001cb8:	e92d4010 	push	{r4, lr}
 8001cbc:	ebffffdf 	bl	8001c40 <hns_load_graphics>
 8001cc0:	eafffffe 	b	8001cc0 <hns_main+0x8>

08001cc4 <hns_body>:
 8001cc4:	e92d4010 	push	{r4, lr}
 8001cc8:	ebfffa90 	bl	8000710 <init_subsystems>
 8001ccc:	ebffffdb 	bl	8001c40 <hns_load_graphics>
 8001cd0:	eafffffe 	b	8001cd0 <hns_body+0xc>

08001cd4 <rt_mode_hns>:
 8001cd4:	e92d4010 	push	{r4, lr}
 8001cd8:	ebfffff9 	bl	8001cc4 <hns_body>

08001cdc <runtime_dispatch>:
 8001cdc:	e3a06002 	mov	r6, #2
 8001ce0:	e92d4010 	push	{r4, lr}
 8001ce4:	e59f5078 	ldr	r5, [pc, #120]	@ 8001d64 <runtime_dispatch+0x88>
 8001ce8:	e59f4078 	ldr	r4, [pc, #120]	@ 8001d68 <runtime_dispatch+0x8c>
 8001cec:	e5d43000 	ldrb	r3, [r4]
 8001cf0:	e353000e 	cmp	r3, #14
 8001cf4:	8a000003 	bhi	8001d08 <runtime_dispatch+0x2c>
 8001cf8:	e7d53003 	ldrb	r3, [r5, r3]
 8001cfc:	e08ff103 	add	pc, pc, r3, lsl #2
 8001d00:	e1a00000 	nop			@ (mov r0, r0)
 8001d04:	ebffffc3 	bl	8001c18 <rt_mode_gameplay>
 8001d08:	ebfff90e 	bl	8000148 <install_ivt1>
 8001d0c:	eafffff6 	b	8001cec <runtime_dispatch+0x10>
 8001d10:	ebffffc5 	bl	8001c2c <rt_mode_unused>
 8001d14:	ebffffbf 	bl	8001c18 <rt_mode_gameplay>
 8001d18:	e5c46000 	strb	r6, [r4]
 8001d1c:	eafffff9 	b	8001d08 <runtime_dispatch+0x2c>
 8001d20:	eb000016 	bl	8001d80 <rt_mode_naming>
 8001d24:	ebffffbb 	bl	8001c18 <rt_mode_gameplay>
 8001d28:	eafffffa 	b	8001d18 <runtime_dispatch+0x3c>
 8001d2c:	eb00001d 	bl	8001da8 <rt_mode_ft_disclaimer>
 8001d30:	eafffff4 	b	8001d08 <runtime_dispatch+0x2c>
 8001d34:	ebffffe6 	bl	8001cd4 <rt_mode_hns>
 8001d38:	eafffff2 	b	8001d08 <runtime_dispatch+0x2c>
 8001d3c:	eb000014 	bl	8001d94 <rt_mode_sndplyr>
 8001d40:	eafffff0 	b	8001d08 <runtime_dispatch+0x2c>
 8001d44:	eb000026 	bl	8001de4 <rt_mode_credits>
 8001d48:	eaffffee 	b	8001d08 <runtime_dispatch+0x2c>
 8001d4c:	eb00001a 	bl	8001dbc <rt_mode_main_menu>
 8001d50:	eaffffec 	b	8001d08 <runtime_dispatch+0x2c>
 8001d54:	eb00001d 	bl	8001dd0 <rt_mode_menu>
 8001d58:	eaffffea 	b	8001d08 <runtime_dispatch+0x2c>
 8001d5c:	eb000002 	bl	8001d6c <rt_mode_battle>
 8001d60:	eaffffe8 	b	8001d08 <runtime_dispatch+0x2c>
 8001d64:	08002650 	stmdaeq	r0, {r4, r6, r9, sl, sp}
 8001d68:	03000000 	tsteq	r0, #0

08001d6c <rt_mode_battle>:
 8001d6c:	e92d4010 	push	{r4, lr}
 8001d70:	e3a00000 	mov	r0, #0
 8001d74:	ebfff909 	bl	80001a0 <bugcheck>
 8001d78:	e8bd4010 	pop	{r4, lr}
 8001d7c:	e12fff1e 	bx	lr

08001d80 <rt_mode_naming>:
 8001d80:	e92d4010 	push	{r4, lr}
 8001d84:	e3a00000 	mov	r0, #0
 8001d88:	ebfff904 	bl	80001a0 <bugcheck>
 8001d8c:	e8bd4010 	pop	{r4, lr}
 8001d90:	e12fff1e 	bx	lr

08001d94 <rt_mode_sndplyr>:
 8001d94:	e92d4010 	push	{r4, lr}
 8001d98:	e3a00000 	mov	r0, #0
 8001d9c:	ebfff8ff 	bl	80001a0 <bugcheck>
 8001da0:	e8bd4010 	pop	{r4, lr}
 8001da4:	e12fff1e 	bx	lr

08001da8 <rt_mode_ft_disclaimer>:
 8001da8:	e92d4010 	push	{r4, lr}
 8001dac:	e3a00000 	mov	r0, #0
 8001db0:	ebfff8fa 	bl	80001a0 <bugcheck>
 8001db4:	e8bd4010 	pop	{r4, lr}
 8001db8:	e12fff1e 	bx	lr

08001dbc <rt_mode_main_menu>:
 8001dbc:	e92d4010 	push	{r4, lr}
 8001dc0:	e3a00000 	mov	r0, #0
 8001dc4:	ebfff8f5 	bl	80001a0 <bugcheck>
 8001dc8:	e8bd4010 	pop	{r4, lr}
 8001dcc:	e12fff1e 	bx	lr

08001dd0 <rt_mode_menu>:
 8001dd0:	e92d4010 	push	{r4, lr}
 8001dd4:	e3a00000 	mov	r0, #0
 8001dd8:	ebfff8f0 	bl	80001a0 <bugcheck>
 8001ddc:	e8bd4010 	pop	{r4, lr}
 8001de0:	e12fff1e 	bx	lr

08001de4 <rt_mode_credits>:
 8001de4:	e92d4010 	push	{r4, lr}
 8001de8:	e3a00000 	mov	r0, #0
 8001dec:	ebfff8eb 	bl	80001a0 <bugcheck>
 8001df0:	e8bd4010 	pop	{r4, lr}
 8001df4:	e12fff1e 	bx	lr

08001df8 <CpuSet>:
 8001df8:	df0b      	svc	11
 8001dfa:	4770      	bx	lr

08001dfc <CpuFastSet>:
 8001dfc:	df0c      	svc	12
 8001dfe:	4770      	bx	lr

08001e00 <dummy>:
 8001e00:	4770      	bx	lr
 8001e02:	46c0      	nop			@ (mov r8, r8)

08001e04 <InitInterrupt>:
 8001e04:	2200      	movs	r2, #0
 8001e06:	4b12      	ldr	r3, [pc, #72]	@ (8001e50 <InitInterrupt+0x4c>)
 8001e08:	4912      	ldr	r1, [pc, #72]	@ (8001e54 <InitInterrupt+0x50>)
 8001e0a:	605a      	str	r2, [r3, #4]
 8001e0c:	6019      	str	r1, [r3, #0]
 8001e0e:	6099      	str	r1, [r3, #8]
 8001e10:	60da      	str	r2, [r3, #12]
 8001e12:	6119      	str	r1, [r3, #16]
 8001e14:	615a      	str	r2, [r3, #20]
 8001e16:	6199      	str	r1, [r3, #24]
 8001e18:	61da      	str	r2, [r3, #28]
 8001e1a:	6219      	str	r1, [r3, #32]
 8001e1c:	625a      	str	r2, [r3, #36]	@ 0x24
 8001e1e:	6299      	str	r1, [r3, #40]	@ 0x28
 8001e20:	62da      	str	r2, [r3, #44]	@ 0x2c
 8001e22:	6319      	str	r1, [r3, #48]	@ 0x30
 8001e24:	635a      	str	r2, [r3, #52]	@ 0x34
 8001e26:	6399      	str	r1, [r3, #56]	@ 0x38
 8001e28:	63da      	str	r2, [r3, #60]	@ 0x3c
 8001e2a:	6419      	str	r1, [r3, #64]	@ 0x40
 8001e2c:	645a      	str	r2, [r3, #68]	@ 0x44
 8001e2e:	6499      	str	r1, [r3, #72]	@ 0x48
 8001e30:	64da      	str	r2, [r3, #76]	@ 0x4c
 8001e32:	6519      	str	r1, [r3, #80]	@ 0x50
 8001e34:	655a      	str	r2, [r3, #84]	@ 0x54
 8001e36:	6599      	str	r1, [r3, #88]	@ 0x58
 8001e38:	65da      	str	r2, [r3, #92]	@ 0x5c
 8001e3a:	6619      	str	r1, [r3, #96]	@ 0x60
 8001e3c:	665a      	str	r2, [r3, #100]	@ 0x64
 8001e3e:	6699      	str	r1, [r3, #104]	@ 0x68
 8001e40:	66da      	str	r2, [r3, #108]	@ 0x6c
 8001e42:	6719      	str	r1, [r3, #112]	@ 0x70
 8001e44:	675a      	str	r2, [r3, #116]	@ 0x74
 8001e46:	4b04      	ldr	r3, [pc, #16]	@ (8001e58 <InitInterrupt+0x54>)
 8001e48:	4a04      	ldr	r2, [pc, #16]	@ (8001e5c <InitInterrupt+0x58>)
 8001e4a:	6013      	str	r3, [r2, #0]
 8001e4c:	4770      	bx	lr
 8001e4e:	46c0      	nop			@ (mov r8, r8)
 8001e50:	030034f0 	tsteq	r0, #240, 8	@ 0xf0000000
 8001e54:	08001e01 	stmdaeq	r0, {r0, r9, sl, fp, ip}
 8001e58:	08002660 	stmdaeq	r0, {r5, r6, r9, sl, sp}
 8001e5c:	03007ffc 	tsteq	r0, #252, 30	@ 0x3f0

08001e60 <irqInit>:
 8001e60:	2200      	movs	r2, #0
 8001e62:	4b12      	ldr	r3, [pc, #72]	@ (8001eac <irqInit+0x4c>)
 8001e64:	4912      	ldr	r1, [pc, #72]	@ (8001eb0 <irqInit+0x50>)
 8001e66:	605a      	str	r2, [r3, #4]
 8001e68:	6019      	str	r1, [r3, #0]
 8001e6a:	6099      	str	r1, [r3, #8]
 8001e6c:	60da      	str	r2, [r3, #12]
 8001e6e:	6119      	str	r1, [r3, #16]
 8001e70:	615a      	str	r2, [r3, #20]
 8001e72:	6199      	str	r1, [r3, #24]
 8001e74:	61da      	str	r2, [r3, #28]
 8001e76:	6219      	str	r1, [r3, #32]
 8001e78:	625a      	str	r2, [r3, #36]	@ 0x24
 8001e7a:	6299      	str	r1, [r3, #40]	@ 0x28
 8001e7c:	62da      	str	r2, [r3, #44]	@ 0x2c
 8001e7e:	6319      	str	r1, [r3, #48]	@ 0x30
 8001e80:	635a      	str	r2, [r3, #52]	@ 0x34
 8001e82:	6399      	str	r1, [r3, #56]	@ 0x38
 8001e84:	63da      	str	r2, [r3, #60]	@ 0x3c
 8001e86:	6419      	str	r1, [r3, #64]	@ 0x40
 8001e88:	645a      	str	r2, [r3, #68]	@ 0x44
 8001e8a:	6499      	str	r1, [r3, #72]	@ 0x48
 8001e8c:	64da      	str	r2, [r3, #76]	@ 0x4c
 8001e8e:	6519      	str	r1, [r3, #80]	@ 0x50
 8001e90:	655a      	str	r2, [r3, #84]	@ 0x54
 8001e92:	6599      	str	r1, [r3, #88]	@ 0x58
 8001e94:	65da      	str	r2, [r3, #92]	@ 0x5c
 8001e96:	6619      	str	r1, [r3, #96]	@ 0x60
 8001e98:	665a      	str	r2, [r3, #100]	@ 0x64
 8001e9a:	6699      	str	r1, [r3, #104]	@ 0x68
 8001e9c:	66da      	str	r2, [r3, #108]	@ 0x6c
 8001e9e:	6719      	str	r1, [r3, #112]	@ 0x70
 8001ea0:	675a      	str	r2, [r3, #116]	@ 0x74
 8001ea2:	4b04      	ldr	r3, [pc, #16]	@ (8001eb4 <irqInit+0x54>)
 8001ea4:	4a04      	ldr	r2, [pc, #16]	@ (8001eb8 <irqInit+0x58>)
 8001ea6:	6013      	str	r3, [r2, #0]
 8001ea8:	4770      	bx	lr
 8001eaa:	46c0      	nop			@ (mov r8, r8)
 8001eac:	030034f0 	tsteq	r0, #240, 8	@ 0xf0000000
 8001eb0:	08001e01 	stmdaeq	r0, {r0, r9, sl, fp, ip}
 8001eb4:	08002660 	stmdaeq	r0, {r5, r6, r9, sl, sp}
 8001eb8:	03007ffc 	tsteq	r0, #252, 30	@ 0x3f0

08001ebc <SetInterrupt>:
 8001ebc:	4b38      	ldr	r3, [pc, #224]	@ (8001fa0 <SetInterrupt+0xe4>)
 8001ebe:	0002      	movs	r2, r0
 8001ec0:	6858      	ldr	r0, [r3, #4]
 8001ec2:	b510      	push	{r4, lr}
 8001ec4:	2800      	cmp	r0, #0
 8001ec6:	d057      	beq.n	8001f78 <SetInterrupt+0xbc>
 8001ec8:	4290      	cmp	r0, r2
 8001eca:	d058      	beq.n	8001f7e <SetInterrupt+0xc2>
 8001ecc:	68d8      	ldr	r0, [r3, #12]
 8001ece:	2800      	cmp	r0, #0
 8001ed0:	d048      	beq.n	8001f64 <SetInterrupt+0xa8>
 8001ed2:	4290      	cmp	r0, r2
 8001ed4:	d046      	beq.n	8001f64 <SetInterrupt+0xa8>
 8001ed6:	6958      	ldr	r0, [r3, #20]
 8001ed8:	2800      	cmp	r0, #0
 8001eda:	d045      	beq.n	8001f68 <SetInterrupt+0xac>
 8001edc:	4290      	cmp	r0, r2
 8001ede:	d043      	beq.n	8001f68 <SetInterrupt+0xac>
 8001ee0:	69d8      	ldr	r0, [r3, #28]
 8001ee2:	2800      	cmp	r0, #0
 8001ee4:	d042      	beq.n	8001f6c <SetInterrupt+0xb0>
 8001ee6:	4290      	cmp	r0, r2
 8001ee8:	d040      	beq.n	8001f6c <SetInterrupt+0xb0>
 8001eea:	6a58      	ldr	r0, [r3, #36]	@ 0x24
 8001eec:	2800      	cmp	r0, #0
 8001eee:	d03f      	beq.n	8001f70 <SetInterrupt+0xb4>
 8001ef0:	4282      	cmp	r2, r0
 8001ef2:	d03d      	beq.n	8001f70 <SetInterrupt+0xb4>
 8001ef4:	6ad8      	ldr	r0, [r3, #44]	@ 0x2c
 8001ef6:	2800      	cmp	r0, #0
 8001ef8:	d03c      	beq.n	8001f74 <SetInterrupt+0xb8>
 8001efa:	4282      	cmp	r2, r0
 8001efc:	d03a      	beq.n	8001f74 <SetInterrupt+0xb8>
 8001efe:	6b58      	ldr	r0, [r3, #52]	@ 0x34
 8001f00:	2800      	cmp	r0, #0
 8001f02:	d02d      	beq.n	8001f60 <SetInterrupt+0xa4>
 8001f04:	4282      	cmp	r2, r0
 8001f06:	d02b      	beq.n	8001f60 <SetInterrupt+0xa4>
 8001f08:	6bd8      	ldr	r0, [r3, #60]	@ 0x3c
 8001f0a:	2800      	cmp	r0, #0
 8001f0c:	d039      	beq.n	8001f82 <SetInterrupt+0xc6>
 8001f0e:	4282      	cmp	r2, r0
 8001f10:	d037      	beq.n	8001f82 <SetInterrupt+0xc6>
 8001f12:	6c58      	ldr	r0, [r3, #68]	@ 0x44
 8001f14:	2800      	cmp	r0, #0
 8001f16:	d036      	beq.n	8001f86 <SetInterrupt+0xca>
 8001f18:	4282      	cmp	r2, r0
 8001f1a:	d034      	beq.n	8001f86 <SetInterrupt+0xca>
 8001f1c:	6cd8      	ldr	r0, [r3, #76]	@ 0x4c
 8001f1e:	2800      	cmp	r0, #0
 8001f20:	d033      	beq.n	8001f8a <SetInterrupt+0xce>
 8001f22:	4282      	cmp	r2, r0
 8001f24:	d031      	beq.n	8001f8a <SetInterrupt+0xce>
 8001f26:	6d58      	ldr	r0, [r3, #84]	@ 0x54
 8001f28:	2800      	cmp	r0, #0
 8001f2a:	d030      	beq.n	8001f8e <SetInterrupt+0xd2>
 8001f2c:	4282      	cmp	r2, r0
 8001f2e:	d02e      	beq.n	8001f8e <SetInterrupt+0xd2>
 8001f30:	6dd8      	ldr	r0, [r3, #92]	@ 0x5c
 8001f32:	2800      	cmp	r0, #0
 8001f34:	d02d      	beq.n	8001f92 <SetInterrupt+0xd6>
 8001f36:	4282      	cmp	r2, r0
 8001f38:	d02b      	beq.n	8001f92 <SetInterrupt+0xd6>
 8001f3a:	6e58      	ldr	r0, [r3, #100]	@ 0x64
 8001f3c:	2800      	cmp	r0, #0
 8001f3e:	d02a      	beq.n	8001f96 <SetInterrupt+0xda>
 8001f40:	4282      	cmp	r2, r0
 8001f42:	d028      	beq.n	8001f96 <SetInterrupt+0xda>
 8001f44:	6ed8      	ldr	r0, [r3, #108]	@ 0x6c
 8001f46:	2800      	cmp	r0, #0
 8001f48:	d027      	beq.n	8001f9a <SetInterrupt+0xde>
 8001f4a:	4282      	cmp	r2, r0
 8001f4c:	d025      	beq.n	8001f9a <SetInterrupt+0xde>
 8001f4e:	240e      	movs	r4, #14
 8001f50:	00e4      	lsls	r4, r4, #3
 8001f52:	1918      	adds	r0, r3, r4
 8001f54:	5119      	str	r1, [r3, r4]
 8001f56:	191b      	adds	r3, r3, r4
 8001f58:	605a      	str	r2, [r3, #4]
 8001f5a:	bc10      	pop	{r4}
 8001f5c:	bc02      	pop	{r1}
 8001f5e:	4708      	bx	r1
 8001f60:	2406      	movs	r4, #6
 8001f62:	e7f5      	b.n	8001f50 <SetInterrupt+0x94>
 8001f64:	2401      	movs	r4, #1
 8001f66:	e7f3      	b.n	8001f50 <SetInterrupt+0x94>
 8001f68:	2402      	movs	r4, #2
 8001f6a:	e7f1      	b.n	8001f50 <SetInterrupt+0x94>
 8001f6c:	2403      	movs	r4, #3
 8001f6e:	e7ef      	b.n	8001f50 <SetInterrupt+0x94>
 8001f70:	2404      	movs	r4, #4
 8001f72:	e7ed      	b.n	8001f50 <SetInterrupt+0x94>
 8001f74:	2405      	movs	r4, #5
 8001f76:	e7eb      	b.n	8001f50 <SetInterrupt+0x94>
 8001f78:	0018      	movs	r0, r3
 8001f7a:	2400      	movs	r4, #0
 8001f7c:	e7ea      	b.n	8001f54 <SetInterrupt+0x98>
 8001f7e:	2400      	movs	r4, #0
 8001f80:	e7e6      	b.n	8001f50 <SetInterrupt+0x94>
 8001f82:	2407      	movs	r4, #7
 8001f84:	e7e4      	b.n	8001f50 <SetInterrupt+0x94>
 8001f86:	2408      	movs	r4, #8
 8001f88:	e7e2      	b.n	8001f50 <SetInterrupt+0x94>
 8001f8a:	2409      	movs	r4, #9
 8001f8c:	e7e0      	b.n	8001f50 <SetInterrupt+0x94>
 8001f8e:	240a      	movs	r4, #10
 8001f90:	e7de      	b.n	8001f50 <SetInterrupt+0x94>
 8001f92:	240b      	movs	r4, #11
 8001f94:	e7dc      	b.n	8001f50 <SetInterrupt+0x94>
 8001f96:	240c      	movs	r4, #12
 8001f98:	e7da      	b.n	8001f50 <SetInterrupt+0x94>
 8001f9a:	240d      	movs	r4, #13
 8001f9c:	e7d8      	b.n	8001f50 <SetInterrupt+0x94>
 8001f9e:	46c0      	nop			@ (mov r8, r8)
 8001fa0:	030034f0 	tsteq	r0, #240, 8	@ 0xf0000000

08001fa4 <irqSet>:
 8001fa4:	4b38      	ldr	r3, [pc, #224]	@ (8002088 <irqSet+0xe4>)
 8001fa6:	0002      	movs	r2, r0
 8001fa8:	6858      	ldr	r0, [r3, #4]
 8001faa:	b510      	push	{r4, lr}
 8001fac:	2800      	cmp	r0, #0
 8001fae:	d057      	beq.n	8002060 <irqSet+0xbc>
 8001fb0:	4290      	cmp	r0, r2
 8001fb2:	d058      	beq.n	8002066 <irqSet+0xc2>
 8001fb4:	68d8      	ldr	r0, [r3, #12]
 8001fb6:	2800      	cmp	r0, #0
 8001fb8:	d048      	beq.n	800204c <irqSet+0xa8>
 8001fba:	4290      	cmp	r0, r2
 8001fbc:	d046      	beq.n	800204c <irqSet+0xa8>
 8001fbe:	6958      	ldr	r0, [r3, #20]
 8001fc0:	2800      	cmp	r0, #0
 8001fc2:	d045      	beq.n	8002050 <irqSet+0xac>
 8001fc4:	4290      	cmp	r0, r2
 8001fc6:	d043      	beq.n	8002050 <irqSet+0xac>
 8001fc8:	69d8      	ldr	r0, [r3, #28]
 8001fca:	2800      	cmp	r0, #0
 8001fcc:	d042      	beq.n	8002054 <irqSet+0xb0>
 8001fce:	4290      	cmp	r0, r2
 8001fd0:	d040      	beq.n	8002054 <irqSet+0xb0>
 8001fd2:	6a58      	ldr	r0, [r3, #36]	@ 0x24
 8001fd4:	2800      	cmp	r0, #0
 8001fd6:	d03f      	beq.n	8002058 <irqSet+0xb4>
 8001fd8:	4282      	cmp	r2, r0
 8001fda:	d03d      	beq.n	8002058 <irqSet+0xb4>
 8001fdc:	6ad8      	ldr	r0, [r3, #44]	@ 0x2c
 8001fde:	2800      	cmp	r0, #0
 8001fe0:	d03c      	beq.n	800205c <irqSet+0xb8>
 8001fe2:	4282      	cmp	r2, r0
 8001fe4:	d03a      	beq.n	800205c <irqSet+0xb8>
 8001fe6:	6b58      	ldr	r0, [r3, #52]	@ 0x34
 8001fe8:	2800      	cmp	r0, #0
 8001fea:	d02d      	beq.n	8002048 <irqSet+0xa4>
 8001fec:	4282      	cmp	r2, r0
 8001fee:	d02b      	beq.n	8002048 <irqSet+0xa4>
 8001ff0:	6bd8      	ldr	r0, [r3, #60]	@ 0x3c
 8001ff2:	2800      	cmp	r0, #0
 8001ff4:	d039      	beq.n	800206a <irqSet+0xc6>
 8001ff6:	4282      	cmp	r2, r0
 8001ff8:	d037      	beq.n	800206a <irqSet+0xc6>
 8001ffa:	6c58      	ldr	r0, [r3, #68]	@ 0x44
 8001ffc:	2800      	cmp	r0, #0
 8001ffe:	d036      	beq.n	800206e <irqSet+0xca>
 8002000:	4282      	cmp	r2, r0
 8002002:	d034      	beq.n	800206e <irqSet+0xca>
 8002004:	6cd8      	ldr	r0, [r3, #76]	@ 0x4c
 8002006:	2800      	cmp	r0, #0
 8002008:	d033      	beq.n	8002072 <irqSet+0xce>
 800200a:	4282      	cmp	r2, r0
 800200c:	d031      	beq.n	8002072 <irqSet+0xce>
 800200e:	6d58      	ldr	r0, [r3, #84]	@ 0x54
 8002010:	2800      	cmp	r0, #0
 8002012:	d030      	beq.n	8002076 <irqSet+0xd2>
 8002014:	4282      	cmp	r2, r0
 8002016:	d02e      	beq.n	8002076 <irqSet+0xd2>
 8002018:	6dd8      	ldr	r0, [r3, #92]	@ 0x5c
 800201a:	2800      	cmp	r0, #0
 800201c:	d02d      	beq.n	800207a <irqSet+0xd6>
 800201e:	4282      	cmp	r2, r0
 8002020:	d02b      	beq.n	800207a <irqSet+0xd6>
 8002022:	6e58      	ldr	r0, [r3, #100]	@ 0x64
 8002024:	2800      	cmp	r0, #0
 8002026:	d02a      	beq.n	800207e <irqSet+0xda>
 8002028:	4282      	cmp	r2, r0
 800202a:	d028      	beq.n	800207e <irqSet+0xda>
 800202c:	6ed8      	ldr	r0, [r3, #108]	@ 0x6c
 800202e:	2800      	cmp	r0, #0
 8002030:	d027      	beq.n	8002082 <irqSet+0xde>
 8002032:	4282      	cmp	r2, r0
 8002034:	d025      	beq.n	8002082 <irqSet+0xde>
 8002036:	240e      	movs	r4, #14
 8002038:	00e4      	lsls	r4, r4, #3
 800203a:	1918      	adds	r0, r3, r4
 800203c:	5119      	str	r1, [r3, r4]
 800203e:	191b      	adds	r3, r3, r4
 8002040:	605a      	str	r2, [r3, #4]
 8002042:	bc10      	pop	{r4}
 8002044:	bc02      	pop	{r1}
 8002046:	4708      	bx	r1
 8002048:	2406      	movs	r4, #6
 800204a:	e7f5      	b.n	8002038 <irqSet+0x94>
 800204c:	2401      	movs	r4, #1
 800204e:	e7f3      	b.n	8002038 <irqSet+0x94>
 8002050:	2402      	movs	r4, #2
 8002052:	e7f1      	b.n	8002038 <irqSet+0x94>
 8002054:	2403      	movs	r4, #3
 8002056:	e7ef      	b.n	8002038 <irqSet+0x94>
 8002058:	2404      	movs	r4, #4
 800205a:	e7ed      	b.n	8002038 <irqSet+0x94>
 800205c:	2405      	movs	r4, #5
 800205e:	e7eb      	b.n	8002038 <irqSet+0x94>
 8002060:	0018      	movs	r0, r3
 8002062:	2400      	movs	r4, #0
 8002064:	e7ea      	b.n	800203c <irqSet+0x98>
 8002066:	2400      	movs	r4, #0
 8002068:	e7e6      	b.n	8002038 <irqSet+0x94>
 800206a:	2407      	movs	r4, #7
 800206c:	e7e4      	b.n	8002038 <irqSet+0x94>
 800206e:	2408      	movs	r4, #8
 8002070:	e7e2      	b.n	8002038 <irqSet+0x94>
 8002072:	2409      	movs	r4, #9
 8002074:	e7e0      	b.n	8002038 <irqSet+0x94>
 8002076:	240a      	movs	r4, #10
 8002078:	e7de      	b.n	8002038 <irqSet+0x94>
 800207a:	240b      	movs	r4, #11
 800207c:	e7dc      	b.n	8002038 <irqSet+0x94>
 800207e:	240c      	movs	r4, #12
 8002080:	e7da      	b.n	8002038 <irqSet+0x94>
 8002082:	240d      	movs	r4, #13
 8002084:	e7d8      	b.n	8002038 <irqSet+0x94>
 8002086:	46c0      	nop			@ (mov r8, r8)
 8002088:	030034f0 	tsteq	r0, #240, 8	@ 0xf0000000

0800208c <EnableInterrupt>:
 800208c:	2200      	movs	r2, #0
 800208e:	4b0f      	ldr	r3, [pc, #60]	@ (80020cc <EnableInterrupt+0x40>)
 8002090:	801a      	strh	r2, [r3, #0]
 8002092:	07c3      	lsls	r3, r0, #31
 8002094:	d504      	bpl.n	80020a0 <EnableInterrupt+0x14>
 8002096:	2108      	movs	r1, #8
 8002098:	4a0d      	ldr	r2, [pc, #52]	@ (80020d0 <EnableInterrupt+0x44>)
 800209a:	8813      	ldrh	r3, [r2, #0]
 800209c:	430b      	orrs	r3, r1
 800209e:	8013      	strh	r3, [r2, #0]
 80020a0:	0783      	lsls	r3, r0, #30
 80020a2:	d504      	bpl.n	80020ae <EnableInterrupt+0x22>
 80020a4:	2110      	movs	r1, #16
 80020a6:	4a0a      	ldr	r2, [pc, #40]	@ (80020d0 <EnableInterrupt+0x44>)
 80020a8:	8813      	ldrh	r3, [r2, #0]
 80020aa:	430b      	orrs	r3, r1
 80020ac:	8013      	strh	r3, [r2, #0]
 80020ae:	0743      	lsls	r3, r0, #29
 80020b0:	d504      	bpl.n	80020bc <EnableInterrupt+0x30>
 80020b2:	2120      	movs	r1, #32
 80020b4:	4a06      	ldr	r2, [pc, #24]	@ (80020d0 <EnableInterrupt+0x44>)
 80020b6:	8813      	ldrh	r3, [r2, #0]
 80020b8:	430b      	orrs	r3, r1
 80020ba:	8013      	strh	r3, [r2, #0]
 80020bc:	4b05      	ldr	r3, [pc, #20]	@ (80020d4 <EnableInterrupt+0x48>)
 80020be:	881a      	ldrh	r2, [r3, #0]
 80020c0:	4310      	orrs	r0, r2
 80020c2:	2201      	movs	r2, #1
 80020c4:	8018      	strh	r0, [r3, #0]
 80020c6:	4b01      	ldr	r3, [pc, #4]	@ (80020cc <EnableInterrupt+0x40>)
 80020c8:	801a      	strh	r2, [r3, #0]
 80020ca:	4770      	bx	lr
 80020cc:	04000208 	streq	r0, [r0], #-520	@ 0xfffffdf8
 80020d0:	04000004 	streq	r0, [r0], #-4
 80020d4:	04000200 	streq	r0, [r0], #-512	@ 0xfffffe00

080020d8 <irqEnable>:
 80020d8:	2100      	movs	r1, #0
 80020da:	4a11      	ldr	r2, [pc, #68]	@ (8002120 <irqEnable+0x48>)
 80020dc:	0003      	movs	r3, r0
 80020de:	8011      	strh	r1, [r2, #0]
 80020e0:	07c2      	lsls	r2, r0, #31
 80020e2:	d504      	bpl.n	80020ee <irqEnable+0x16>
 80020e4:	2008      	movs	r0, #8
 80020e6:	490f      	ldr	r1, [pc, #60]	@ (8002124 <irqEnable+0x4c>)
 80020e8:	880a      	ldrh	r2, [r1, #0]
 80020ea:	4302      	orrs	r2, r0
 80020ec:	800a      	strh	r2, [r1, #0]
 80020ee:	079a      	lsls	r2, r3, #30
 80020f0:	d504      	bpl.n	80020fc <irqEnable+0x24>
 80020f2:	2010      	movs	r0, #16
 80020f4:	490b      	ldr	r1, [pc, #44]	@ (8002124 <irqEnable+0x4c>)
 80020f6:	880a      	ldrh	r2, [r1, #0]
 80020f8:	4302      	orrs	r2, r0
 80020fa:	800a      	strh	r2, [r1, #0]
 80020fc:	075a      	lsls	r2, r3, #29
 80020fe:	d504      	bpl.n	800210a <irqEnable+0x32>
 8002100:	2020      	movs	r0, #32
 8002102:	4908      	ldr	r1, [pc, #32]	@ (8002124 <irqEnable+0x4c>)
 8002104:	880a      	ldrh	r2, [r1, #0]
 8002106:	4302      	orrs	r2, r0
 8002108:	800a      	strh	r2, [r1, #0]
 800210a:	4a07      	ldr	r2, [pc, #28]	@ (8002128 <irqEnable+0x50>)
 800210c:	8810      	ldrh	r0, [r2, #0]
 800210e:	4318      	orrs	r0, r3
 8002110:	0400      	lsls	r0, r0, #16
 8002112:	0c00      	lsrs	r0, r0, #16
 8002114:	8010      	strh	r0, [r2, #0]
 8002116:	2201      	movs	r2, #1
 8002118:	4b01      	ldr	r3, [pc, #4]	@ (8002120 <irqEnable+0x48>)
 800211a:	801a      	strh	r2, [r3, #0]
 800211c:	4770      	bx	lr
 800211e:	46c0      	nop			@ (mov r8, r8)
 8002120:	04000208 	streq	r0, [r0], #-520	@ 0xfffffdf8
 8002124:	04000004 	streq	r0, [r0], #-4
 8002128:	04000200 	streq	r0, [r0], #-512	@ 0xfffffe00

0800212c <DisableInterrupt>:
 800212c:	2200      	movs	r2, #0
 800212e:	4b0f      	ldr	r3, [pc, #60]	@ (800216c <DisableInterrupt+0x40>)
 8002130:	801a      	strh	r2, [r3, #0]
 8002132:	07c3      	lsls	r3, r0, #31
 8002134:	d504      	bpl.n	8002140 <DisableInterrupt+0x14>
 8002136:	2108      	movs	r1, #8
 8002138:	4a0d      	ldr	r2, [pc, #52]	@ (8002170 <DisableInterrupt+0x44>)
 800213a:	8813      	ldrh	r3, [r2, #0]
 800213c:	438b      	bics	r3, r1
 800213e:	8013      	strh	r3, [r2, #0]
 8002140:	0783      	lsls	r3, r0, #30
 8002142:	d504      	bpl.n	800214e <DisableInterrupt+0x22>
 8002144:	2110      	movs	r1, #16
 8002146:	4a0a      	ldr	r2, [pc, #40]	@ (8002170 <DisableInterrupt+0x44>)
 8002148:	8813      	ldrh	r3, [r2, #0]
 800214a:	438b      	bics	r3, r1
 800214c:	8013      	strh	r3, [r2, #0]
 800214e:	0743      	lsls	r3, r0, #29
 8002150:	d504      	bpl.n	800215c <DisableInterrupt+0x30>
 8002152:	2120      	movs	r1, #32
 8002154:	4a06      	ldr	r2, [pc, #24]	@ (8002170 <DisableInterrupt+0x44>)
 8002156:	8813      	ldrh	r3, [r2, #0]
 8002158:	438b      	bics	r3, r1
 800215a:	8013      	strh	r3, [r2, #0]
 800215c:	4a05      	ldr	r2, [pc, #20]	@ (8002174 <DisableInterrupt+0x48>)
 800215e:	8813      	ldrh	r3, [r2, #0]
 8002160:	4383      	bics	r3, r0
 8002162:	8013      	strh	r3, [r2, #0]
 8002164:	2201      	movs	r2, #1
 8002166:	4b01      	ldr	r3, [pc, #4]	@ (800216c <DisableInterrupt+0x40>)
 8002168:	801a      	strh	r2, [r3, #0]
 800216a:	4770      	bx	lr
 800216c:	04000208 	streq	r0, [r0], #-520	@ 0xfffffdf8
 8002170:	04000004 	streq	r0, [r0], #-4
 8002174:	04000200 	streq	r0, [r0], #-512	@ 0xfffffe00

08002178 <irqDisable>:
 8002178:	2200      	movs	r2, #0
 800217a:	4b0f      	ldr	r3, [pc, #60]	@ (80021b8 <irqDisable+0x40>)
 800217c:	801a      	strh	r2, [r3, #0]
 800217e:	07c3      	lsls	r3, r0, #31
 8002180:	d504      	bpl.n	800218c <irqDisable+0x14>
 8002182:	2108      	movs	r1, #8
 8002184:	4a0d      	ldr	r2, [pc, #52]	@ (80021bc <irqDisable+0x44>)
 8002186:	8813      	ldrh	r3, [r2, #0]
 8002188:	438b      	bics	r3, r1
 800218a:	8013      	strh	r3, [r2, #0]
 800218c:	0783      	lsls	r3, r0, #30
 800218e:	d504      	bpl.n	800219a <irqDisable+0x22>
 8002190:	2110      	movs	r1, #16
 8002192:	4a0a      	ldr	r2, [pc, #40]	@ (80021bc <irqDisable+0x44>)
 8002194:	8813      	ldrh	r3, [r2, #0]
 8002196:	438b      	bics	r3, r1
 8002198:	8013      	strh	r3, [r2, #0]
 800219a:	0743      	lsls	r3, r0, #29
 800219c:	d504      	bpl.n	80021a8 <irqDisable+0x30>
 800219e:	2120      	movs	r1, #32
 80021a0:	4a06      	ldr	r2, [pc, #24]	@ (80021bc <irqDisable+0x44>)
 80021a2:	8813      	ldrh	r3, [r2, #0]
 80021a4:	438b      	bics	r3, r1
 80021a6:	8013      	strh	r3, [r2, #0]
 80021a8:	4a05      	ldr	r2, [pc, #20]	@ (80021c0 <irqDisable+0x48>)
 80021aa:	8813      	ldrh	r3, [r2, #0]
 80021ac:	4383      	bics	r3, r0
 80021ae:	8013      	strh	r3, [r2, #0]
 80021b0:	2201      	movs	r2, #1
 80021b2:	4b01      	ldr	r3, [pc, #4]	@ (80021b8 <irqDisable+0x40>)
 80021b4:	801a      	strh	r2, [r3, #0]
 80021b6:	4770      	bx	lr
 80021b8:	04000208 	streq	r0, [r0], #-520	@ 0xfffffdf8
 80021bc:	04000004 	streq	r0, [r0], #-4
 80021c0:	04000200 	streq	r0, [r0], #-512	@ 0xfffffe00

080021c4 <RegisterRamReset>:
 80021c4:	df01      	svc	1
 80021c6:	4770      	bx	lr

080021c8 <SoftReset>:
 80021c8:	4b04      	ldr	r3, [pc, #16]	@ (80021dc <SoftReset+0x14>)
 80021ca:	7018      	strb	r0, [r3, #0]
 80021cc:	4b04      	ldr	r3, [pc, #16]	@ (80021e0 <SoftReset+0x18>)
 80021ce:	2200      	movs	r2, #0
 80021d0:	701a      	strb	r2, [r3, #0]
 80021d2:	4904      	ldr	r1, [pc, #16]	@ (80021e4 <SoftReset+0x1c>)
 80021d4:	468d      	mov	sp, r1
 80021d6:	df01      	svc	1
 80021d8:	df00      	svc	0
 80021da:	7ffa0000 	svcvc	0x00fa0000
 80021de:	02080300 	andeq	r0, r8, #0, 6
 80021e2:	7f000400 	svcvc	0x00000400
 80021e6:	 	andgt	r0, r0, r0, lsl #6

080021e8 <__irqInit_from_arm>:
 80021e8:	e59fc000 	ldr	ip, [pc]	@ 80021f0 <__irqInit_from_arm+0x8>
 80021ec:	e12fff1c 	bx	ip
 80021f0:	08001e61 	stmdaeq	r0, {r0, r5, r6, r9, sl, fp, ip}

080021f4 <__irqSet_from_arm>:
 80021f4:	e59fc000 	ldr	ip, [pc]	@ 80021fc <__irqSet_from_arm+0x8>
 80021f8:	e12fff1c 	bx	ip
 80021fc:	08001fa5 	stmdaeq	r0, {r0, r2, r5, r7, r8, r9, sl, fp, ip}

08002200 <__irqEnable_from_arm>:
 8002200:	e59fc000 	ldr	ip, [pc]	@ 8002208 <__irqEnable_from_arm+0x8>
 8002204:	e12fff1c 	bx	ip
 8002208:	080020d9 	stmdaeq	r0, {r0, r3, r4, r6, r7, sp}

0800220c <__SoftReset_from_arm>:
 800220c:	e59fc000 	ldr	ip, [pc]	@ 8002214 <__SoftReset_from_arm+0x8>
 8002210:	e12fff1c 	bx	ip
 8002214:	080021c9 	stmdaeq	r0, {r0, r3, r6, r7, r8, sp}

08002218 <__CpuSet_from_arm>:
 8002218:	e59fc000 	ldr	ip, [pc]	@ 8002220 <__CpuSet_from_arm+0x8>
 800221c:	e12fff1c 	bx	ip
 8002220:	08001df9 	stmdaeq	r0, {r0, r3, r4, r5, r6, r7, r8, sl, fp, ip}

08002224 <__CpuFastSet_from_arm>:
 8002224:	e59fc000 	ldr	ip, [pc]	@ 800222c <__CpuFastSet_from_arm+0x8>
 8002228:	e12fff1c 	bx	ip
 800222c:	08001dfd 	stmdaeq	r0, {r0, r2, r3, r4, r5, r6, r7, r8, sl, fp, ip}
	...

08002248 <reset_check_str>:
 8002248:	4720334d 	strmi	r3, [r0, -sp, asr #6]!
 800224c:	4e4f5342 	cdpmi	3, 4, cr5, cr15, cr2, {2}

08002250 <rand_correction>:
	...
 8002260:	000000df 			@ <UNDEFINED> instruction: 0x000000df
 8002264:	000000b0 	strheq	r0, [r0], -r0	@ <UNPREDICTABLE>
 8002268:	00000008 	andeq	r0, r0, r8
 800226c:	00000099 	muleq	r0, r9, r0
	...
 8002650:	00000307 	andeq	r0, r0, r7, lsl #6
 8002654:	00000000 	andeq	r0, r0, r0
 8002658:	10121416 	andsne	r1, r2, r6, lsl r4
 800265c:	Address 0x800265c is out of bounds.


Disassembly of section .iwram:

08002660 <IntrMain>:
 8002660:	e3a03301 	mov	r3, #67108864	@ 0x4000000
 8002664:	e5932200 	ldr	r2, [r3, #512]	@ 0x200
 8002668:	e5931208 	ldr	r1, [r3, #520]	@ 0x208
 800266c:	e5833208 	str	r3, [r3, #520]	@ 0x208
 8002670:	e14f0000 	mrs	r0, SPSR
 8002674:	e92d400b 	push	{r0, r1, r3, lr}
 8002678:	e0021822 	and	r1, r2, r2, lsr #16
 800267c:	e15320b8 	ldrh	r2, [r3, #-8]
 8002680:	e1822001 	orr	r2, r2, r1
 8002684:	e14320b8 	strh	r2, [r3, #-8]
 8002688:	e59f2084 	ldr	r2, [pc, #132]	@ 8002714 <IntrRet+0x2c>
 800268c:	e2833c02 	add	r3, r3, #512	@ 0x200

08002690 <findIRQ>:
 8002690:	e5920004 	ldr	r0, [r2, #4]
 8002694:	e3500000 	cmp	r0, #0
 8002698:	0a000003 	beq	80026ac <no_handler>
 800269c:	e0100001 	ands	r0, r0, r1
 80026a0:	1a000005 	bne	80026bc <jump_intr>
 80026a4:	e2822008 	add	r2, r2, #8
 80026a8:	eafffff8 	b	8002690 <findIRQ>

080026ac <no_handler>:
 80026ac:	e1c310b2 	strh	r1, [r3, #2]
 80026b0:	e8bd400b 	pop	{r0, r1, r3, lr}
 80026b4:	e5831208 	str	r1, [r3, #520]	@ 0x208
 80026b8:	e1a0f00e 	mov	pc, lr

080026bc <jump_intr>:
 80026bc:	e5922000 	ldr	r2, [r2]
 80026c0:	e3520000 	cmp	r2, #0
 80026c4:	0afffff8 	beq	80026ac <no_handler>

080026c8 <got_handler>:
 80026c8:	e10f1000 	mrs	r1, CPSR
 80026cc:	e3c110df 	bic	r1, r1, #223	@ 0xdf
 80026d0:	e381101f 	orr	r1, r1, #31
 80026d4:	e129f001 	msr	CPSR_fc, r1
 80026d8:	e1c300b2 	strh	r0, [r3, #2]
 80026dc:	e52de004 	push	{lr}		@ (str lr, [sp, #-4]!)
 80026e0:	e28fe000 	add	lr, pc, #0
 80026e4:	e12fff12 	bx	r2

080026e8 <IntrRet>:
 80026e8:	e49de004 	pop	{lr}		@ (ldr lr, [sp], #4)
 80026ec:	e3a03301 	mov	r3, #67108864	@ 0x4000000
 80026f0:	e5833208 	str	r3, [r3, #520]	@ 0x208
 80026f4:	e10f3000 	mrs	r3, CPSR
 80026f8:	e3c330df 	bic	r3, r3, #223	@ 0xdf
 80026fc:	e3833092 	orr	r3, r3, #146	@ 0x92
 8002700:	e129f003 	msr	CPSR_fc, r3
 8002704:	e8bd400b 	pop	{r0, r1, r3, lr}
 8002708:	e5831208 	str	r1, [r3, #520]	@ 0x208
 800270c:	e169f000 	msr	SPSR_fc, r0
 8002710:	e1a0f00e 	mov	pc, lr
 8002714:	030034f0 	tsteq	r0, #240, 8	@ 0xf0000000

Disassembly of section .debug_info:

00000000 <.debug_info>:
       0:	000001a8 	andeq	r0, r0, r8, lsr #3
       4:	04010005 	streq	r0, [r1], #-5
       8:	00000000 	andeq	r0, r0, r0
       c:	00013708 	andeq	r3, r1, r8, lsl #14
      10:	47031d00 	strmi	r1, [r3, -r0, lsl #26]
      14:	e5000316 	str	r0, [r0, #-790]	@ 0xfffffcea
      18:	f9000000 			@ <UNDEFINED> instruction: 0xf9000000
      1c:	44000000 	strmi	r0, [r0], #-0
      20:	5c080001 	stcpl	0, cr0, [r8], {1}
      24:	00000000 	andeq	r0, r0, r0
      28:	01000000 	mrseq	r0, (UNDEF: 0)
      2c:	00420601 	subeq	r0, r2, r1, lsl #12
      30:	02010000 	andeq	r0, r1, #0
      34:	00009505 	andeq	r9, r0, r5, lsl #10
      38:	05040100 	streq	r0, [r4, #-256]	@ 0xffffff00
      3c:	00000122 	andeq	r0, r0, r2, lsr #2
      40:	1d050801 	stcne	8, cr0, [r5, #-4]
      44:	01000001 	tsteq	r0, r1
      48:	00400801 	subeq	r0, r0, r1, lsl #16
      4c:	89040000 	stmdbhi	r4, {}	@ <UNPREDICTABLE>
      50:	02000009 	andeq	r0, r0, #9
      54:	005a1931 	subseq	r1, sl, r1, lsr r9
      58:	02010000 	andeq	r0, r1, #0
      5c:	00005607 	andeq	r5, r0, r7, lsl #12
      60:	07040100 	streq	r0, [r4, -r0, lsl #2]
      64:	000000d3 			@ <UNDEFINED> instruction: 0x000000d3
      68:	ce070801 	cdpgt	8, 0, cr0, cr7, cr1, {0}
      6c:	09000000 	stmdbeq	r0, {}	@ <UNPREDICTABLE>
      70:	6e690504 	cdpvs	5, 6, cr0, cr9, cr4, {0}
      74:	04010074 	streq	r0, [r1], #-116	@ 0xffffff8c
      78:	0000d807 	andeq	sp, r0, r7, lsl #16
      7c:	31750a00 	cmncc	r5, r0, lsl #20
      80:	2c030036 	stccs	0, cr0, [r3], {54}	@ 0x36
      84:	00004e12 	andeq	r4, r0, r2, lsl lr
      88:	007d0b00 	rsbseq	r0, sp, r0, lsl #22
      8c:	3b040000 	blcc	100094 <_binary_assets_romhdr_bin_size+0xfffd5>
      90:	03000000 	tsteq	r0, #0
      94:	00891632 	addeq	r1, r9, r2, lsr r6
      98:	00040000 	andeq	r0, r4, r0
      9c:	04000000 	streq	r0, [r0], #-0
      a0:	00a6122e 	adceq	r1, r6, lr, lsr #4
      a4:	ab070000 	blge	1c00ac <_binary_assets_romhdr_bin_size+0x1bffed>
      a8:	0c000000 	stceq	0, cr0, [r0], {-0}
      ac:	0000060d 	andeq	r0, r0, sp, lsl #12
      b0:	5a020700 	bpl	81cb8 <_binary_assets_romhdr_bin_size+0x81bf9>
      b4:	04000000 	streq	r0, [r0], #-0
      b8:	01190e57 	tsteq	r9, r7, asr lr
      bc:	af020000 	svcge	0x00020000
      c0:	01000001 	tsteq	r0, r1
      c4:	00009f02 	andeq	r9, r0, r2, lsl #30
      c8:	8f020200 	svchi	0x00020200
      cc:	04000001 	streq	r0, [r0], #-1
      d0:	00006902 	andeq	r6, r0, r2, lsl #18
      d4:	74020800 	strvc	r0, [r2], #-2048	@ 0xfffff800
      d8:	10000000 	andne	r0, r0, r0
      dc:	00007f02 	andeq	r7, r0, r2, lsl #30
      e0:	8a022000 	bhi	880e8 <_binary_assets_romhdr_bin_size+0x88029>
      e4:	40000000 	andmi	r0, r0, r0
      e8:	0001a402 	andeq	sl, r1, r2, lsl #8
      ec:	aa038000 	bge	e00f4 <_binary_assets_romhdr_bin_size+0xe0035>
      f0:	00000000 	andeq	r0, r0, r0
      f4:	00b30301 	adcseq	r0, r3, r1, lsl #6
      f8:	02000000 	andeq	r0, r0, #0
      fc:	0000bc03 	andeq	fp, r0, r3, lsl #24
     100:	03040000 	tsteq	r4, #0
     104:	000000c5 	andeq	r0, r0, r5, asr #1
     108:	30030800 	andcc	r0, r3, r0, lsl #16
     10c:	00000000 	andeq	r0, r0, r0
     110:	012b0310 			@ <UNDEFINED> instruction: 0x012b0310
     114:	20000000 	andcs	r0, r0, r0
     118:	004e0400 	subeq	r0, lr, r0, lsl #8
     11c:	66040000 	strvs	r0, [r4], -r0
     120:	0000ac03 	andeq	sl, r0, r3, lsl #24
     124:	019a0e00 	orrseq	r0, sl, r0, lsl #28
     128:	7f040000 	svcvc	0x00040000
     12c:	00013706 	andeq	r3, r1, r6, lsl #14
     130:	006f0500 	rsbeq	r0, pc, r0, lsl #10
     134:	0f000000 	svceq	0x00000000
     138:	0000001c 	andeq	r0, r0, ip, lsl r0
     13c:	52087804 	andpl	r7, r8, #4, 16	@ 0x40000
     140:	52000001 	andpl	r0, r0, #1
     144:	05000001 	streq	r0, [r0, #-1]
     148:	00000119 	andeq	r0, r0, r9, lsl r1
     14c:	00009a05 	andeq	r9, r0, r5, lsl #20
     150:	9a070000 	bls	1c0158 <_binary_assets_romhdr_bin_size+0x1c0099>
     154:	10000000 	andne	r0, r0, r0
     158:	0000000f 	andeq	r0, r0, pc
     15c:	48060d01 	stmdami	r6, {r0, r8, sl, fp}
     160:	58080001 	stmdapl	r8, {r0}
     164:	01000000 	mrseq	r0, (UNDEF: 0)
     168:	0001999c 	muleq	r1, ip, r9
     16c:	01801100 	orreq	r1, r0, r0, lsl #2
     170:	01370800 	teqeq	r7, r0, lsl #16
     174:	01890000 	orreq	r0, r9, r0
     178:	01060000 	mrseq	r0, (UNDEF: 6)
     17c:	06310150 			@ <UNDEFINED> instruction: 0x06310150
     180:	03055101 	tsteq	r5, #1073741824	@ 0x40000000
     184:	08000144 	stmdaeq	r0, {r2, r6, r8}
     188:	01881200 	orreq	r1, r8, r0, lsl #4
     18c:	01250800 			@ <UNDEFINED> instruction: 0x01250800
     190:	01060000 	mrseq	r0, (UNDEF: 6)
     194:	00310150 	eorseq	r0, r1, r0, asr r1
     198:	00231300 	eoreq	r1, r3, r0, lsl #6
     19c:	08010000 	stmdaeq	r1, {}	@ <UNPREDICTABLE>
     1a0:	00014406 	andeq	r4, r1, r6, lsl #8
     1a4:	00000408 	andeq	r0, r0, r8, lsl #8
     1a8:	009c0100 	addseq	r0, ip, r0, lsl #2
     1ac:	0000016c 	andeq	r0, r0, ip, ror #2
     1b0:	04010005 	streq	r0, [r1], #-5
     1b4:	00000111 	andeq	r0, r0, r1, lsl r1
     1b8:	00013706 	andeq	r3, r1, r6, lsl #14
     1bc:	47031d00 	strmi	r1, [r3, -r0, lsl #26]
     1c0:	e9000316 	stmdb	r0, {r1, r2, r4, r8, r9}
     1c4:	f9000001 			@ <UNDEFINED> instruction: 0xf9000001
     1c8:	a0000000 	andge	r0, r0, r0
     1cc:	c0080001 	andgt	r0, r8, r1
     1d0:	09000000 	stmdbeq	r0, {}	@ <UNPREDICTABLE>
     1d4:	01000001 	tsteq	r0, r1
     1d8:	00ce0708 	sbceq	r0, lr, r8, lsl #14
     1dc:	01010000 	mrseq	r0, (UNDEF: 1)
     1e0:	00004008 	andeq	r4, r0, r8
     1e4:	01070700 	tsteq	r7, r0, lsl #14
     1e8:	00000032 	andeq	r0, r0, r2, lsr r0
     1ec:	540e0402 	strpl	r0, [lr], #-1026	@ 0xfffffbfe
     1f0:	04000000 	streq	r0, [r0], #-0
     1f4:	000001ba 			@ <UNDEFINED> instruction: 0x000001ba
     1f8:	01cc0400 	biceq	r0, ip, r0, lsl #8
     1fc:	00010000 	andeq	r0, r1, r0
     200:	0001e302 	andeq	lr, r1, r2, lsl #6
     204:	03070200 	tsteq	r7, #0, 4
     208:	00000039 	andeq	r0, r0, r9, lsr r0
     20c:	42060101 	andmi	r0, r6, #1073741824	@ 0x40000000
     210:	01000000 	mrseq	r0, (UNDEF: 0)
     214:	00950502 	addseq	r0, r5, r2, lsl #10
     218:	04010000 	streq	r0, [r1], #-0
     21c:	00012205 	andeq	r2, r1, r5, lsl #4
     220:	05080100 	streq	r0, [r8, #-256]	@ 0xffffff00
     224:	0000011d 	andeq	r0, r0, sp, lsl r1
     228:	00098902 	andeq	r8, r9, r2, lsl #18
     22c:	19310300 	ldmdbne	r1!, {r8, r9}
     230:	00000088 	andeq	r0, r0, r8, lsl #1
     234:	56070201 	strpl	r0, [r7], -r1, lsl #4
     238:	02000000 	andeq	r0, r0, #0
     23c:	000008ab 	andeq	r0, r0, fp, lsr #17
     240:	9b193403 	blls	64d254 <_binary_assets_romhdr_bin_size+0x64d195>
     244:	01000000 	mrseq	r0, (UNDEF: 0)
     248:	00d30704 	sbcseq	r0, r3, r4, lsl #14
     24c:	04080000 	streq	r0, [r8], #-0
     250:	746e6905 	strbtvc	r6, [lr], #-2309	@ 0xfffff6fb
     254:	07040100 	streq	r0, [r4, -r0, lsl #2]
     258:	000000d8 			@ <UNDEFINED> instruction: 0x000000d8
     25c:	36317509 	ldrtcc	r7, [r1], -r9, lsl #10
     260:	122c0400 	eorne	r0, ip, #0, 8
     264:	0000007c 	andeq	r0, r0, ip, ror r0
     268:	0000b00a 	andeq	fp, r0, sl
     26c:	003b0200 	eorseq	r0, fp, r0, lsl #4
     270:	32040000 	andcc	r0, r4, #0
     274:	0000bc16 	andeq	fp, r0, r6, lsl ip
     278:	01da0b00 	bicseq	r0, sl, r0, lsl #22
     27c:	05010000 	streq	r0, [r1, #-0]
     280:	0001a006 	andeq	sl, r1, r6
     284:	0000c008 	andeq	ip, r0, r8
     288:	699c0100 	ldmibvs	ip, {r8}
     28c:	0c000001 	stceq	0, cr0, [r0], {1}
     290:	00727265 	rsbseq	r7, r2, r5, ror #4
     294:	54150501 	ldrpl	r0, [r5], #-1281	@ 0xfffffaff
     298:	10000000 	andne	r0, r0, r0
     29c:	0c000000 	stceq	0, cr0, [r0], {-0}
     2a0:	0d000000 	stceq	0, cr0, [r0, #-0]
     2a4:	0000024f 	andeq	r0, r0, pc, asr #4
     2a8:	69150b01 	ldmdbvs	r5, {r0, r8, r9, fp}
     2ac:	00000001 	andeq	r0, r0, r1
     2b0:	05060000 	streq	r0, [r6, #-0]
     2b4:	0000000c 	andeq	r0, r0, ip
     2b8:	00000122 	andeq	r0, r0, r2, lsr #2
     2bc:	0d006903 			@ <UNDEFINED> instruction: 0x0d006903
     2c0:	00008f12 	andeq	r8, r0, r2, lsl pc
     2c4:	00002700 	andeq	r2, r0, r0, lsl #14
     2c8:	00002500 	andeq	r2, r0, r0, lsl #10
     2cc:	19050000 	stmdbne	r5, {}	@ <UNPREDICTABLE>
     2d0:	36000000 	strcc	r0, [r0], -r0
     2d4:	0e000001 	cdpeq	0, 0, cr0, cr0, cr1, {0}
     2d8:	12010069 	andne	r0, r1, #105	@ 0x69
     2dc:	00008f12 	andeq	r8, r0, r2, lsl pc
     2e0:	f80f0000 			@ <UNDEFINED> instruction: 0xf80f0000
     2e4:	3c080001 	stccc	0, cr0, [r8], {1}
     2e8:	03000000 	tsteq	r0, #0
     2ec:	12180069 	andsne	r0, r8, #105	@ 0x69
     2f0:	0000008f 	andeq	r0, r0, pc, lsl #1
     2f4:	00000030 	andeq	r0, r0, r0, lsr r0
     2f8:	0000002e 	andeq	r0, r0, lr, lsr #32
     2fc:	00002010 	andeq	r2, r0, r0, lsl r0
     300:	006a0300 	rsbeq	r0, sl, r0, lsl #6
     304:	008f1619 	addeq	r1, pc, r9, lsl r6	@ <UNPREDICTABLE>
     308:	00390000 	eorseq	r0, r9, r0
     30c:	00370000 	eorseq	r0, r7, r0
     310:	00000000 	andeq	r0, r0, r0
     314:	88041100 	stmdahi	r4, {r8, ip}
     318:	00000000 	andeq	r0, r0, r0
     31c:	000001d7 			@ <UNDEFINED> instruction: 0x000001d7
     320:	04010005 	streq	r0, [r1], #-5
     324:	00000208 	andeq	r0, r0, r8, lsl #4
     328:	00013709 	andeq	r3, r1, r9, lsl #14
     32c:	47031d00 	strmi	r1, [r3, -r0, lsl #26]
     330:	15000316 	strne	r0, [r0, #-790]	@ 0xfffffcea
     334:	f9000002 			@ <UNDEFINED> instruction: 0xf9000002
     338:	60000000 	andvs	r0, r0, r0
     33c:	84080002 	strhi	r0, [r8], #-2
     340:	9e000000 	cdpls	0, 0, cr0, cr0, cr0, {0}
     344:	01000002 	tsteq	r0, r2
     348:	00ce0708 	sbceq	r0, lr, r8, lsl #14
     34c:	04010000 	streq	r0, [r1], #-0
     350:	0000d807 	andeq	sp, r0, r7, lsl #16
     354:	06010100 	streq	r0, [r1], -r0, lsl #2
     358:	00000042 	andeq	r0, r0, r2, asr #32
     35c:	95050201 	strls	r0, [r5, #-513]	@ 0xfffffdff
     360:	01000000 	mrseq	r0, (UNDEF: 0)
     364:	01220504 			@ <UNDEFINED> instruction: 0x01220504
     368:	08010000 	stmdaeq	r1, {}	@ <UNPREDICTABLE>
     36c:	00011d05 	andeq	r1, r1, r5, lsl #26
     370:	08010100 	stmdaeq	r1, {r8}
     374:	00000040 	andeq	r0, r0, r0, asr #32
     378:	56070201 	strpl	r0, [r7], -r1, lsl #4
     37c:	05000000 	streq	r0, [r0, #-0]
     380:	000008ab 	andeq	r0, r0, fp, lsr #17
     384:	6f193402 	svcvs	0x00193402
     388:	01000000 	mrseq	r0, (UNDEF: 0)
     38c:	00d30704 	sbcseq	r0, r3, r4, lsl #14
     390:	040a0000 	streq	r0, [sl], #-0
     394:	746e6905 	strbtvc	r6, [lr], #-2309	@ 0xfffff6fb
     398:	33750b00 	cmncc	r5, #0, 22
     39c:	2d030032 	stccs	0, cr0, [r3, #-200]	@ 0xffffff38
     3a0:	00006312 	andeq	r6, r0, r2, lsl r3
     3a4:	007d0c00 	rsbseq	r0, sp, r0, lsl #24
     3a8:	59050000 	stmdbpl	r5, {}	@ <UNPREDICTABLE>
     3ac:	03000002 	tsteq	r0, #2
     3b0:	00891633 	addeq	r1, r9, r3, lsr r6
     3b4:	29060000 	stmdbcs	r6, {}	@ <UNPREDICTABLE>
     3b8:	a5000002 	strge	r0, [r0, #-2]
     3bc:	000000b4 	strheq	r0, [r0], -r4
     3c0:	0000b402 	andeq	fp, r0, r2, lsl #8
     3c4:	00bb0200 	adcseq	r0, fp, r0, lsl #4
     3c8:	7d020000 	stcvc	0, cr0, [r2, #-0]
     3cc:	00000000 	andeq	r0, r0, r0
     3d0:	00ba040d 	adcseq	r0, sl, sp, lsl #8
     3d4:	0f0e0000 	svceq	0x000e0000
     3d8:	020a0604 	andeq	r0, sl, #4, 12	@ 0x400000
     3dc:	d7ab0000 	strle	r0, [fp, r0]!
     3e0:	02000000 	andeq	r0, r0, #0
     3e4:	000000b4 	strheq	r0, [r0], -r4
     3e8:	0000bb02 	andeq	fp, r0, r2, lsl #22
     3ec:	007d0200 	rsbseq	r0, sp, r0, lsl #4
     3f0:	07000000 	streq	r0, [r0, -r0]
     3f4:	00000242 	andeq	r0, r0, r2, asr #4
     3f8:	0002cc17 	andeq	ip, r2, r7, lsl ip
     3fc:	00001808 	andeq	r1, r0, r8, lsl #16
     400:	049c0100 	ldreq	r0, [ip], #256	@ 0x100
     404:	08000001 	stmdaeq	r0, {r0}
     408:	00637273 	rsbeq	r7, r3, r3, ror r2
     40c:	0000b424 	andeq	fp, r0, r4, lsr #8
     410:	08500100 	ldmdaeq	r0, {r8}^
     414:	00747364 	rsbseq	r7, r4, r4, ror #6
     418:	0000bb2f 	andeq	fp, r0, pc, lsr #22
     41c:	00510100 	subseq	r0, r1, r0, lsl #2
     420:	0001fd07 	andeq	pc, r1, r7, lsl #26
     424:	028c0e00 	addeq	r0, ip, #0, 28
     428:	00400800 	subeq	r0, r0, r0, lsl #16
     42c:	9c010000 	stcls	0, cr0, [r1], {-0}
     430:	000001a6 	andeq	r0, r0, r6, lsr #3
     434:	00023004 	andeq	r3, r2, r4
     438:	bb190e00 	bllt	643c40 <_binary_assets_romhdr_bin_size+0x643b81>
     43c:	58000000 	stmdapl	r0, {}	@ <UNPREDICTABLE>
     440:	4c000000 	stcmi	0, cr0, [r0], {-0}
     444:	04000000 	streq	r0, [r0], #-0
     448:	00000254 	andeq	r0, r0, r4, asr r2
     44c:	0063280e 	rsbeq	r2, r3, lr, lsl #16
     450:	008d0000 	addeq	r0, sp, r0
     454:	00890000 	addeq	r0, r9, r0
     458:	b0100000 	andslt	r0, r0, r0
     45c:	9a080002 	bls	20046c <_binary_assets_romhdr_bin_size+0x2003ad>
     460:	6d000000 	stcvs	0, cr0, [r0, #-0]
     464:	03000001 	tsteq	r0, #1
     468:	30015001 	andcc	r5, r1, r1
     46c:	09510103 	ldmdbeq	r1, {r0, r1, r8}^
     470:	00a503a3 	adceq	r0, r5, r3, lsr #7
     474:	a832a82b 	ldmdage	r2!, {r0, r1, r3, r5, fp, sp, pc}
     478:	52010300 	andpl	r0, r1, #0, 6
     47c:	a503a30b 	strge	sl, [r3, #-779]	@ 0xfffffcf5
     480:	32a82b01 	adccc	r2, r8, #1024	@ 0x400
     484:	253200a8 	ldrcs	r0, [r2, #-168]!	@ 0xffffff58
     488:	02c41100 	sbceq	r1, r4, #0, 2
     48c:	00bd0800 	adcseq	r0, sp, r0, lsl #16
     490:	01030000 	mrseq	r0, (UNDEF: 3)
     494:	03a31750 			@ <UNDEFINED> instruction: 0x03a31750
     498:	a82b01a5 	stmdage	fp!, {r0, r2, r5, r7, r8}
     49c:	4f00a832 	svcmi	0x0000a832
     4a0:	a503a31a 	strge	sl, [r3, #-794]	@ 0xfffffce6
     4a4:	32a82b00 	adccc	r2, r8, #0, 22
     4a8:	1a3300a8 	bne	cc0750 <_binary_assets_romhdr_bin_size+0xcc0691>
     4ac:	52010321 	andpl	r0, r1, #-2080374784	@ 0x84000000
     4b0:	a503a30f 	strge	sl, [r3, #-783]	@ 0xfffffcf1
     4b4:	32a82b01 	adccc	r2, r8, #1024	@ 0x400
     4b8:	253200a8 	ldrcs	r0, [r2, #-168]!	@ 0xffffff58
     4bc:	21244440 			@ <UNDEFINED> instruction: 0x21244440
     4c0:	35120000 	ldrcc	r0, [r2, #-0]
     4c4:	01000002 	tsteq	r0, r2
     4c8:	02600608 	rsbeq	r0, r0, #8, 12	@ 0x800000
     4cc:	002c0800 	eoreq	r0, ip, r0, lsl #16
     4d0:	9c010000 	stcls	0, cr0, [r1], {-0}
     4d4:	00023013 	andeq	r3, r2, r3, lsl r0
     4d8:	19080100 	stmdbne	r8, {r8}
     4dc:	000000bb 	strheq	r0, [r0], -fp
     4e0:	54045001 	strpl	r5, [r4], #-1
     4e4:	08000002 	stmdaeq	r0, {r1}
     4e8:	00006328 	andeq	r6, r0, r8, lsr #6
     4ec:	0000a500 	andeq	sl, r0, r0, lsl #10
     4f0:	0000a100 	andeq	sl, r0, r0, lsl #2
     4f4:	82000000 	andhi	r0, r0, #0
     4f8:	05000004 	streq	r0, [r0, #-4]
     4fc:	1c040100 	stcne	1, cr0, [r4], {-0}
     500:	16000003 	strne	r0, [r0], -r3
     504:	00000137 	andeq	r0, r0, r7, lsr r1
     508:	1647031d 			@ <UNDEFINED> instruction: 0x1647031d
     50c:	03b20003 			@ <UNDEFINED> instruction: 0x03b20003
     510:	00f90000 	rscseq	r0, r9, r0
     514:	00820000 	addeq	r0, r2, r0
     518:	00000000 	andeq	r0, r0, r0
     51c:	03c90000 	biceq	r0, r9, #0
     520:	01030000 	mrseq	r0, (UNDEF: 3)
     524:	00004206 	andeq	r4, r0, r6, lsl #4
     528:	05020300 	streq	r0, [r2, #-768]	@ 0xfffffd00
     52c:	00000095 	muleq	r0, r5, r0
     530:	22050403 	andcs	r0, r5, #50331648	@ 0x3000000
     534:	03000001 	tsteq	r0, #1
     538:	011d0508 	tsteq	sp, r8, lsl #10
     53c:	76040000 	strvc	r0, [r4], -r0
     540:	02000003 	andeq	r0, r0, #3
     544:	0053182e 	subseq	r1, r3, lr, lsr #16
     548:	01030000 	mrseq	r0, (UNDEF: 3)
     54c:	00004008 	andeq	r4, r0, r8
     550:	09890400 	stmibeq	r9, {sl}
     554:	31020000 	mrscc	r0, (UNDEF: 2)
     558:	00006619 	andeq	r6, r0, r9, lsl r6
     55c:	07020300 	streq	r0, [r2, -r0, lsl #6]
     560:	00000056 	andeq	r0, r0, r6, asr r0
     564:	0008ab04 	andeq	sl, r8, r4, lsl #22
     568:	19340200 	ldmdbne	r4!, {r9}
     56c:	00000079 	andeq	r0, r0, r9, ror r0
     570:	d3070403 	tstle	r7, #50331648	@ 0x3000000
     574:	03000000 	tsteq	r0, #0
     578:	00ce0708 	sbceq	r0, lr, r8, lsl #14
     57c:	04170000 	ldreq	r0, [r7], #-0
     580:	746e6905 	strbtvc	r6, [lr], #-2309	@ 0xfffff6fb
     584:	07040300 	streq	r0, [r4, -r0, lsl #6]
     588:	000000d8 			@ <UNDEFINED> instruction: 0x000000d8
     58c:	36317518 			@ <UNDEFINED> instruction: 0x36317518
     590:	122c0300 	eorne	r0, ip, #0, 6
     594:	0000005a 	andeq	r0, r0, sl, asr r0
     598:	00009519 	andeq	r9, r0, r9, lsl r5
     59c:	003b0400 	eorseq	r0, fp, r0, lsl #8
     5a0:	32030000 	andcc	r0, r3, #0
     5a4:	0000a116 	andeq	sl, r0, r6, lsl r1
     5a8:	025e1a00 	subseq	r1, lr, #0, 20
     5ac:	01070000 	mrseq	r0, (UNDEF: 7)
     5b0:	00000053 	andeq	r0, r0, r3, asr r0
     5b4:	d10e3604 	tstle	lr, r4, lsl #12
     5b8:	01000000 	mrseq	r0, (UNDEF: 0)
     5bc:	00000364 	andeq	r0, r0, r4, ror #6
     5c0:	033e0100 	teqeq	lr, #0, 2
     5c4:	00010000 	andeq	r0, r1, r0
     5c8:	00025e04 	andeq	r5, r2, r4, lsl #28
     5cc:	03390400 	teqeq	r9, #0, 8
     5d0:	000000b2 	strheq	r0, [r0], -r2
     5d4:	5301071b 	tstpl	r1, #7077888	@ 0x6c0000
     5d8:	05000000 	streq	r0, [r0, #-0]
     5dc:	01462806 	cmpeq	r6, r6, lsl #16
     5e0:	8f010000 	svchi	0x00010000
     5e4:	00000003 	andeq	r0, r0, r3
     5e8:	00044001 	andeq	r4, r4, r1
     5ec:	f1010100 			@ <UNDEFINED> instruction: 0xf1010100
     5f0:	02000003 	andeq	r0, r0, #3
     5f4:	0002b701 	andeq	fp, r2, r1, lsl #14
     5f8:	9b010300 	blls	41200 <_binary_assets_romhdr_bin_size+0x41141>
     5fc:	04000003 	streq	r0, [r0], #-3
     600:	0002cf01 	andeq	ip, r2, r1, lsl #30
     604:	94010500 	strls	r0, [r1], #-1280	@ 0xfffffb00
     608:	06000002 	streq	r0, [r0], -r2
     60c:	00040901 	andeq	r0, r4, r1, lsl #18
     610:	7e010700 	cdpvc	7, 0, cr0, cr1, cr0, {0}
     614:	08000003 	stmdaeq	r0, {r0, r1}
     618:	00031801 	andeq	r1, r3, r1, lsl #16
     61c:	31010900 	tstcc	r1, r0, lsl #18
     620:	0a000004 	beq	638 <_binary_assets_romhdr_bin_size+0x579>
     624:	0003d001 	andeq	sp, r3, r1
     628:	24010b00 	strcs	r0, [r1], #-2816	@ 0xfffff500
     62c:	0c000004 	stceq	0, cr0, [r0], {4}
     630:	0002a801 	andeq	sl, r2, r1, lsl #16
     634:	05010d00 	streq	r0, [r1, #-3328]	@ 0xfffff300
     638:	0e000003 	cdpeq	0, 0, cr0, cr0, cr3, {0}
     63c:	02850400 	addeq	r0, r5, #0, 8
     640:	16050000 	strne	r0, [r5], -r0
     644:	0000dd03 	andeq	sp, r0, r3, lsl #26
     648:	05021c00 	streq	r1, [r2, #-3072]	@ 0xfffff400
     64c:	01740918 	cmneq	r4, r8, lsl r9
     650:	8a0f0000 	bhi	3c0658 <_binary_assets_romhdr_bin_size+0x3c0599>
     654:	19000003 	stmdbne	r0, {r0, r1}
     658:	00014614 	andeq	r4, r1, r4, lsl r6
     65c:	700f0000 	andvc	r0, pc, r0
     660:	1a000003 	bne	674 <_binary_assets_romhdr_bin_size+0x5b5>
     664:	0000470d 	andeq	r4, r0, sp, lsl #14
     668:	04000100 	streq	r0, [r0], #-256	@ 0xffffff00
     66c:	000002fb 			@ <UNDEFINED> instruction: 0x000002fb
     670:	52031b05 	andpl	r1, r3, #5120	@ 0x1400
     674:	1d000001 	stcne	0, cr0, [r0, #-4]
     678:	00000452 	andeq	r0, r0, r2, asr r4
     67c:	74122a05 	ldrvc	r2, [r2], #-2565	@ 0xfffff5fb
     680:	1e000001 	cdpne	0, 0, cr0, cr0, cr1, {0}
     684:	00000180 	andeq	r0, r0, r0, lsl #3
     688:	050b0a01 	streq	r0, [fp, #-2561]	@ 0xfffff5ff
     68c:	00000003 	andeq	r0, r0, r3
     690:	01b61f03 			@ <UNDEFINED> instruction: 0x01b61f03
     694:	01aa0000 			@ <UNDEFINED> instruction: 0x01aa0000
     698:	8e200000 	cdphi	0, 2, cr0, cr0, cr0, {0}
     69c:	07000000 	streq	r0, [r0, -r0]
     6a0:	019a1000 	orrseq	r1, sl, r0
     6a4:	01030000 	mrseq	r0, (UNDEF: 3)
     6a8:	00004908 	andeq	r4, r0, r8, lsl #18
     6ac:	01af1000 			@ <UNDEFINED> instruction: 0x01af1000
     6b0:	6b210000 	blvs	8406b8 <_binary_assets_romhdr_bin_size+0x8405f9>
     6b4:	01000002 	tsteq	r0, r2
     6b8:	01aa0c0b 			@ <UNDEFINED> instruction: 0x01aa0c0b
     6bc:	03050000 	tsteq	r5, #0
     6c0:	08002248 	stmdaeq	r0, {r3, r6, r9, sp}
     6c4:	00032d0a 	andeq	r2, r3, sl, lsl #26
     6c8:	0a280500 	beq	a01ad0 <_binary_assets_romhdr_bin_size+0xa01a11>
     6cc:	0000000f 	andeq	r0, r0, pc
     6d0:	5a0a0506 	bpl	281af0 <_binary_assets_romhdr_bin_size+0x281a31>
     6d4:	07000004 	streq	r0, [r0, -r4]
     6d8:	027b086f 	rsbseq	r0, fp, #7274496	@ 0x6f0000
     6dc:	40040000 	andmi	r0, r4, r0
     6e0:	000001f3 			@ <UNDEFINED> instruction: 0x000001f3
     6e4:	0000d106 	andeq	sp, r0, r6, lsl #2
     6e8:	dd080000 	stcle	0, cr0, [r8, #-0]
     6ec:	08000003 	stmdaeq	r0, {r0, r1}
     6f0:	00020406 	andeq	r0, r2, r6, lsl #8
     6f4:	006d0600 	rsbeq	r0, sp, r0, lsl #12
     6f8:	08000000 	stmdaeq	r0, {}	@ <UNPREDICTABLE>
     6fc:	000001fd 			@ <UNDEFINED> instruction: 0x000001fd
     700:	021a0709 	andseq	r0, sl, #2359296	@ 0x240000
     704:	1a060000 	bne	18070c <_binary_assets_romhdr_bin_size+0x18064d>
     708:	06000002 	streq	r0, [r0], -r2
     70c:	0000006d 	andeq	r0, r0, sp, rrx
     710:	08042200 	stmdaeq	r4, {r9, sp}
     714:	00000235 	andeq	r0, r0, r5, lsr r2
     718:	02320609 	eorseq	r0, r2, #9437184	@ 0x900000
     71c:	1a060000 	bne	180724 <_binary_assets_romhdr_bin_size+0x180665>
     720:	06000002 	streq	r0, [r0], -r2
     724:	0000006d 	andeq	r0, r0, sp, rrx
     728:	06650700 	strbteq	r0, [r5], -r0, lsl #14
     72c:	c0410000 	subgt	r0, r1, r0
     730:	7c080000 	stcvc	0, cr0, [r8], {-0}
     734:	01000000 	mrseq	r0, (UNDEF: 0)
     738:	00028f9c 	muleq	r2, ip, pc	@ <UNPREDICTABLE>
     73c:	00ec0500 	rsceq	r0, ip, r0, lsl #10
     740:	03b40800 			@ <UNDEFINED> instruction: 0x03b40800
     744:	f0050000 			@ <UNDEFINED> instruction: 0xf0050000
     748:	4f080000 	svcmi	0x00080000
     74c:	05000003 	streq	r0, [r0, #-3]
     750:	080000f4 	stmdaeq	r0, {r2, r4, r5, r6, r7}
     754:	00000330 	andeq	r0, r0, r0, lsr r3
     758:	0000f805 	andeq	pc, r0, r5, lsl #16
     75c:	0001db08 	andeq	sp, r1, r8, lsl #22
     760:	00fc0500 	rscseq	r0, ip, r0, lsl #10
     764:	01d40800 	bicseq	r0, r4, r0, lsl #16
     768:	00050000 	andeq	r0, r5, r0
     76c:	e5080001 	str	r0, [r8, #-1]
     770:	05000002 	streq	r0, [r0, #-2]
     774:	08000124 	stmdaeq	r0, {r2, r5, r8}
     778:	000001cd 	andeq	r0, r0, sp, asr #3
     77c:	00012c23 	andeq	r2, r1, r3, lsr #24
     780:	00028f08 	andeq	r8, r2, r8, lsl #30
     784:	4a070000 	bmi	1c078c <_binary_assets_romhdr_bin_size+0x1c06cd>
     788:	39000003 	stmdbcc	r0, {r0, r1}
     78c:	08000424 	stmdaeq	r0, {r2, r5, sl}
     790:	0000006c 	andeq	r0, r0, ip, rrx
     794:	02e59c01 	rsceq	r9, r5, #256	@ 0x100
     798:	0b240000 	bleq	9007a0 <_binary_assets_romhdr_bin_size+0x9006e1>
     79c:	24000003 	strcs	r0, [r0], #-3
     7a0:	02080004 	andeq	r0, r8, #4
     7a4:	00000064 	andeq	r0, r0, r4, rrx
     7a8:	d5023a01 	strle	r3, [r2, #-2561]	@ 0xfffff5ff
     7ac:	0b000002 	bleq	7bc <_binary_assets_romhdr_bin_size+0x6fd>
     7b0:	00000315 	andeq	r0, r0, r5, lsl r3
     7b4:	00031f0c 	andeq	r1, r3, ip, lsl #30
     7b8:	00007300 	andeq	r7, r0, r0, lsl #6
     7bc:	03200d00 			@ <UNDEFINED> instruction: 0x03200d00
     7c0:	00d50000 	sbcseq	r0, r5, r0
     7c4:	00c50000 	sbceq	r0, r5, r0
     7c8:	00000000 	andeq	r0, r0, r0
     7cc:	00048409 	andeq	r8, r4, r9, lsl #8
     7d0:	0001e208 	andeq	lr, r1, r8, lsl #4
     7d4:	50010200 	andpl	r0, r1, r0, lsl #4
     7d8:	00003001 	andeq	r3, r0, r1
     7dc:	00044c07 	andeq	r4, r4, r7, lsl #24
     7e0:	03f03100 	mvnseq	r3, #0, 2
     7e4:	00340800 	eorseq	r0, r4, r0, lsl #16
     7e8:	9c010000 	stcls	0, cr0, [r1], {-0}
     7ec:	0000030b 	andeq	r0, r0, fp, lsl #6
     7f0:	00041409 	andeq	r1, r4, r9, lsl #8
     7f4:	0001f308 	andeq	pc, r1, r8, lsl #6
     7f8:	50010200 	andpl	r0, r1, r0, lsl #4
     7fc:	11050a03 	tstne	r5, r3, lsl #20
     800:	e9110000 	ldmdb	r1, {}	@ <UNPREDICTABLE>
     804:	28000002 	stmdacs	r0, {r1}
     808:	0000032a 	andeq	r0, r0, sl, lsr #6
     80c:	0002b112 	andeq	fp, r2, r2, lsl r1
     810:	032a2900 			@ <UNDEFINED> instruction: 0x032a2900
     814:	14130000 	ldrne	r0, [r3], #-0
     818:	872b0069 	strhi	r0, [fp, -r9, rrx]!
     81c:	00000000 	andeq	r0, r0, r0
     820:	af042500 	svcge	0x00042500
     824:	11000001 	tstne	r0, r1
     828:	00000358 	andeq	r0, r0, r8, asr r3
     82c:	00034f1b 	andeq	r4, r3, fp, lsl pc
     830:	02b11200 	adcseq	r1, r1, #0, 4
     834:	2a1c0000 	bcs	70083c <_binary_assets_romhdr_bin_size+0x70077d>
     838:	13000003 	tstne	r0, #3
     83c:	1e006914 			@ <UNDEFINED> instruction: 0x1e006914
     840:	00000087 	andeq	r0, r0, r7, lsl #1
     844:	bd070000 	stclt	0, cr0, [r7, #-0]
     848:	14000003 	strne	r0, [r0], #-3
     84c:	08000310 	stmdaeq	r0, {r4, r8, r9}
     850:	00000030 	andeq	r0, r0, r0, lsr r0
     854:	03b49c01 			@ <UNDEFINED> instruction: 0x03b49c01
     858:	200e0000 	andcs	r0, lr, r0
     85c:	04080003 	streq	r0, [r8], #-3
     860:	7f000002 	svcvc	0x00000002
     864:	02000003 	andeq	r0, r0, #3
     868:	48035001 	stmdami	r3, {r0, ip, lr}
     86c:	01022446 	tsteq	r2, r6, asr #8
     870:	3c480351 	stclcc	3, cr0, [r8], {81}	@ 0x51
     874:	2c0e0024 	stccs	0, cr0, [lr], {36}	@ 0x24
     878:	04080003 	streq	r0, [r8], #-3
     87c:	9b000002 	blls	88c <_binary_assets_romhdr_bin_size+0x7cd>
     880:	02000003 	andeq	r0, r0, #3
     884:	44035001 	strmi	r5, [r3], #-1
     888:	01022446 	tsteq	r2, r6, asr #8
     88c:	000a0351 	andeq	r0, sl, r1, asr r3
     890:	38090004 	stmdacc	r9, {r2}
     894:	04080003 	streq	r0, [r8], #-3
     898:	02000002 	andeq	r0, r0, #2
     89c:	4c035001 	stcmi	0, cr5, [r3], {1}
     8a0:	01022446 	tsteq	r2, r6, asr #8
     8a4:	000a0351 	andeq	r0, sl, r1, asr r3
     8a8:	07000004 	streq	r0, [r0, -r4]
     8ac:	000003e7 	andeq	r0, r0, r7, ror #7
     8b0:	0002e40e 	andeq	lr, r2, lr, lsl #8
     8b4:	00002c08 	andeq	r2, r0, r8, lsl #24
     8b8:	ff9c0100 			@ <UNDEFINED> instruction: 0xff9c0100
     8bc:	0e000003 	cdpeq	0, 0, cr0, cr0, cr3, {0}
     8c0:	080002f4 	stmdaeq	r0, {r2, r4, r5, r6, r7, r9}
     8c4:	0000021c 	andeq	r0, r0, ip, lsl r2
     8c8:	000003e4 	andeq	r0, r0, r4, ror #7
     8cc:	03500102 	cmpeq	r0, #-2147483648	@ 0x80000000
     8d0:	02244540 	eoreq	r4, r4, #64, 10	@ 0x10000000
     8d4:	40035101 	andmi	r5, r3, r1, lsl #2
     8d8:	0900243e 	stmdbeq	r0, {r1, r2, r3, r4, r5, sl, sp}
     8dc:	08000300 	stmdaeq	r0, {r8, r9}
     8e0:	0000021c 	andeq	r0, r0, ip, lsl r2
     8e4:	05500102 	ldrbeq	r0, [r0, #-258]	@ 0xfffffefe
     8e8:	0000080c 	andeq	r0, r0, ip, lsl #16
     8ec:	51010203 	tstpl	r1, r3, lsl #4
     8f0:	7d980a03 	vldrvc	s0, [r8, #12]
     8f4:	30260000 	eorcc	r0, r6, r0
     8f8:	40000003 	andmi	r0, r0, r3
     8fc:	60080003 	andvs	r0, r8, r3
     900:	01000000 	mrseq	r0, (UNDEF: 0)
     904:	0004599c 	muleq	r4, ip, r9
     908:	033a0b00 	teqeq	sl, #0, 22
     90c:	44270000 	strtmi	r0, [r7], #-0
     910:	34000003 	strcc	r0, [r0], #-3
     914:	32000000 	andcc	r0, r0, #0
     918:	0d000004 	stceq	0, cr0, [r0, #-16]
     91c:	00000345 	andeq	r0, r0, r5, asr #6
     920:	00000113 	andeq	r0, r0, r3, lsl r1
     924:	0000010b 	andeq	r0, r0, fp, lsl #2
     928:	03302800 	teqeq	r0, #0, 16
     92c:	03800000 	orreq	r0, r0, #0
     930:	40000800 	andmi	r0, r0, r0, lsl #16
     934:	01000000 	mrseq	r0, (UNDEF: 0)
     938:	3a15061b 	bcc	5421ac <_binary_assets_romhdr_bin_size+0x5420ed>
     93c:	0c000003 	stceq	0, cr0, [r0], {3}
     940:	00000344 	andeq	r0, r0, r4, asr #6
     944:	0000004c 	andeq	r0, r0, ip, asr #32
     948:	00034515 	andeq	r4, r3, r5, lsl r5
     94c:	00000000 	andeq	r0, r0, r0
     950:	00030b29 	andeq	r0, r3, r9, lsr #22
     954:	0003a000 	andeq	sl, r3, r0
     958:	00005008 	andeq	r5, r0, r8
     95c:	0b9c0100 	bleq	fe700d64 <IntrRet+0xf66fe67c>
     960:	00000315 	andeq	r0, r0, r5, lsl r3
     964:	00031f0c 	andeq	r1, r3, ip, lsl #30
     968:	00005800 	andeq	r5, r0, r0, lsl #16
     96c:	03200d00 			@ <UNDEFINED> instruction: 0x03200d00
     970:	014f0000 	mrseq	r0, SPSR
     974:	013d0000 	teqeq	sp, r0
     978:	00000000 	andeq	r0, r0, r0
     97c:	0001f500 	andeq	pc, r1, r0, lsl #10
     980:	01000500 	tsteq	r0, r0, lsl #10
     984:	00055e04 	andeq	r5, r5, r4, lsl #28
     988:	01370800 	teqeq	r7, r0, lsl #16
     98c:	031d0000 	tsteq	sp, #0
     990:	00031647 	andeq	r1, r3, r7, asr #12
     994:	00000477 	andeq	r0, r0, r7, ror r4
     998:	000000f9 			@ <UNDEFINED> instruction: 0x000000f9
     99c:	08000490 	stmdaeq	r0, {r4, r7, sl}
     9a0:	000001a8 	andeq	r0, r0, r8, lsr #3
     9a4:	000007ce 	andeq	r0, r0, lr, asr #15
     9a8:	42060101 	andmi	r0, r6, #1073741824	@ 0x40000000
     9ac:	01000000 	mrseq	r0, (UNDEF: 0)
     9b0:	00950502 	addseq	r0, r5, r2, lsl #10
     9b4:	04010000 	streq	r0, [r1], #-0
     9b8:	00012205 	andeq	r2, r1, r5, lsl #4
     9bc:	05080100 	streq	r0, [r8, #-256]	@ 0xffffff00
     9c0:	0000011d 	andeq	r0, r0, sp, lsl r1
     9c4:	40080101 	andmi	r0, r8, r1, lsl #2
     9c8:	01000000 	mrseq	r0, (UNDEF: 0)
     9cc:	00560702 	subseq	r0, r6, r2, lsl #14
     9d0:	ab090000 	blge	2409d8 <_binary_assets_romhdr_bin_size+0x240919>
     9d4:	02000008 	andeq	r0, r0, #8
     9d8:	00661934 	rsbeq	r1, r6, r4, lsr r9
     9dc:	55050000 	strpl	r0, [r5, #-0]
     9e0:	01000000 	mrseq	r0, (UNDEF: 0)
     9e4:	00d30704 	sbcseq	r0, r3, r4, lsl #14
     9e8:	08010000 	stmdaeq	r1, {}	@ <UNPREDICTABLE>
     9ec:	0000ce07 	andeq	ip, r0, r7, lsl #28
     9f0:	05040a00 	streq	r0, [r4, #-2560]	@ 0xfffff600
     9f4:	00746e69 	rsbseq	r6, r4, r9, ror #28
     9f8:	d8070401 	stmdale	r7, {r0, sl}
     9fc:	06000000 	streq	r0, [r0], -r0
     a00:	00000055 	andeq	r0, r0, r5, asr r0
     a04:	00000093 	muleq	r0, r3, r0
     a08:	00007b0b 	andeq	r7, r0, fp, lsl #22
     a0c:	00027000 	andeq	r7, r2, r0
     a10:	00048903 	andeq	r8, r4, r3, lsl #18
     a14:	820a0400 	andhi	r0, sl, #0, 8
     a18:	05000000 	streq	r0, [r0, #-0]
     a1c:	00000403 	andeq	r0, r0, r3, lsl #8
     a20:	04680303 	strbteq	r0, [r8], #-771	@ 0xfffffcfd
     a24:	0a050000 	beq	140a2c <_binary_assets_romhdr_bin_size+0x14096d>
     a28:	00000055 	andeq	r0, r0, r5, asr r0
     a2c:	09c80305 	stmibeq	r8, {r0, r2, r8, r9}^
     a30:	61060300 	mrsvs	r0, LR_und
     a34:	c5000000 	strgt	r0, [r0, #-0]
     a38:	0c000000 	stceq	0, cr0, [r0], {-0}
     a3c:	0000007b 	andeq	r0, r0, fp, ror r0
     a40:	b50500ff 	strlt	r0, [r5, #-255]	@ 0xffffff01
     a44:	03000000 	tsteq	r0, #0
     a48:	0000049d 	muleq	r0, sp, r4
     a4c:	00c51006 	sbceq	r1, r5, r6
     a50:	03050000 	tsteq	r5, #0
     a54:	08002250 	stmdaeq	r0, {r4, r6, r9, sp}
     a58:	0004940d 	andeq	r9, r4, sp, lsl #8
     a5c:	0a1a0100 	beq	680e64 <_binary_assets_romhdr_bin_size+0x680da5>
     a60:	00000055 	andeq	r0, r0, r5, asr r0
     a64:	080004ec 	stmdaeq	r0, {r2, r3, r5, r6, r7, sl}
     a68:	0000014c 	andeq	r0, r0, ip, asr #2
     a6c:	017f9c01 	cmneq	pc, r1, lsl #24
     a70:	70020000 	andvc	r0, r2, r0
     a74:	7f0f1b00 	svcvc	0x000f1b00
     a78:	a5000001 	strge	r0, [r0, #-1]
     a7c:	97000001 	strls	r0, [r0, -r1]
     a80:	02000001 	andeq	r0, r0, #1
     a84:	1c003270 	stcne	2, cr3, [r0], {112}	@ 0x70
     a88:	00017f0f 	andeq	r7, r1, pc, lsl #30
     a8c:	0001f400 	andeq	pc, r1, r0, lsl #8
     a90:	0001ee00 	andeq	lr, r1, r0, lsl #28
     a94:	00760200 	rsbseq	r0, r6, r0, lsl #4
     a98:	00550e37 	subseq	r0, r5, r7, lsr lr
     a9c:	022a0000 	eoreq	r0, sl, #0
     aa0:	02220000 	eoreq	r0, r2, #0
     aa4:	a30e0000 	tstge	lr, #0
     aa8:	02000000 	andeq	r0, r0, #0
     aac:	12210069 	eorne	r0, r1, #105	@ 0x69
     ab0:	00000055 	andeq	r0, r0, r5, asr r0
     ab4:	00000257 	andeq	r0, r0, r7, asr r2
     ab8:	00000255 	andeq	r0, r0, r5, asr r2
     abc:	0001850f 	andeq	r8, r1, pc, lsl #10
     ac0:	0005d400 	andeq	sp, r5, r0, lsl #8
     ac4:	00006408 	andeq	r6, r0, r8, lsl #8
     ac8:	0d1f0100 	ldceq	1, cr0, [pc, #-0]	@ ad0 <_binary_assets_romhdr_bin_size+0xa11>
     acc:	00019207 	andeq	r9, r1, r7, lsl #4
     ad0:	00026600 	andeq	r6, r2, r0, lsl #12
     ad4:	00026000 	andeq	r6, r2, r0
     ad8:	019e0400 	orrseq	r0, lr, r0, lsl #8
     adc:	02800000 	addeq	r0, r0, #0
     ae0:	027e0000 	rsbseq	r0, lr, #0
     ae4:	aa100000 	bge	400aec <_binary_assets_romhdr_bin_size+0x400a2d>
     ae8:	d4000001 	strle	r0, [r0], #-1
     aec:	34080005 	strcc	r0, [r8], #-5
     af0:	11000000 	mrsne	r0, (UNDEF: 0)
     af4:	000001ab 	andeq	r0, r0, fp, lsr #3
     af8:	00000000 	andeq	r0, r0, r0
     afc:	00550412 	subseq	r0, r5, r2, lsl r4
     b00:	dd130000 	ldcle	0, cr0, [r3, #-0]
     b04:	01000003 	tsteq	r0, r3
     b08:	b701060e 	strlt	r0, [r1, -lr, lsl #12]
     b0c:	14000001 	strne	r0, [r0], #-1
     b10:	00000462 	andeq	r0, r0, r2, ror #8
     b14:	55190e01 	ldrpl	r0, [r9, #-3585]	@ 0xfffff1ff
     b18:	15000000 	strne	r0, [r0, #-0]
     b1c:	00000463 	andeq	r0, r0, r3, ror #8
     b20:	550e0f01 	strpl	r0, [lr, #-3841]	@ 0xfffff0ff
     b24:	16000000 	strne	r0, [r0], -r0
     b28:	01006917 	tsteq	r0, r7, lsl r9
     b2c:	00740d11 	rsbseq	r0, r4, r1, lsl sp
     b30:	00000000 	andeq	r0, r0, r0
     b34:	00018518 	andeq	r8, r1, r8, lsl r5
     b38:	00049000 	andeq	r9, r4, r0
     b3c:	00005c08 	andeq	r5, r0, r8, lsl #24
     b40:	079c0100 	ldreq	r0, [ip, r0, lsl #2]
     b44:	00000192 	muleq	r0, r2, r1
     b48:	0000028c 	andeq	r0, r0, ip, lsl #5
     b4c:	00000288 	andeq	r0, r0, r8, lsl #5
     b50:	00019e04 	andeq	r9, r1, r4, lsl #28
     b54:	00029900 	andeq	r9, r2, r0, lsl #18
     b58:	00029700 	andeq	r9, r2, r0, lsl #14
     b5c:	01aa1900 			@ <UNDEFINED> instruction: 0x01aa1900
     b60:	009c0000 	addseq	r0, ip, r0
     b64:	ab040000 	blge	100b6c <_binary_assets_romhdr_bin_size+0x100aad>
     b68:	a1000001 	tstge	r0, r1
     b6c:	9f000002 	svcls	0x00000002
     b70:	00000002 	andeq	r0, r0, r2
     b74:	00bb0000 	adcseq	r0, fp, r0
     b78:	00050000 	andeq	r0, r5, r0
     b7c:	06af0401 	strteq	r0, [pc], r1, lsl #8
     b80:	37030000 	strcc	r0, [r3, -r0]
     b84:	1d000001 	stcne	0, cr0, [r0, #-4]
     b88:	03164703 	tsteq	r6, #786432	@ 0xc0000
     b8c:	0004ad00 	andeq	sl, r4, r0, lsl #26
     b90:	0000f900 	andeq	pc, r0, r0, lsl #18
     b94:	00063800 	andeq	r3, r6, r0, lsl #16
     b98:	00001008 	andeq	r1, r0, r8
     b9c:	0009d100 	andeq	sp, r9, r0, lsl #2
     ba0:	07080100 	streq	r0, [r8, -r0, lsl #2]
     ba4:	000000ce 	andeq	r0, r0, lr, asr #1
     ba8:	d8070401 	stmdale	r7, {r0, sl}
     bac:	01000000 	mrseq	r0, (UNDEF: 0)
     bb0:	00420601 	subeq	r0, r2, r1, lsl #12
     bb4:	02010000 	andeq	r0, r1, #0
     bb8:	00009505 	andeq	r9, r0, r5, lsl #10
     bbc:	05040100 	streq	r0, [r4, #-256]	@ 0xffffff00
     bc0:	00000122 	andeq	r0, r0, r2, lsr #2
     bc4:	1d050801 	stcne	8, cr0, [r5, #-4]
     bc8:	01000001 	tsteq	r0, r1
     bcc:	00400801 	subeq	r0, r0, r1, lsl #16
     bd0:	02010000 	andeq	r0, r1, #0
     bd4:	00005607 	andeq	r5, r0, r7, lsl #12
     bd8:	08ab0400 	stmiaeq	fp!, {sl}
     bdc:	34020000 	strcc	r0, [r2], #-0
     be0:	00006f19 	andeq	r6, r0, r9, lsl pc
     be4:	07040100 	streq	r0, [r4, -r0, lsl #2]
     be8:	000000d3 			@ <UNDEFINED> instruction: 0x000000d3
     bec:	69050405 	stmdbvs	r5, {r0, r2, sl}
     bf0:	0600746e 	streq	r7, [r0], -lr, ror #8
     bf4:	000004c1 	andeq	r0, r0, r1, asr #9
     bf8:	bc070401 	stclt	4, cr0, [r7], {1}
     bfc:	38000000 	stmdacc	r0, {}	@ <UNPREDICTABLE>
     c00:	10080006 	andne	r0, r8, r6
     c04:	01000000 	mrseq	r0, (UNDEF: 0)
     c08:	0000bc9c 	muleq	r0, ip, ip
     c0c:	62740200 	rsbsvs	r0, r4, #0, 4
     c10:	bc1d006c 	ldclt	0, cr0, [sp], {108}	@ 0x6c
     c14:	b8000000 	stmdalt	r0, {}	@ <UNPREDICTABLE>
     c18:	b4000002 	strlt	r0, [r0], #-2
     c1c:	02000002 	andeq	r0, r0, #2
     c20:	00786469 	rsbseq	r6, r8, r9, ror #8
     c24:	0000632b 	andeq	r6, r0, fp, lsr #6
     c28:	0002d000 	andeq	sp, r2, r0
     c2c:	0002cc00 	andeq	ip, r2, r0, lsl #24
     c30:	04070000 	streq	r0, [r7], #-0
     c34:	00014300 	andeq	r4, r1, r0, lsl #6
     c38:	01000500 	tsteq	r0, r0, lsl #10
     c3c:	00072804 	andeq	r2, r7, r4, lsl #16
     c40:	01370500 	teqeq	r7, r0, lsl #10
     c44:	031d0000 	tsteq	sp, #0
     c48:	00031647 	andeq	r1, r3, r7, asr #12
     c4c:	000004d9 			@ <UNDEFINED> instruction: 0x000004d9
     c50:	000000f9 			@ <UNDEFINED> instruction: 0x000000f9
     c54:	08000648 	stmdaeq	r0, {r3, r6, r9, sl}
     c58:	00000030 	andeq	r0, r0, r0, lsr r0
     c5c:	00000a70 	andeq	r0, r0, r0, ror sl
     c60:	42060101 	andmi	r0, r6, #1073741824	@ 0x40000000
     c64:	01000000 	mrseq	r0, (UNDEF: 0)
     c68:	00950502 	addseq	r0, r5, r2, lsl #10
     c6c:	04010000 	streq	r0, [r1], #-0
     c70:	00012205 	andeq	r2, r1, r5, lsl #4
     c74:	05080100 	streq	r0, [r8, #-256]	@ 0xffffff00
     c78:	0000011d 	andeq	r0, r0, sp, lsl r1
     c7c:	00037603 	andeq	r7, r3, r3, lsl #12
     c80:	182e0200 	stmdane	lr!, {r9}
     c84:	00000053 	andeq	r0, r0, r3, asr r0
     c88:	40080101 	andmi	r0, r8, r1, lsl #2
     c8c:	03000000 	tsteq	r0, #0
     c90:	00000989 	andeq	r0, r0, r9, lsl #19
     c94:	66193102 	ldrvs	r3, [r9], -r2, lsl #2
     c98:	01000000 	mrseq	r0, (UNDEF: 0)
     c9c:	00560702 	subseq	r0, r6, r2, lsl #14
     ca0:	04010000 	streq	r0, [r1], #-0
     ca4:	0000d307 	andeq	sp, r0, r7, lsl #6
     ca8:	07080100 	streq	r0, [r8, -r0, lsl #2]
     cac:	000000ce 	andeq	r0, r0, lr, asr #1
     cb0:	69050406 	stmdbvs	r5, {r1, r2, sl}
     cb4:	0100746e 	tsteq	r0, lr, ror #8
     cb8:	00d80704 	sbcseq	r0, r8, r4, lsl #14
     cbc:	10070000 	andne	r0, r7, r0
     cc0:	eb090603 	bl	2424d4 <_binary_assets_romhdr_bin_size+0x242415>
     cc4:	02000000 	andeq	r0, r0, #0
     cc8:	000004d1 			@ <UNDEFINED> instruction: 0x000004d1
     ccc:	00005a07 	andeq	r5, r0, r7, lsl #20
     cd0:	33020000 	tstcc	r2, #0
     cd4:	08000005 	stmdaeq	r0, {r0, r2}
     cd8:	0000005a 	andeq	r0, r0, sl, asr r0
     cdc:	05000202 	streq	r0, [r0, #-514]	@ 0xfffffdfe
     ce0:	5a090000 	bpl	240ce8 <_binary_assets_romhdr_bin_size+0x240c29>
     ce4:	04000000 	streq	r0, [r0], #-0
     ce8:	00050f02 	andeq	r0, r5, r2, lsl #30
     cec:	005a0a00 	subseq	r0, sl, r0, lsl #20
     cf0:	02060000 	andeq	r0, r6, #0
     cf4:	000004fb 			@ <UNDEFINED> instruction: 0x000004fb
     cf8:	00005a0b 	andeq	r5, r0, fp, lsl #20
     cfc:	2d020800 	stccs	8, cr0, [r2, #-0]
     d00:	0c000005 	stceq	0, cr0, [r0], {5}
     d04:	0000005a 	andeq	r0, r0, sl, asr r0
     d08:	0517020a 	ldreq	r0, [r7, #-522]	@ 0xfffffdf6
     d0c:	5a0d0000 	bpl	340d14 <_binary_assets_romhdr_bin_size+0x340c55>
     d10:	0c000000 	stceq	0, cr0, [r0], {-0}
     d14:	00037002 	andeq	r7, r3, r2
     d18:	00470e00 	subeq	r0, r7, r0, lsl #28
     d1c:	000e0000 	andeq	r0, lr, r0
     d20:	00053803 	andeq	r3, r5, r3, lsl #16
     d24:	030f0300 	tsteq	pc, #0, 6
     d28:	00000089 	andeq	r0, r0, r9, lsl #1
     d2c:	0004ec08 	andeq	lr, r4, r8, lsl #24
     d30:	16110300 	ldrne	r0, [r1], -r0, lsl #6
     d34:	000000eb 	andeq	r0, r0, fp, ror #1
     d38:	0000f709 	andeq	pc, r0, r9, lsl #14
     d3c:	0f030100 	svceq	0x00030100
     d40:	09cc0305 	stmibeq	ip, {r0, r2, r8, r9}^
     d44:	060a0300 	streq	r0, [sl], -r0, lsl #6
     d48:	01000005 	tsteq	r0, r5
     d4c:	06480605 	strbeq	r0, [r8], -r5, lsl #12
     d50:	00300800 	eorseq	r0, r0, r0, lsl #16
     d54:	9c010000 	stcls	0, cr0, [r1], {-0}
     d58:	00000140 	andeq	r0, r0, r0, asr #2
     d5c:	00048e04 	andeq	r8, r4, r4, lsl #28
     d60:	01401e00 	cmpeq	r0, r0, lsl #28
     d64:	50010000 	andpl	r0, r1, r0
     d68:	00050f04 	andeq	r0, r5, r4, lsl #30
     d6c:	005a2e00 	subseq	r2, sl, r0, lsl #28
     d70:	51010000 	mrspl	r0, (UNDEF: 1)
     d74:	eb040b00 	bl	10397c <_binary_assets_romhdr_bin_size+0x1038bd>
     d78:	00000000 	andeq	r0, r0, r0
     d7c:	0000024a 	andeq	r0, r0, sl, asr #4
     d80:	04010005 	streq	r0, [r1], #-5
     d84:	000007e2 	andeq	r0, r0, r2, ror #15
     d88:	0001370a 	andeq	r3, r1, sl, lsl #14
     d8c:	47031d00 	strmi	r1, [r3, -r0, lsl #26]
     d90:	8a000316 	bhi	19f0 <_binary_assets_romhdr_bin_size+0x1931>
     d94:	f9000005 			@ <UNDEFINED> instruction: 0xf9000005
     d98:	78000000 	stmdavc	r0, {}	@ <UNPREDICTABLE>
     d9c:	98080006 	stmdals	r8, {r1, r2}
     da0:	4f000000 	svcmi	0x00000000
     da4:	0100000b 	tsteq	r0, fp
     da8:	00ce0708 	sbceq	r0, lr, r8, lsl #14
     dac:	04010000 	streq	r0, [r1], #-0
     db0:	0000d807 	andeq	sp, r0, r7, lsl #16
     db4:	06010100 	streq	r0, [r1], -r0, lsl #2
     db8:	00000042 	andeq	r0, r0, r2, asr #32
     dbc:	95050201 	strls	r0, [r5, #-513]	@ 0xfffffdff
     dc0:	01000000 	mrseq	r0, (UNDEF: 0)
     dc4:	01220504 			@ <UNDEFINED> instruction: 0x01220504
     dc8:	08010000 	stmdaeq	r1, {}	@ <UNPREDICTABLE>
     dcc:	00011d05 	andeq	r1, r1, r5, lsl #26
     dd0:	03760400 	cmneq	r6, #0, 8
     dd4:	2e020000 	cdpcs	0, 0, cr0, cr2, cr0, {0}
     dd8:	00006118 	andeq	r6, r0, r8, lsl r1
     ddc:	08010100 	stmdaeq	r1, {r8}
     de0:	00000040 	andeq	r0, r0, r0, asr #32
     de4:	00098904 	andeq	r8, r9, r4, lsl #18
     de8:	19310200 	ldmdbne	r1!, {r9}
     dec:	00000074 	andeq	r0, r0, r4, ror r0
     df0:	56070201 	strpl	r0, [r7], -r1, lsl #4
     df4:	04000000 	streq	r0, [r0], #-0
     df8:	000008ab 	andeq	r0, r0, fp, lsr #17
     dfc:	87193402 	ldrhi	r3, [r9, -r2, lsl #8]
     e00:	01000000 	mrseq	r0, (UNDEF: 0)
     e04:	00d30704 	sbcseq	r0, r3, r4, lsl #14
     e08:	040b0000 	streq	r0, [fp], #-0
     e0c:	746e6905 	strbtvc	r6, [lr], #-2309	@ 0xfffff6fb
     e10:	030e0c00 	tsteq	lr, #0, 24
     e14:	00ec0906 	rsceq	r0, ip, r6, lsl #18
     e18:	4d030000 	stcmi	0, cr0, [r3, #-0]
     e1c:	07000005 	streq	r0, [r0, -r5]
     e20:	00000068 	andeq	r0, r0, r8, rrx
     e24:	057e0300 	ldrbeq	r0, [lr, #-768]!	@ 0xfffffd00
     e28:	68080000 	stmdavs	r8, {}	@ <UNPREDICTABLE>
     e2c:	02000000 	andeq	r0, r0, #0
     e30:	00056803 	andeq	r6, r5, r3, lsl #16
     e34:	00680900 	rsbeq	r0, r8, r0, lsl #18
     e38:	03040000 	tsteq	r4, #0
     e3c:	00000583 	andeq	r0, r0, r3, lsl #11
     e40:	0000680a 	andeq	r6, r0, sl, lsl #16
     e44:	ac030600 	stcge	6, cr0, [r3], {-0}
     e48:	0b000005 	bleq	e64 <_binary_assets_romhdr_bin_size+0xda5>
     e4c:	00000068 	andeq	r0, r0, r8, rrx
     e50:	05460308 	strbeq	r0, [r6, #-776]	@ 0xfffffcf8
     e54:	680c0000 	stmdavs	ip, {}	@ <UNPREDICTABLE>
     e58:	0a000000 	beq	e60 <_binary_assets_romhdr_bin_size+0xda1>
     e5c:	00056103 	andeq	r6, r5, r3, lsl #2
     e60:	00680d00 	rsbeq	r0, r8, r0, lsl #26
     e64:	000c0000 	andeq	r0, ip, r0
     e68:	00055604 	andeq	r5, r5, r4, lsl #12
     e6c:	030e0300 	tsteq	lr, #0, 6
     e70:	00000095 	muleq	r0, r5, r0
     e74:	00057006 	andeq	r7, r5, r6
     e78:	ec131000 	ldc	0, cr1, [r3], {-0}
     e7c:	0d000000 	stceq	0, cr0, [r0, #-0]
     e80:	00000114 	andeq	r0, r0, r4, lsl r1
     e84:	00000114 	andeq	r0, r0, r4, lsl r1
     e88:	0000320e 	andeq	r3, r0, lr, lsl #4
     e8c:	002aff00 	eoreq	pc, sl, r0, lsl #30
     e90:	49080101 	stmdbmi	r8, {r0, r8}
     e94:	06000000 	streq	r0, [r0], -r0
     e98:	0000059b 	muleq	r0, fp, r5
     e9c:	01030d11 	tsteq	r3, r1, lsl sp
     ea0:	f8070000 			@ <UNDEFINED> instruction: 0xf8070000
     ea4:	05000000 	streq	r0, [r0, #-0]
     ea8:	dc03050c 	stcle	5, cr0, [r3], {12}
     eac:	07030034 			@ <UNDEFINED> instruction: 0x07030034
     eb0:	0000011b 	andeq	r0, r0, fp, lsl r1
     eb4:	03050606 	tsteq	r5, #6291456	@ 0x600000
     eb8:	030009dc 	tsteq	r0, #220, 18	@ 0x370000
     ebc:	0002350f 	andeq	r3, r2, pc, lsl #10
     ec0:	06060400 	streq	r0, [r6], -r0, lsl #8
     ec4:	00000157 	andeq	r0, r0, r7, asr r1
     ec8:	00015708 	andeq	r5, r1, r8, lsl #14
     ecc:	007b0800 	rsbseq	r0, fp, r0, lsl #16
     ed0:	10000000 	andne	r0, r0, r0
     ed4:	05c10904 	strbeq	r0, [r1, #2308]	@ 0x904
     ed8:	94130000 	ldrls	r0, [r3], #-0
     edc:	7c080006 	stcvc	0, cr0, [r8], {6}
     ee0:	01000000 	mrseq	r0, (UNDEF: 0)
     ee4:	0002089c 	muleq	r2, ip, r8
     ee8:	05a41100 	streq	r1, [r4, #256]!	@ 0x100
     eec:	13010000 	tstne	r1, #0
     ef0:	0001571e 	andeq	r5, r1, lr, lsl r7
     ef4:	0002f100 	andeq	pc, r2, r0, lsl #2
     ef8:	0002e900 	andeq	lr, r2, r0, lsl #18
     efc:	06c00500 	strbeq	r0, [r0], r0, lsl #10
     f00:	01400800 	cmpeq	r0, r0, lsl #16
     f04:	019c0000 	orrseq	r0, ip, r0
     f08:	01020000 	mrseq	r0, (UNDEF: 2)
     f0c:	00740250 	rsbseq	r0, r4, r0, asr r2
     f10:	03510102 	cmpeq	r1, #-2147483648	@ 0x80000000
     f14:	0008000a 	andeq	r0, r8, sl
     f18:	0006cc05 	andeq	ip, r6, r5, lsl #24
     f1c:	00014008 	andeq	r4, r1, r8
     f20:	0001b800 	andeq	fp, r1, r0, lsl #16
     f24:	50010200 	andpl	r0, r1, r0, lsl #4
     f28:	10807403 	addne	r7, r0, r3, lsl #8
     f2c:	03510102 	cmpeq	r1, #-2147483648	@ 0x80000000
     f30:	0008000a 	andeq	r0, r8, sl
     f34:	0006d805 	andeq	sp, r6, r5, lsl #16
     f38:	00014008 	andeq	r4, r1, r8
     f3c:	0001d400 	andeq	sp, r1, r0, lsl #8
     f40:	50010200 	andpl	r0, r1, r0, lsl #4
     f44:	20807403 	addcs	r7, r0, r3, lsl #8
     f48:	03510102 	cmpeq	r1, #-2147483648	@ 0x80000000
     f4c:	0008000a 	andeq	r0, r8, sl
     f50:	0006e805 	andeq	lr, r6, r5, lsl #16
     f54:	00014008 	andeq	r4, r1, r8
     f58:	0001f000 	andeq	pc, r1, r0
     f5c:	50010200 	andpl	r0, r1, r0, lsl #4
     f60:	62807403 	addvs	r7, r0, #50331648	@ 0x3000000
     f64:	03510102 	cmpeq	r1, #-2147483648	@ 0x80000000
     f68:	0008000a 	andeq	r0, r8, sl
     f6c:	0006f412 	andeq	pc, r6, r2, lsl r4	@ <UNPREDICTABLE>
     f70:	00014008 	andeq	r4, r1, r8
     f74:	50010200 	andpl	r0, r1, r0, lsl #4
     f78:	02007402 	andeq	r7, r0, #33554432	@ 0x2000000
     f7c:	0a035101 	beq	d5388 <_binary_assets_romhdr_bin_size+0xd52c9>
     f80:	00000400 	andeq	r0, r0, r0, lsl #8
     f84:	0005b309 	andeq	fp, r5, r9, lsl #6
     f88:	06780900 	ldrbteq	r0, [r8], -r0, lsl #18
     f8c:	001c0800 	andseq	r0, ip, r0, lsl #16
     f90:	9c010000 	stcls	0, cr0, [r1], {-0}
     f94:	00000247 	andeq	r0, r0, r7, asr #4
     f98:	00057913 	andeq	r7, r5, r3, lsl r9
     f9c:	20090100 	andcs	r0, r9, r0, lsl #2
     fa0:	00000247 	andeq	r0, r0, r7, asr #4
     fa4:	80145001 	andshi	r5, r4, r1
     fa8:	10080006 	andne	r0, r8, r6
     fac:	15000000 	strne	r0, [r0, #-0]
     fb0:	0e010069 	cdpeq	0, 0, cr0, cr1, cr9, {3}
     fb4:	00008e0d 	andeq	r8, r0, sp, lsl #28
     fb8:	00032000 	andeq	r2, r3, r0
     fbc:	00031600 	andeq	r1, r3, r0, lsl #12
     fc0:	16000000 	strne	r0, [r0], -r0
     fc4:	0000ec04 	andeq	lr, r0, r4, lsl #24
     fc8:	02160000 	andseq	r0, r6, #0
     fcc:	00050000 	andeq	r0, r5, r0
     fd0:	09210401 	stmdbeq	r1!, {r0, sl}
     fd4:	370a0000 	strcc	r0, [sl, -r0]
     fd8:	1d000001 	stcne	0, cr0, [r0, #-4]
     fdc:	03164703 	tsteq	r6, #786432	@ 0xc0000
     fe0:	0005d300 	andeq	sp, r5, r0, lsl #6
     fe4:	0000f900 	andeq	pc, r0, r0, lsl #18
     fe8:	00071000 	andeq	r1, r7, r0
     fec:	00003408 	andeq	r3, r0, r8, lsl #8
     ff0:	000cdb00 	andeq	sp, ip, r0, lsl #22
     ff4:	06010200 	streq	r0, [r1], -r0, lsl #4
     ff8:	00000042 	andeq	r0, r0, r2, asr #32
     ffc:	95050202 	strls	r0, [r5, #-514]	@ 0xfffffdfe
    1000:	02000000 	andeq	r0, r0, #0
    1004:	01220504 			@ <UNDEFINED> instruction: 0x01220504
    1008:	08020000 	stmdaeq	r2, {}	@ <UNPREDICTABLE>
    100c:	00011d05 	andeq	r1, r1, r5, lsl #26
    1010:	03760300 	cmneq	r6, #0, 6
    1014:	2e020000 	cdpcs	0, 0, cr0, cr2, cr0, {0}
    1018:	00005318 	andeq	r5, r0, r8, lsl r3
    101c:	08010200 	stmdaeq	r1, {r9}
    1020:	00000040 	andeq	r0, r0, r0, asr #32
    1024:	00098903 	andeq	r8, r9, r3, lsl #18
    1028:	19310200 	ldmdbne	r1!, {r9}
    102c:	00000066 	andeq	r0, r0, r6, rrx
    1030:	56070202 	strpl	r0, [r7], -r2, lsl #4
    1034:	02000000 	andeq	r0, r0, #0
    1038:	00d30704 	sbcseq	r0, r3, r4, lsl #14
    103c:	08020000 	stmdaeq	r2, {}	@ <UNPREDICTABLE>
    1040:	0000ce07 	andeq	ip, r0, r7, lsl #28
    1044:	05040b00 	streq	r0, [r4, #-2816]	@ 0xfffff500
    1048:	00746e69 	rsbseq	r6, r4, r9, ror #28
    104c:	d8070402 	stmdale	r7, {r1, sl}
    1050:	07000000 	streq	r0, [r0, -r0]
    1054:	00e5030e 	rsceq	r0, r5, lr, lsl #6
    1058:	4d010000 	stcmi	0, cr0, [r1, #-0]
    105c:	03000005 	tsteq	r0, #5
    1060:	00005a07 	andeq	r5, r0, r7, lsl #20
    1064:	7e010000 	cdpvc	0, 0, cr0, cr1, cr0, {0}
    1068:	03000005 	tsteq	r0, #5
    106c:	00005a08 	andeq	r5, r0, r8, lsl #20
    1070:	68010200 	stmdavs	r1, {r9}
    1074:	03000005 	tsteq	r0, #5
    1078:	00005a09 	andeq	r5, r0, r9, lsl #20
    107c:	83010400 	tsthi	r1, #0, 8
    1080:	03000005 	tsteq	r0, #5
    1084:	00005a0a 	andeq	r5, r0, sl, lsl #20
    1088:	ac010600 	stcge	6, cr0, [r1], {-0}
    108c:	03000005 	tsteq	r0, #5
    1090:	00005a0b 	andeq	r5, r0, fp, lsl #20
    1094:	46010800 	strmi	r0, [r1], -r0, lsl #16
    1098:	03000005 	tsteq	r0, #5
    109c:	00005a0c 	andeq	r5, r0, ip, lsl #20
    10a0:	61010a00 	tstvs	r1, r0, lsl #20
    10a4:	03000005 	tsteq	r0, #5
    10a8:	00005a0d 	andeq	r5, r0, sp, lsl #20
    10ac:	03000c00 	tsteq	r0, #0, 24
    10b0:	00000556 	andeq	r0, r0, r6, asr r5
    10b4:	89030e03 	stmdbhi	r3, {r0, r1, r9, sl, fp}
    10b8:	05000000 	streq	r0, [r0, #-0]
    10bc:	00000570 	andeq	r0, r0, r0, ror r5
    10c0:	e5131003 	ldr	r1, [r3, #-3]
    10c4:	0c000000 	stceq	0, cr0, [r0], {-0}
    10c8:	0000010e 	andeq	r0, r0, lr, lsl #2
    10cc:	0000010e 	andeq	r0, r0, lr, lsl #2
    10d0:	0000820d 	andeq	r8, r0, sp, lsl #4
    10d4:	002aff00 	eoreq	pc, sl, r0, lsl #30
    10d8:	49080102 	stmdbmi	r8, {r1, r8}
    10dc:	05000000 	streq	r0, [r0, #-0]
    10e0:	0000059b 	muleq	r0, fp, r5
    10e4:	fd0d1103 			@ <UNDEFINED> instruction: 0xfd0d1103
    10e8:	07000000 	streq	r0, [r0, -r0]
    10ec:	01890410 	orreq	r0, r9, r0, lsl r4
    10f0:	d1010000 	mrsle	r0, (UNDEF: 1)
    10f4:	04000004 	streq	r0, [r0], #-4
    10f8:	00005a07 	andeq	r5, r0, r7, lsl #20
    10fc:	33010000 	tstcc	r1, #0
    1100:	04000005 	streq	r0, [r0], #-5
    1104:	00005a08 	andeq	r5, r0, r8, lsl #20
    1108:	00010200 	andeq	r0, r1, r0, lsl #4
    110c:	04000005 	streq	r0, [r0], #-5
    1110:	00005a09 	andeq	r5, r0, r9, lsl #20
    1114:	0f010400 	svceq	0x00010400
    1118:	04000005 	streq	r0, [r0], #-5
    111c:	00005a0a 	andeq	r5, r0, sl, lsl #20
    1120:	fb010600 			@ <UNDEFINED> instruction: 0xfb010600
    1124:	04000004 	streq	r0, [r0], #-4
    1128:	00005a0b 	andeq	r5, r0, fp, lsl #20
    112c:	2d010800 	stccs	8, cr0, [r1, #-0]
    1130:	04000005 	streq	r0, [r0], #-5
    1134:	00005a0c 	andeq	r5, r0, ip, lsl #20
    1138:	17010a00 	strne	r0, [r1, -r0, lsl #20]
    113c:	04000005 	streq	r0, [r0], #-5
    1140:	00005a0d 	andeq	r5, r0, sp, lsl #20
    1144:	70010c00 	andvc	r0, r1, r0, lsl #24
    1148:	04000003 	streq	r0, [r0], #-3
    114c:	0000470e 	andeq	r4, r0, lr, lsl #14
    1150:	03000e00 	tsteq	r0, #0, 28
    1154:	00000538 	andeq	r0, r0, r8, lsr r5
    1158:	21030f04 	tstcs	r3, r4, lsl #30
    115c:	05000001 	streq	r0, [r0, #-1]
    1160:	000004ec 	andeq	r0, r0, ip, ror #9
    1164:	89161104 	ldmdbhi	r6, {r2, r8, ip}
    1168:	06000001 	streq	r0, [r0], -r1
    116c:	00000506 	andeq	r0, r0, r6, lsl #10
    1170:	01b71304 			@ <UNDEFINED> instruction: 0x01b71304
    1174:	b7040000 	strlt	r0, [r4, -r0]
    1178:	04000001 	streq	r0, [r0], #-1
    117c:	0000005a 	andeq	r0, r0, sl, asr r0
    1180:	01890800 	orreq	r0, r9, r0, lsl #16
    1184:	c1060000 	mrsgt	r0, (UNDEF: 6)
    1188:	03000005 	tsteq	r0, #5
    118c:	0001cd14 	andeq	ip, r1, r4, lsl sp
    1190:	01cd0400 	biceq	r0, sp, r0, lsl #8
    1194:	0e000000 	cdpeq	0, 0, cr0, cr0, cr0, {0}
    1198:	05b30604 	ldreq	r0, [r3, #1540]!	@ 0x604
    119c:	13030000 	tstne	r3, #0
    11a0:	000001e0 	andeq	r0, r0, r0, ror #3
    11a4:	0001e004 	andeq	lr, r1, r4
    11a8:	e5080000 	str	r0, [r8, #-0]
    11ac:	0f000000 	svceq	0x00000000
    11b0:	000005e7 	andeq	r0, r0, r7, ror #11
    11b4:	10060601 	andne	r0, r6, r1, lsl #12
    11b8:	34080007 	strcc	r0, [r8], #-7
    11bc:	01000000 	mrseq	r0, (UNDEF: 0)
    11c0:	071c099c 			@ <UNDEFINED> instruction: 0x071c099c
    11c4:	01cf0800 	biceq	r0, pc, r0, lsl #16
    11c8:	24090000 	strcs	r0, [r9], #-0
    11cc:	bc080007 	stclt	0, cr0, [r8], {7}
    11d0:	10000001 	andne	r0, r0, r1
    11d4:	08000730 	stmdaeq	r0, {r4, r5, r8, r9, sl}
    11d8:	000001a1 	andeq	r0, r0, r1, lsr #3
    11dc:	01510111 	cmpeq	r1, r1, lsl r1
    11e0:	00000032 	andeq	r0, r0, r2, lsr r0
    11e4:	0000004c 	andeq	r0, r0, ip, asr #32
    11e8:	04010005 	streq	r0, [r1], #-5
    11ec:	00000a0a 	andeq	r0, r0, sl, lsl #20
    11f0:	00013701 	andeq	r3, r1, r1, lsl #14
    11f4:	47031d00 	strmi	r1, [r3, -r0, lsl #26]
    11f8:	fe000316 			@ <UNDEFINED> instruction: 0xfe000316
    11fc:	f9000005 			@ <UNDEFINED> instruction: 0xf9000005
    1200:	b9000000 	stmdblt	r0, {}	@ <UNPREDICTABLE>
    1204:	00000000 	andeq	r0, r0, r0
    1208:	91000000 	mrsls	r0, (UNDEF: 0)
    120c:	0200000d 	andeq	r0, r0, #13
    1210:	00000665 	andeq	r0, r0, r5, ror #12
    1214:	03060101 	tsteq	r6, #1073741824	@ 0x40000000
    1218:	000005f7 			@ <UNDEFINED> instruction: 0x000005f7
    121c:	3c060601 	stccc	6, cr0, [r6], {1}
    1220:	08080001 	stmdaeq	r8, {r0}
    1224:	01000000 	mrseq	r0, (UNDEF: 0)
    1228:	0140049c 			@ <UNDEFINED> instruction: 0x0140049c
    122c:	002b0800 	eoreq	r0, fp, r0, lsl #16
    1230:	00000000 	andeq	r0, r0, r0
    1234:	000000c9 	andeq	r0, r0, r9, asr #1
    1238:	04010005 	streq	r0, [r1], #-5
    123c:	00000a59 	andeq	r0, r0, r9, asr sl
    1240:	00013703 	andeq	r3, r1, r3, lsl #14
    1244:	47031d00 	strmi	r1, [r3, -r0, lsl #26]
    1248:	0c000316 	stceq	3, cr0, [r0], {22}
    124c:	f9000006 			@ <UNDEFINED> instruction: 0xf9000006
    1250:	18000000 	stmdane	r0, {}	@ <UNPREDICTABLE>
    1254:	1408001c 	strne	r0, [r8], #-28	@ 0xffffffe4
    1258:	db000000 	blle	1260 <_binary_assets_romhdr_bin_size+0x11a1>
    125c:	0100000d 	tsteq	r0, sp
    1260:	00420601 	subeq	r0, r2, r1, lsl #12
    1264:	02010000 	andeq	r0, r1, #0
    1268:	00009505 	andeq	r9, r0, r5, lsl #10
    126c:	05040100 	streq	r0, [r4, #-256]	@ 0xffffff00
    1270:	00000122 	andeq	r0, r0, r2, lsr #2
    1274:	1d050801 	stcne	8, cr0, [r5, #-4]
    1278:	01000001 	tsteq	r0, r1
    127c:	00400801 	subeq	r0, r0, r1, lsl #16
    1280:	02010000 	andeq	r0, r1, #0
    1284:	00005607 	andeq	r5, r0, r7, lsl #12
    1288:	07040100 	streq	r0, [r4, -r0, lsl #2]
    128c:	000000d3 			@ <UNDEFINED> instruction: 0x000000d3
    1290:	ce070801 	cdpgt	8, 0, cr0, cr7, cr1, {0}
    1294:	04000000 	streq	r0, [r0], #-0
    1298:	6e690504 	cdpvs	5, 6, cr0, cr9, cr4, {0}
    129c:	04010074 	streq	r0, [r1], #-116	@ 0xffffff8c
    12a0:	0000d807 	andeq	sp, r0, r7, lsl #16
    12a4:	01070500 	tsteq	r7, r0, lsl #10
    12a8:	00000047 	andeq	r0, r0, r7, asr #32
    12ac:	8c0e0402 	stchi	4, cr0, [lr], {2}
    12b0:	02000000 	andeq	r0, r0, #0
    12b4:	000001ba 			@ <UNDEFINED> instruction: 0x000001ba
    12b8:	01cc0200 	biceq	r0, ip, r0, lsl #4
    12bc:	00010000 	andeq	r0, r1, r0
    12c0:	0001e306 	andeq	lr, r1, r6, lsl #6
    12c4:	03070200 	tsteq	r7, #0, 4
    12c8:	00000071 	andeq	r0, r0, r1, ror r0
    12cc:	0001da07 	andeq	sp, r1, r7, lsl #20
    12d0:	06090200 	streq	r0, [r9], -r0, lsl #4
    12d4:	000000aa 	andeq	r0, r0, sl, lsr #1
    12d8:	00008c08 	andeq	r8, r0, r8, lsl #24
    12dc:	23090000 	tstcs	r9, #0
    12e0:	01000006 	tsteq	r0, r6
    12e4:	1c180605 	ldcne	6, cr0, [r8], {5}
    12e8:	00140800 	andseq	r0, r4, r0, lsl #16
    12ec:	9c010000 	stcls	0, cr0, [r1], {-0}
    12f0:	001c240a 	andseq	r2, ip, sl, lsl #8
    12f4:	00009808 	andeq	r9, r0, r8, lsl #16
    12f8:	50010b00 	andpl	r0, r1, r0, lsl #22
    12fc:	00003001 	andeq	r3, r0, r1
    1300:	0000c900 	andeq	ip, r0, r0, lsl #18
    1304:	01000500 	tsteq	r0, r0, lsl #10
    1308:	000afb04 	andeq	pc, sl, r4, lsl #22
    130c:	01370300 	teqeq	r7, r0, lsl #6
    1310:	031d0000 	tsteq	sp, #0
    1314:	00031647 	andeq	r1, r3, r7, asr #12
    1318:	00000634 	andeq	r0, r0, r4, lsr r6
    131c:	000000f9 			@ <UNDEFINED> instruction: 0x000000f9
    1320:	08001c2c 	stmdaeq	r0, {r2, r3, r5, sl, fp, ip}
    1324:	00000014 	andeq	r0, r0, r4, lsl r0
    1328:	00000e45 	andeq	r0, r0, r5, asr #28
    132c:	42060101 	andmi	r0, r6, #1073741824	@ 0x40000000
    1330:	01000000 	mrseq	r0, (UNDEF: 0)
    1334:	00950502 	addseq	r0, r5, r2, lsl #10
    1338:	04010000 	streq	r0, [r1], #-0
    133c:	00012205 	andeq	r2, r1, r5, lsl #4
    1340:	05080100 	streq	r0, [r8, #-256]	@ 0xffffff00
    1344:	0000011d 	andeq	r0, r0, sp, lsl r1
    1348:	40080101 	andmi	r0, r8, r1, lsl #2
    134c:	01000000 	mrseq	r0, (UNDEF: 0)
    1350:	00560702 	subseq	r0, r6, r2, lsl #14
    1354:	04010000 	streq	r0, [r1], #-0
    1358:	0000d307 	andeq	sp, r0, r7, lsl #6
    135c:	07080100 	streq	r0, [r8, -r0, lsl #2]
    1360:	000000ce 	andeq	r0, r0, lr, asr #1
    1364:	69050404 	stmdbvs	r5, {r2, sl}
    1368:	0100746e 	tsteq	r0, lr, ror #8
    136c:	00d80704 	sbcseq	r0, r8, r4, lsl #14
    1370:	07050000 	streq	r0, [r5, -r0]
    1374:	00004701 	andeq	r4, r0, r1, lsl #14
    1378:	0e040200 	cdpeq	2, 0, cr0, cr4, cr0, {0}
    137c:	0000008c 	andeq	r0, r0, ip, lsl #1
    1380:	0001ba02 	andeq	fp, r1, r2, lsl #20
    1384:	cc020000 	stcgt	0, cr0, [r2], {-0}
    1388:	01000001 	tsteq	r0, r1
    138c:	01e30600 	mvneq	r0, r0, lsl #12
    1390:	07020000 	streq	r0, [r2, -r0]
    1394:	00007103 	andeq	r7, r0, r3, lsl #2
    1398:	01da0700 	bicseq	r0, sl, r0, lsl #14
    139c:	09020000 	stmdbeq	r2, {}	@ <UNPREDICTABLE>
    13a0:	0000aa06 	andeq	sl, r0, r6, lsl #20
    13a4:	008c0800 	addeq	r0, ip, r0, lsl #16
    13a8:	09000000 	stmdbeq	r0, {}	@ <UNPREDICTABLE>
    13ac:	00000649 	andeq	r0, r0, r9, asr #12
    13b0:	2c060501 	stccs	5, cr0, [r6], {1}
    13b4:	1408001c 	strne	r0, [r8], #-28	@ 0xffffffe4
    13b8:	01000000 	mrseq	r0, (UNDEF: 0)
    13bc:	1c380a9c 			@ <UNDEFINED> instruction: 0x1c380a9c
    13c0:	00980800 	addseq	r0, r8, r0, lsl #16
    13c4:	010b0000 	mrseq	r0, (UNDEF: 11)
    13c8:	00300150 	eorseq	r0, r0, r0, asr r1
    13cc:	03020000 	tsteq	r2, #0
    13d0:	00050000 	andeq	r0, r5, r0
    13d4:	0b9d0401 	bleq	fe7423e0 <IntrRet+0xf673fcf8>
    13d8:	370b0000 	strcc	r0, [fp, -r0]
    13dc:	1d000001 	stcne	0, cr0, [r0, #-4]
    13e0:	03164703 	tsteq	r6, #786432	@ 0xc0000
    13e4:	00068300 	andeq	r8, r6, r0, lsl #6
    13e8:	0000f900 	andeq	pc, r0, r0, lsl #18
    13ec:	001c4000 	andseq	r4, ip, r0
    13f0:	00009c08 	andeq	r9, r0, r8, lsl #24
    13f4:	000ead00 	andeq	sl, lr, r0, lsl #26
    13f8:	06010200 	streq	r0, [r1], -r0, lsl #4
    13fc:	00000042 	andeq	r0, r0, r2, asr #32
    1400:	95050202 	strls	r0, [r5, #-514]	@ 0xfffffdfe
    1404:	02000000 	andeq	r0, r0, #0
    1408:	01220504 			@ <UNDEFINED> instruction: 0x01220504
    140c:	08020000 	stmdaeq	r2, {}	@ <UNPREDICTABLE>
    1410:	00011d05 	andeq	r1, r1, r5, lsl #26
    1414:	03760500 	cmneq	r6, #0, 10
    1418:	2e020000 	cdpcs	0, 0, cr0, cr2, cr0, {0}
    141c:	00005318 	andeq	r5, r0, r8, lsl r3
    1420:	08010200 	stmdaeq	r1, {r9}
    1424:	00000040 	andeq	r0, r0, r0, asr #32
    1428:	56070202 	strpl	r0, [r7], -r2, lsl #4
    142c:	05000000 	streq	r0, [r0, #-0]
    1430:	000008ab 	andeq	r0, r0, fp, lsr #17
    1434:	6d193402 	ldcvs	4, cr3, [r9, #-8]
    1438:	02000000 	andeq	r0, r0, #0
    143c:	00d30704 	sbcseq	r0, r3, r4, lsl #14
    1440:	08020000 	stmdaeq	r2, {}	@ <UNPREDICTABLE>
    1444:	0000ce07 	andeq	ip, r0, r7, lsl #28
    1448:	05040c00 	streq	r0, [r4, #-3072]	@ 0xfffff400
    144c:	00746e69 	rsbseq	r6, r4, r9, ror #28
    1450:	d8070402 	stmdale	r7, {r1, sl}
    1454:	0d000000 	stceq	0, cr0, [r0, #-0]
    1458:	00530107 	subseq	r0, r3, r7, lsl #2
    145c:	06030000 	streq	r0, [r3], -r0
    1460:	0000f228 	andeq	pc, r0, r8, lsr #4
    1464:	038f0100 	orreq	r0, pc, #0, 2
    1468:	01000000 	mrseq	r0, (UNDEF: 0)
    146c:	00000440 	andeq	r0, r0, r0, asr #8
    1470:	03f10101 	mvnseq	r0, #1073741824	@ 0x40000000
    1474:	01020000 	mrseq	r0, (UNDEF: 2)
    1478:	000002b7 			@ <UNDEFINED> instruction: 0x000002b7
    147c:	039b0103 	orrseq	r0, fp, #-1073741824	@ 0xc0000000
    1480:	01040000 	mrseq	r0, (UNDEF: 4)
    1484:	000002cf 	andeq	r0, r0, pc, asr #5
    1488:	02940105 	addseq	r0, r4, #1073741825	@ 0x40000001
    148c:	01060000 	mrseq	r0, (UNDEF: 6)
    1490:	00000409 	andeq	r0, r0, r9, lsl #8
    1494:	037e0107 	cmneq	lr, #-1073741823	@ 0xc0000001
    1498:	01080000 	mrseq	r0, (UNDEF: 8)
    149c:	00000318 	andeq	r0, r0, r8, lsl r3
    14a0:	04310109 	ldrteq	r0, [r1], #-265	@ 0xfffffef7
    14a4:	010a0000 	mrseq	r0, (UNDEF: 10)
    14a8:	000003d0 			@ <UNDEFINED> instruction: 0x000003d0
    14ac:	0424010b 	strteq	r0, [r4], #-267	@ 0xfffffef5
    14b0:	010c0000 	mrseq	r0, (UNDEF: 12)
    14b4:	000002a8 	andeq	r0, r0, r8, lsr #5
    14b8:	0305010d 	tsteq	r5, #1073741827	@ 0x40000003
    14bc:	000e0000 	andeq	r0, lr, r0
    14c0:	00028505 	andeq	r8, r2, r5, lsl #10
    14c4:	03160300 	tsteq	r6, #0, 6
    14c8:	00000089 	andeq	r0, r0, r9, lsl #1
    14cc:	1803020e 	stmdane	r3, {r1, r2, r3, r9}
    14d0:	00012009 	andeq	r2, r1, r9
    14d4:	038a0900 	orreq	r0, sl, #0, 18
    14d8:	14190000 	ldrne	r0, [r9], #-0
    14dc:	000000f2 			@ <UNDEFINED> instruction: 0x000000f2
    14e0:	03700900 	cmneq	r0, #0, 18
    14e4:	0d1a0000 	ldceq	0, cr0, [sl, #-0]
    14e8:	00000047 	andeq	r0, r0, r7, asr #32
    14ec:	fb050001 			@ <UNDEFINED> instruction: 0xfb050001
    14f0:	03000002 	tsteq	r0, #2
    14f4:	00fe031b 	rscseq	r0, lr, fp, lsl r3
    14f8:	520a0000 	andpl	r0, sl, #0
    14fc:	03000004 	tsteq	r0, #4
    1500:	0120122a 			@ <UNDEFINED> instruction: 0x0120122a
    1504:	490f0000 	stmdbmi	pc, {}	@ <UNPREDICTABLE>
    1508:	49000001 	stmdbmi	r0, {r0}
    150c:	10000001 	andne	r0, r0, r1
    1510:	00000082 	andeq	r0, r0, r2, lsl #1
    1514:	020014d2 	andeq	r1, r0, #-771751936	@ 0xd2000000
    1518:	00490801 	subeq	r0, r9, r1, lsl #16
    151c:	ae0a0000 	cdpge	0, 0, cr0, cr10, cr0, {0}
    1520:	01000006 	tsteq	r0, r6
    1524:	01380d09 	teqeq	r8, r9, lsl #26
    1528:	b9110000 	ldmdblt	r1, {}	@ <UNPREDICTABLE>
    152c:	01000006 	tsteq	r0, r6
    1530:	00610a0a 	rsbeq	r0, r1, sl, lsl #20
    1534:	03050000 	tsteq	r5, #0
    1538:	030034ec 	tsteq	r0, #236, 8	@ 0xec000000
    153c:	0005e712 	andeq	lr, r5, r2, lsl r7
    1540:	06040400 	streq	r0, [r4], -r0, lsl #8
    1544:	00024213 	andeq	r4, r2, r3, lsl r2
    1548:	06080500 	streq	r0, [r8], -r0, lsl #10
    154c:	0000018d 	andeq	r0, r0, sp, lsl #3
    1550:	00018d06 	andeq	r8, r1, r6, lsl #26
    1554:	01940600 	orrseq	r0, r4, r0, lsl #12
    1558:	14000000 	strne	r0, [r0], #-0
    155c:	00019304 	andeq	r9, r1, r4, lsl #6
    1560:	04161500 	ldreq	r1, [r6], #-1280	@ 0xfffffb00
    1564:	0004c117 	andeq	ip, r4, r7, lsl r1
    1568:	07070600 	streq	r0, [r7, -r0, lsl #12]
    156c:	00000194 	muleq	r0, r4, r1
    1570:	000001b1 			@ <UNDEFINED> instruction: 0x000001b1
    1574:	00019406 	andeq	r9, r1, r6, lsl #8
    1578:	00610600 	rsbeq	r0, r1, r0, lsl #12
    157c:	08000000 	stmdaeq	r0, {}	@ <UNPREDICTABLE>
    1580:	0000066a 	andeq	r0, r0, sl, ror #12
    1584:	001cd42d 	andseq	sp, ip, sp, lsr #8
    1588:	00000808 	andeq	r0, r0, r8, lsl #16
    158c:	cf9c0100 	svcgt	0x009c0100
    1590:	07000001 	streq	r0, [r0, -r1]
    1594:	08001cdc 	stmdaeq	r0, {r2, r3, r4, r6, r7, sl, fp, ip}
    1598:	000001cf 	andeq	r0, r0, pc, asr #3
    159c:	06580800 	ldrbeq	r0, [r8], -r0, lsl #16
    15a0:	c4250000 	strtgt	r0, [r5], #-0
    15a4:	1008001c 	andne	r0, r8, ip, lsl r0
    15a8:	01000000 	mrseq	r0, (UNDEF: 0)
    15ac:	0002109c 	muleq	r2, ip, r0
    15b0:	02101800 	andseq	r1, r0, #0, 16
    15b4:	1ccc0000 	stclne	0, cr0, [ip], {0}
    15b8:	cc010800 	stcgt	8, cr0, [r1], {-0}
    15bc:	0808001c 	stmdaeq	r8, {r2, r3, r4}
    15c0:	01000000 	mrseq	r0, (UNDEF: 0)
    15c4:	02060529 	andeq	r0, r6, #171966464	@ 0xa400000
    15c8:	d0070000 	andle	r0, r7, r0
    15cc:	1908001c 	stmdbne	r8, {r2, r3, r4}
    15d0:	00000002 	andeq	r0, r0, r2
    15d4:	001ccc07 	andseq	ip, ip, r7, lsl #24
    15d8:	00016e08 	andeq	r6, r1, r8, lsl #28
    15dc:	61190000 	tstvs	r9, r0
    15e0:	01000006 	tsteq	r0, r6
    15e4:	0801061e 	stmdaeq	r1, {r1, r2, r3, r4, r9, sl}
    15e8:	00000695 	muleq	r0, r5, r6
    15ec:	001c400d 	andseq	r4, ip, sp
    15f0:	00007808 	andeq	r7, r0, r8, lsl #16
    15f4:	ec9c0100 	ldc	1, cr0, [ip], {0}
    15f8:	1a000002 	bne	1608 <_binary_assets_romhdr_bin_size+0x1549>
    15fc:	000006a7 	andeq	r0, r0, r7, lsr #13
    1600:	940b0e01 	strls	r0, [fp], #-3585	@ 0xfffff1ff
    1604:	51000001 	tstpl	r0, r1
    1608:	4b000003 	blmi	161c <_binary_assets_romhdr_bin_size+0x155d>
    160c:	1b000003 	blne	1620 <_binary_assets_romhdr_bin_size+0x1561>
    1610:	00000676 	andeq	r0, r0, r6, ror r6
    1614:	940b1901 	strls	r1, [fp], #-2305	@ 0xfffff6ff
    1618:	04000001 	streq	r0, [r0], #-1
    161c:	08001c50 	stmdaeq	r0, {r4, r6, sl, fp, ip}
    1620:	00000196 	muleq	r0, r6, r1
    1624:	00000260 	andeq	r0, r0, r0, ror #4
    1628:	01510103 	cmpeq	r1, r3, lsl #2
    162c:	58040030 	stmdapl	r4, {r4, r5}
    1630:	7608001c 			@ <UNDEFINED> instruction: 0x7608001c
    1634:	77000001 	strvc	r0, [r0, -r1]
    1638:	03000002 	tsteq	r0, #2
    163c:	0c055101 	stceq	1, cr5, [r5], {1}
    1640:	06008000 	streq	r8, [r0], -r0
    1644:	1c640400 	stclne	4, cr0, [r4], #-0
    1648:	01960800 	orrseq	r0, r6, r0, lsl #16
    164c:	028a0000 	addeq	r0, sl, #0
    1650:	01030000 	mrseq	r0, (UNDEF: 3)
    1654:	00320151 	eorseq	r0, r2, r1, asr r1
    1658:	001c6c04 	andseq	r6, ip, r4, lsl #24
    165c:	00017608 	andeq	r7, r1, r8, lsl #12
    1660:	00029f00 	andeq	r9, r2, r0, lsl #30
    1664:	51010300 	mrspl	r0, SP_irq
    1668:	24464803 	strbcs	r4, [r6], #-2051	@ 0xfffff7fd
    166c:	1c780400 	ldclne	4, cr0, [r8], #-0
    1670:	01960800 	orrseq	r0, r6, r0, lsl #16
    1674:	02b20000 	adcseq	r0, r2, #0
    1678:	01030000 	mrseq	r0, (UNDEF: 3)
    167c:	00330151 	eorseq	r0, r3, r1, asr r1
    1680:	001c8004 	andseq	r8, ip, r4
    1684:	00017608 	andeq	r7, r1, r8, lsl #12
    1688:	0002c900 	andeq	ip, r2, r0, lsl #18
    168c:	51010300 	mrspl	r0, SP_irq
    1690:	00000c05 	andeq	r0, r0, r5, lsl #24
    1694:	04000601 	streq	r0, [r0], #-1537	@ 0xfffff9ff
    1698:	08001c8c 	stmdaeq	r0, {r2, r3, r7, sl, fp, ip}
    169c:	00000196 	muleq	r0, r6, r1
    16a0:	000002dc 			@ <UNDEFINED> instruction: 0x000002dc
    16a4:	01510103 	cmpeq	r1, r3, lsl #2
    16a8:	a01c0034 	andsge	r0, ip, r4, lsr r0
    16ac:	9608001c 			@ <UNDEFINED> instruction: 0x9608001c
    16b0:	03000001 	tsteq	r0, #1
    16b4:	31015101 	tstcc	r1, r1, lsl #2
    16b8:	101d0000 	andsne	r0, sp, r0
    16bc:	b8000002 	stmdalt	r0, {r1}
    16c0:	0c08001c 	stceq	0, cr0, [r8], {28}
    16c4:	01000000 	mrseq	r0, (UNDEF: 0)
    16c8:	1cc0079c 	stclne	7, cr0, [r0], {156}	@ 0x9c
    16cc:	02190800 	andseq	r0, r9, #0, 16
    16d0:	00000000 	andeq	r0, r0, r0
    16d4:	0000020a 	andeq	r0, r0, sl, lsl #4
    16d8:	04010005 	streq	r0, [r1], #-5
    16dc:	00000d4c 	andeq	r0, r0, ip, asr #26
    16e0:	00013707 	andeq	r3, r1, r7, lsl #14
    16e4:	47031d00 	strmi	r1, [r3, -r0, lsl #26]
    16e8:	01000316 	tsteq	r0, r6, lsl r3
    16ec:	f9000007 			@ <UNDEFINED> instruction: 0xf9000007
    16f0:	dc000000 	stcle	0, cr0, [r0], {-0}
    16f4:	9008001c 	andls	r0, r8, ip, lsl r0
    16f8:	13000000 	tstne	r0, #0
    16fc:	04000010 	streq	r0, [r0], #-16
    1700:	00420601 	subeq	r0, r2, r1, lsl #12
    1704:	02040000 	andeq	r0, r4, #0
    1708:	00009505 	andeq	r9, r0, r5, lsl #10
    170c:	05040400 	streq	r0, [r4, #-1024]	@ 0xfffffc00
    1710:	00000122 	andeq	r0, r0, r2, lsr #2
    1714:	1d050804 	stcne	8, cr0, [r5, #-16]
    1718:	05000001 	streq	r0, [r0, #-1]
    171c:	00000376 	andeq	r0, r0, r6, ror r3
    1720:	53182e02 	tstpl	r8, #2, 28
    1724:	04000000 	streq	r0, [r0], #-0
    1728:	00400801 	subeq	r0, r0, r1, lsl #16
    172c:	02040000 	andeq	r0, r4, #0
    1730:	00005607 	andeq	r5, r0, r7, lsl #12
    1734:	07040400 	streq	r0, [r4, -r0, lsl #8]
    1738:	000000d3 			@ <UNDEFINED> instruction: 0x000000d3
    173c:	ce070804 	cdpgt	8, 0, cr0, cr7, cr4, {0}
    1740:	08000000 	stmdaeq	r0, {}	@ <UNPREDICTABLE>
    1744:	6e690504 	cdpvs	5, 6, cr0, cr9, cr4, {0}
    1748:	04040074 	streq	r0, [r4], #-116	@ 0xffffff8c
    174c:	0000d807 	andeq	sp, r0, r7, lsl #16
    1750:	01070900 	tsteq	r7, r0, lsl #18
    1754:	00000053 	andeq	r0, r0, r3, asr r0
    1758:	e6280603 	strt	r0, [r8], -r3, lsl #12
    175c:	01000000 	mrseq	r0, (UNDEF: 0)
    1760:	0000038f 	andeq	r0, r0, pc, lsl #7
    1764:	04400100 	strbeq	r0, [r0], #-256	@ 0xffffff00
    1768:	01010000 	mrseq	r0, (UNDEF: 1)
    176c:	000003f1 			@ <UNDEFINED> instruction: 0x000003f1
    1770:	02b70102 	adcseq	r0, r7, #-2147483648	@ 0x80000000
    1774:	01030000 	mrseq	r0, (UNDEF: 3)
    1778:	0000039b 	muleq	r0, fp, r3
    177c:	02cf0104 	sbceq	r0, pc, #4, 2
    1780:	01050000 	mrseq	r0, (UNDEF: 5)
    1784:	00000294 	muleq	r0, r4, r2
    1788:	04090106 	streq	r0, [r9], #-262	@ 0xfffffefa
    178c:	01070000 	mrseq	r0, (UNDEF: 7)
    1790:	0000037e 	andeq	r0, r0, lr, ror r3
    1794:	03180108 	tsteq	r8, #8, 2
    1798:	01090000 	mrseq	r0, (UNDEF: 9)
    179c:	00000431 	andeq	r0, r0, r1, lsr r4
    17a0:	03d0010a 	bicseq	r0, r0, #-2147483646	@ 0x80000002
    17a4:	010b0000 	mrseq	r0, (UNDEF: 11)
    17a8:	00000424 	andeq	r0, r0, r4, lsr #8
    17ac:	02a8010c 	adceq	r0, r8, #12, 2
    17b0:	010d0000 	mrseq	r0, (UNDEF: 13)
    17b4:	00000305 	andeq	r0, r0, r5, lsl #6
    17b8:	8505000e 	strhi	r0, [r5, #-14]
    17bc:	03000002 	tsteq	r0, #2
    17c0:	007d0316 	rsbseq	r0, sp, r6, lsl r3
    17c4:	020a0000 	andeq	r0, sl, #0
    17c8:	14091803 	strne	r1, [r9], #-2051	@ 0xfffff7fd
    17cc:	06000001 	streq	r0, [r0], -r1
    17d0:	0000038a 	andeq	r0, r0, sl, lsl #7
    17d4:	00e61419 	rsceq	r1, r6, r9, lsl r4
    17d8:	06000000 	streq	r0, [r0], -r0
    17dc:	00000370 	andeq	r0, r0, r0, ror r3
    17e0:	00470d1a 	subeq	r0, r7, sl, lsl sp
    17e4:	00010000 	andeq	r0, r1, r0
    17e8:	0002fb05 	andeq	pc, r2, r5, lsl #22
    17ec:	031b0300 	tsteq	fp, #0, 6
    17f0:	000000f2 			@ <UNDEFINED> instruction: 0x000000f2
    17f4:	0004520b 	andeq	r5, r4, fp, lsl #4
    17f8:	122a0300 	eorne	r0, sl, #0, 6
    17fc:	00000114 	andeq	r0, r0, r4, lsl r1
    1800:	00000f03 	andeq	r0, r0, r3, lsl #30
    1804:	03050400 	tsteq	r5, #0, 8
    1808:	00000736 	andeq	r0, r0, r6, lsr r7
    180c:	6a032603 	bvs	cb020 <_binary_assets_romhdr_bin_size+0xcaf61>
    1810:	03000006 	tsteq	r0, #6
    1814:	07260325 	streq	r0, [r6, -r5, lsr #6]!
    1818:	24030000 	strcs	r0, [r3], #-0
    181c:	0006df03 	andeq	sp, r6, r3, lsl #30
    1820:	03230300 			@ <UNDEFINED> instruction: 0x03230300
    1824:	000006ef 	andeq	r0, r0, pc, ror #13
    1828:	d2032203 	andle	r2, r3, #805306368	@ 0x30000000
    182c:	03000006 	tsteq	r0, #6
    1830:	07170321 	ldreq	r0, [r7, -r1, lsr #6]
    1834:	20030000 	andcs	r0, r3, r0
    1838:	00064903 	andeq	r4, r6, r3, lsl #18
    183c:	031e0300 	tsteq	lr, #0, 6
    1840:	00000623 	andeq	r0, r0, r3, lsr #12
    1844:	4c031f03 	stcmi	15, cr1, [r3], {3}
    1848:	03000007 	tsteq	r0, #7
    184c:	032d0c1d 			@ <UNDEFINED> instruction: 0x032d0c1d
    1850:	0a010000 	beq	41858 <_binary_assets_romhdr_bin_size+0x41799>
    1854:	001cdc06 	andseq	sp, ip, r6, lsl #24
    1858:	00009008 	andeq	r9, r0, r8
    185c:	0d9c0100 	ldceq	1, cr0, [ip]
    1860:	0000075b 	andeq	r0, r0, fp, asr r7
    1864:	18111501 	ldmdane	r1, {r0, r8, sl, ip}
    1868:	0208001d 	andeq	r0, r8, #29
    186c:	08001d08 	stmdaeq	r0, {r3, r8, sl, fp, ip}
    1870:	0000016b 	andeq	r0, r0, fp, ror #2
    1874:	001d0c02 	andseq	r0, sp, r2, lsl #24
    1878:	00012c08 	andeq	r2, r1, r8, lsl #24
    187c:	1d140200 	ldcne	2, cr0, [r4, #-0]
    1880:	01640800 	cmneq	r4, r0, lsl #16
    1884:	18020000 	stmdane	r2, {}	@ <UNPREDICTABLE>
    1888:	6b08001d 	blvs	201904 <_binary_assets_romhdr_bin_size+0x201845>
    188c:	02000001 	andeq	r0, r0, #1
    1890:	08001d24 	stmdaeq	r0, {r2, r5, r8, sl, fp, ip}
    1894:	00000172 	andeq	r0, r0, r2, ror r1
    1898:	001d2802 	andseq	r2, sp, r2, lsl #16
    189c:	00016b08 	andeq	r6, r1, r8, lsl #22
    18a0:	1d300200 	ldcne	2, cr0, [r0, #-0]
    18a4:	01330800 	teqeq	r3, r0, lsl #16
    18a8:	38020000 	stmdacc	r2, {}	@ <UNPREDICTABLE>
    18ac:	3a08001d 	bcc	201928 <_binary_assets_romhdr_bin_size+0x201869>
    18b0:	02000001 	andeq	r0, r0, #1
    18b4:	08001d40 	stmdaeq	r0, {r6, r8, sl, fp, ip}
    18b8:	00000141 	andeq	r0, r0, r1, asr #2
    18bc:	001d4802 	andseq	r4, sp, r2, lsl #16
    18c0:	00014808 	andeq	r4, r1, r8, lsl #16
    18c4:	1d500200 	ldclne	2, cr0, [r0, #-0]
    18c8:	014f0800 	cmpeq	pc, r0, lsl #16
    18cc:	58020000 	stmdapl	r2, {}	@ <UNPREDICTABLE>
    18d0:	5608001d 			@ <UNDEFINED> instruction: 0x5608001d
    18d4:	02000001 	andeq	r0, r0, #1
    18d8:	08001d60 	stmdaeq	r0, {r5, r6, r8, sl, fp, ip}
    18dc:	0000015d 	andeq	r0, r0, sp, asr r1
    18e0:	00c90000 	sbceq	r0, r9, r0
    18e4:	00050000 	andeq	r0, r5, r0
    18e8:	0e200401 	cdpeq	4, 2, cr0, cr0, cr1, {0}
    18ec:	37030000 	strcc	r0, [r3, -r0]
    18f0:	1d000001 	stcne	0, cr0, [r0, #-4]
    18f4:	03164703 	tsteq	r6, #786432	@ 0xc0000
    18f8:	00076600 	andeq	r6, r7, r0, lsl #12
    18fc:	0000f900 	andeq	pc, r0, r0, lsl #18
    1900:	001d6c00 	andseq	r6, sp, r0, lsl #24
    1904:	00001408 	andeq	r1, r0, r8, lsl #8
    1908:	00113000 	andseq	r3, r1, r0
    190c:	06010100 	streq	r0, [r1], -r0, lsl #2
    1910:	00000042 	andeq	r0, r0, r2, asr #32
    1914:	95050201 	strls	r0, [r5, #-513]	@ 0xfffffdff
    1918:	01000000 	mrseq	r0, (UNDEF: 0)
    191c:	01220504 			@ <UNDEFINED> instruction: 0x01220504
    1920:	08010000 	stmdaeq	r1, {}	@ <UNPREDICTABLE>
    1924:	00011d05 	andeq	r1, r1, r5, lsl #26
    1928:	08010100 	stmdaeq	r1, {r8}
    192c:	00000040 	andeq	r0, r0, r0, asr #32
    1930:	56070201 	strpl	r0, [r7], -r1, lsl #4
    1934:	01000000 	mrseq	r0, (UNDEF: 0)
    1938:	00d30704 	sbcseq	r0, r3, r4, lsl #14
    193c:	08010000 	stmdaeq	r1, {}	@ <UNPREDICTABLE>
    1940:	0000ce07 	andeq	ip, r0, r7, lsl #28
    1944:	05040400 	streq	r0, [r4, #-1024]	@ 0xfffffc00
    1948:	00746e69 	rsbseq	r6, r4, r9, ror #28
    194c:	d8070401 	stmdale	r7, {r0, sl}
    1950:	05000000 	streq	r0, [r0, #-0]
    1954:	00470107 	subeq	r0, r7, r7, lsl #2
    1958:	04020000 	streq	r0, [r2], #-0
    195c:	00008c0e 	andeq	r8, r0, lr, lsl #24
    1960:	01ba0200 			@ <UNDEFINED> instruction: 0x01ba0200
    1964:	02000000 	andeq	r0, r0, #0
    1968:	000001cc 	andeq	r0, r0, ip, asr #3
    196c:	e3060001 	tst	r6, #1
    1970:	02000001 	andeq	r0, r0, #1
    1974:	00710307 	rsbseq	r0, r1, r7, lsl #6
    1978:	da070000 	ble	1c1980 <_binary_assets_romhdr_bin_size+0x1c18c1>
    197c:	02000001 	andeq	r0, r0, #1
    1980:	00aa0609 	adceq	r0, sl, r9, lsl #12
    1984:	8c080000 	stchi	0, cr0, [r8], {-0}
    1988:	00000000 	andeq	r0, r0, r0
    198c:	00071709 	andeq	r1, r7, r9, lsl #14
    1990:	06060100 	streq	r0, [r6], -r0, lsl #2
    1994:	08001d6c 	stmdaeq	r0, {r2, r3, r5, r6, r8, sl, fp, ip}
    1998:	00000014 	andeq	r0, r0, r4, lsl r0
    199c:	780a9c01 	stmdavc	sl, {r0, sl, fp, ip, pc}
    19a0:	9808001d 	stmdals	r8, {r0, r2, r3, r4}
    19a4:	0b000000 	bleq	19ac <_binary_assets_romhdr_bin_size+0x18ed>
    19a8:	30015001 	andcc	r5, r1, r1
    19ac:	c9000000 	stmdbgt	r0, {}	@ <UNPREDICTABLE>
    19b0:	05000000 	streq	r0, [r0, #-0]
    19b4:	c2040100 	andgt	r0, r4, #0, 2
    19b8:	0300000e 	tsteq	r0, #14
    19bc:	00000137 	andeq	r0, r0, r7, lsr r1
    19c0:	1647031d 			@ <UNDEFINED> instruction: 0x1647031d
    19c4:	077b0003 	ldrbeq	r0, [fp, -r3]!
    19c8:	00f90000 	rscseq	r0, r9, r0
    19cc:	1d800000 	stcne	0, cr0, [r0]
    19d0:	00140800 	andseq	r0, r4, r0, lsl #16
    19d4:	11980000 	orrsne	r0, r8, r0
    19d8:	01010000 	mrseq	r0, (UNDEF: 1)
    19dc:	00004206 	andeq	r4, r0, r6, lsl #4
    19e0:	05020100 	streq	r0, [r2, #-256]	@ 0xffffff00
    19e4:	00000095 	muleq	r0, r5, r0
    19e8:	22050401 	andcs	r0, r5, #16777216	@ 0x1000000
    19ec:	01000001 	tsteq	r0, r1
    19f0:	011d0508 	tsteq	sp, r8, lsl #10
    19f4:	01010000 	mrseq	r0, (UNDEF: 1)
    19f8:	00004008 	andeq	r4, r0, r8
    19fc:	07020100 	streq	r0, [r2, -r0, lsl #2]
    1a00:	00000056 	andeq	r0, r0, r6, asr r0
    1a04:	d3070401 	tstle	r7, #16777216	@ 0x1000000
    1a08:	01000000 	mrseq	r0, (UNDEF: 0)
    1a0c:	00ce0708 	sbceq	r0, lr, r8, lsl #14
    1a10:	04040000 	streq	r0, [r4], #-0
    1a14:	746e6905 	strbtvc	r6, [lr], #-2309	@ 0xfffff6fb
    1a18:	07040100 	streq	r0, [r4, -r0, lsl #2]
    1a1c:	000000d8 			@ <UNDEFINED> instruction: 0x000000d8
    1a20:	47010705 	strmi	r0, [r1, -r5, lsl #14]
    1a24:	02000000 	andeq	r0, r0, #0
    1a28:	008c0e04 	addeq	r0, ip, r4, lsl #28
    1a2c:	ba020000 	blt	81a34 <_binary_assets_romhdr_bin_size+0x81975>
    1a30:	00000001 	andeq	r0, r0, r1
    1a34:	0001cc02 	andeq	ip, r1, r2, lsl #24
    1a38:	06000100 	streq	r0, [r0], -r0, lsl #2
    1a3c:	000001e3 	andeq	r0, r0, r3, ror #3
    1a40:	71030702 	tstvc	r3, r2, lsl #14
    1a44:	07000000 	streq	r0, [r0, -r0]
    1a48:	000001da 			@ <UNDEFINED> instruction: 0x000001da
    1a4c:	aa060902 	bge	183e5c <_binary_assets_romhdr_bin_size+0x183d9d>
    1a50:	08000000 	stmdaeq	r0, {}	@ <UNPREDICTABLE>
    1a54:	0000008c 	andeq	r0, r0, ip, lsl #1
    1a58:	074c0900 	strbeq	r0, [ip, -r0, lsl #18]
    1a5c:	05010000 	streq	r0, [r1, #-0]
    1a60:	001d8006 	andseq	r8, sp, r6
    1a64:	00001408 	andeq	r1, r0, r8, lsl #8
    1a68:	0a9c0100 	beq	fe701e70 <IntrRet+0xf66ff788>
    1a6c:	08001d8c 	stmdaeq	r0, {r2, r3, r7, r8, sl, fp, ip}
    1a70:	00000098 	muleq	r0, r8, r0
    1a74:	0150010b 	cmpeq	r0, fp, lsl #2
    1a78:	00000030 	andeq	r0, r0, r0, lsr r0
    1a7c:	000000c9 	andeq	r0, r0, r9, asr #1
    1a80:	04010005 	streq	r0, [r1], #-5
    1a84:	00000f64 	andeq	r0, r0, r4, ror #30
    1a88:	00013703 	andeq	r3, r1, r3, lsl #14
    1a8c:	47031d00 	strmi	r1, [r3, -r0, lsl #26]
    1a90:	90000316 	andls	r0, r0, r6, lsl r3
    1a94:	f9000007 			@ <UNDEFINED> instruction: 0xf9000007
    1a98:	94000000 	strls	r0, [r0], #-0
    1a9c:	1408001d 	strne	r0, [r8], #-29	@ 0xffffffe3
    1aa0:	00000000 	andeq	r0, r0, r0
    1aa4:	01000012 	tsteq	r0, r2, lsl r0
    1aa8:	00420601 	subeq	r0, r2, r1, lsl #12
    1aac:	02010000 	andeq	r0, r1, #0
    1ab0:	00009505 	andeq	r9, r0, r5, lsl #10
    1ab4:	05040100 	streq	r0, [r4, #-256]	@ 0xffffff00
    1ab8:	00000122 	andeq	r0, r0, r2, lsr #2
    1abc:	1d050801 	stcne	8, cr0, [r5, #-4]
    1ac0:	01000001 	tsteq	r0, r1
    1ac4:	00400801 	subeq	r0, r0, r1, lsl #16
    1ac8:	02010000 	andeq	r0, r1, #0
    1acc:	00005607 	andeq	r5, r0, r7, lsl #12
    1ad0:	07040100 	streq	r0, [r4, -r0, lsl #2]
    1ad4:	000000d3 			@ <UNDEFINED> instruction: 0x000000d3
    1ad8:	ce070801 	cdpgt	8, 0, cr0, cr7, cr1, {0}
    1adc:	04000000 	streq	r0, [r0], #-0
    1ae0:	6e690504 	cdpvs	5, 6, cr0, cr9, cr4, {0}
    1ae4:	04010074 	streq	r0, [r1], #-116	@ 0xffffff8c
    1ae8:	0000d807 	andeq	sp, r0, r7, lsl #16
    1aec:	01070500 	tsteq	r7, r0, lsl #10
    1af0:	00000047 	andeq	r0, r0, r7, asr #32
    1af4:	8c0e0402 	stchi	4, cr0, [lr], {2}
    1af8:	02000000 	andeq	r0, r0, #0
    1afc:	000001ba 			@ <UNDEFINED> instruction: 0x000001ba
    1b00:	01cc0200 	biceq	r0, ip, r0, lsl #4
    1b04:	00010000 	andeq	r0, r1, r0
    1b08:	0001e306 	andeq	lr, r1, r6, lsl #6
    1b0c:	03070200 	tsteq	r7, #0, 4
    1b10:	00000071 	andeq	r0, r0, r1, ror r0
    1b14:	0001da07 	andeq	sp, r1, r7, lsl #20
    1b18:	06090200 	streq	r0, [r9], -r0, lsl #4
    1b1c:	000000aa 	andeq	r0, r0, sl, lsr #1
    1b20:	00008c08 	andeq	r8, r0, r8, lsl #24
    1b24:	26090000 	strcs	r0, [r9], -r0
    1b28:	01000007 	tsteq	r0, r7
    1b2c:	1d940605 	ldcne	6, cr0, [r4, #20]
    1b30:	00140800 	andseq	r0, r4, r0, lsl #16
    1b34:	9c010000 	stcls	0, cr0, [r1], {-0}
    1b38:	001da00a 	andseq	sl, sp, sl
    1b3c:	00009808 	andeq	r9, r0, r8, lsl #16
    1b40:	50010b00 	andpl	r0, r1, r0, lsl #22
    1b44:	00003001 	andeq	r3, r0, r1
    1b48:	0000c900 	andeq	ip, r0, r0, lsl #18
    1b4c:	01000500 	tsteq	r0, r0, lsl #10
    1b50:	00100604 	andseq	r0, r0, r4, lsl #12
    1b54:	01370300 	teqeq	r7, r0, lsl #6
    1b58:	031d0000 	tsteq	sp, #0
    1b5c:	00031647 	andeq	r1, r3, r7, asr #12
    1b60:	000007a6 	andeq	r0, r0, r6, lsr #15
    1b64:	000000f9 			@ <UNDEFINED> instruction: 0x000000f9
    1b68:	08001da8 	stmdaeq	r0, {r3, r5, r7, r8, sl, fp, ip}
    1b6c:	00000014 	andeq	r0, r0, r4, lsl r0
    1b70:	00001269 	andeq	r1, r0, r9, ror #4
    1b74:	42060101 	andmi	r0, r6, #1073741824	@ 0x40000000
    1b78:	01000000 	mrseq	r0, (UNDEF: 0)
    1b7c:	00950502 	addseq	r0, r5, r2, lsl #10
    1b80:	04010000 	streq	r0, [r1], #-0
    1b84:	00012205 	andeq	r2, r1, r5, lsl #4
    1b88:	05080100 	streq	r0, [r8, #-256]	@ 0xffffff00
    1b8c:	0000011d 	andeq	r0, r0, sp, lsl r1
    1b90:	40080101 	andmi	r0, r8, r1, lsl #2
    1b94:	01000000 	mrseq	r0, (UNDEF: 0)
    1b98:	00560702 	subseq	r0, r6, r2, lsl #14
    1b9c:	04010000 	streq	r0, [r1], #-0
    1ba0:	0000d307 	andeq	sp, r0, r7, lsl #6
    1ba4:	07080100 	streq	r0, [r8, -r0, lsl #2]
    1ba8:	000000ce 	andeq	r0, r0, lr, asr #1
    1bac:	69050404 	stmdbvs	r5, {r2, sl}
    1bb0:	0100746e 	tsteq	r0, lr, ror #8
    1bb4:	00d80704 	sbcseq	r0, r8, r4, lsl #14
    1bb8:	07050000 	streq	r0, [r5, -r0]
    1bbc:	00004701 	andeq	r4, r0, r1, lsl #14
    1bc0:	0e040200 	cdpeq	2, 0, cr0, cr4, cr0, {0}
    1bc4:	0000008c 	andeq	r0, r0, ip, lsl #1
    1bc8:	0001ba02 	andeq	fp, r1, r2, lsl #20
    1bcc:	cc020000 	stcgt	0, cr0, [r2], {-0}
    1bd0:	01000001 	tsteq	r0, r1
    1bd4:	01e30600 	mvneq	r0, r0, lsl #12
    1bd8:	07020000 	streq	r0, [r2, -r0]
    1bdc:	00007103 	andeq	r7, r0, r3, lsl #2
    1be0:	01da0700 	bicseq	r0, sl, r0, lsl #14
    1be4:	09020000 	stmdbeq	r2, {}	@ <UNPREDICTABLE>
    1be8:	0000aa06 	andeq	sl, r0, r6, lsl #20
    1bec:	008c0800 	addeq	r0, ip, r0, lsl #16
    1bf0:	09000000 	stmdbeq	r0, {}	@ <UNPREDICTABLE>
    1bf4:	00000736 	andeq	r0, r0, r6, lsr r7
    1bf8:	a8060501 	stmdage	r6, {r0, r8, sl}
    1bfc:	1408001d 	strne	r0, [r8], #-29	@ 0xffffffe3
    1c00:	01000000 	mrseq	r0, (UNDEF: 0)
    1c04:	1db40a9c 			@ <UNDEFINED> instruction: 0x1db40a9c
    1c08:	00980800 	addseq	r0, r8, r0, lsl #16
    1c0c:	010b0000 	mrseq	r0, (UNDEF: 11)
    1c10:	00300150 	eorseq	r0, r0, r0, asr r1
    1c14:	00c90000 	sbceq	r0, r9, r0
    1c18:	00050000 	andeq	r0, r5, r0
    1c1c:	10a80401 	adcne	r0, r8, r1, lsl #8
    1c20:	37030000 	strcc	r0, [r3, -r0]
    1c24:	1d000001 	stcne	0, cr0, [r0, #-4]
    1c28:	03164703 	tsteq	r6, #786432	@ 0xc0000
    1c2c:	0007c200 	andeq	ip, r7, r0, lsl #4
    1c30:	0000f900 	andeq	pc, r0, r0, lsl #18
    1c34:	001dbc00 	andseq	fp, sp, r0, lsl #24
    1c38:	00001408 	andeq	r1, r0, r8, lsl #8
    1c3c:	0012d800 	andseq	sp, r2, r0, lsl #16
    1c40:	06010100 	streq	r0, [r1], -r0, lsl #2
    1c44:	00000042 	andeq	r0, r0, r2, asr #32
    1c48:	95050201 	strls	r0, [r5, #-513]	@ 0xfffffdff
    1c4c:	01000000 	mrseq	r0, (UNDEF: 0)
    1c50:	01220504 			@ <UNDEFINED> instruction: 0x01220504
    1c54:	08010000 	stmdaeq	r1, {}	@ <UNPREDICTABLE>
    1c58:	00011d05 	andeq	r1, r1, r5, lsl #26
    1c5c:	08010100 	stmdaeq	r1, {r8}
    1c60:	00000040 	andeq	r0, r0, r0, asr #32
    1c64:	56070201 	strpl	r0, [r7], -r1, lsl #4
    1c68:	01000000 	mrseq	r0, (UNDEF: 0)
    1c6c:	00d30704 	sbcseq	r0, r3, r4, lsl #14
    1c70:	08010000 	stmdaeq	r1, {}	@ <UNPREDICTABLE>
    1c74:	0000ce07 	andeq	ip, r0, r7, lsl #28
    1c78:	05040400 	streq	r0, [r4, #-1024]	@ 0xfffffc00
    1c7c:	00746e69 	rsbseq	r6, r4, r9, ror #28
    1c80:	d8070401 	stmdale	r7, {r0, sl}
    1c84:	05000000 	streq	r0, [r0, #-0]
    1c88:	00470107 	subeq	r0, r7, r7, lsl #2
    1c8c:	04020000 	streq	r0, [r2], #-0
    1c90:	00008c0e 	andeq	r8, r0, lr, lsl #24
    1c94:	01ba0200 			@ <UNDEFINED> instruction: 0x01ba0200
    1c98:	02000000 	andeq	r0, r0, #0
    1c9c:	000001cc 	andeq	r0, r0, ip, asr #3
    1ca0:	e3060001 	tst	r6, #1
    1ca4:	02000001 	andeq	r0, r0, #1
    1ca8:	00710307 	rsbseq	r0, r1, r7, lsl #6
    1cac:	da070000 	ble	1c1cb4 <_binary_assets_romhdr_bin_size+0x1c1bf5>
    1cb0:	02000001 	andeq	r0, r0, #1
    1cb4:	00aa0609 	adceq	r0, sl, r9, lsl #12
    1cb8:	8c080000 	stchi	0, cr0, [r8], {-0}
    1cbc:	00000000 	andeq	r0, r0, r0
    1cc0:	0006ef09 	andeq	lr, r6, r9, lsl #30
    1cc4:	06050100 	streq	r0, [r5], -r0, lsl #2
    1cc8:	08001dbc 	stmdaeq	r0, {r2, r3, r4, r5, r7, r8, sl, fp, ip}
    1ccc:	00000014 	andeq	r0, r0, r4, lsl r0
    1cd0:	c80a9c01 	stmdagt	sl, {r0, sl, fp, ip, pc}
    1cd4:	9808001d 	stmdals	r8, {r0, r2, r3, r4}
    1cd8:	0b000000 	bleq	1ce0 <_binary_assets_romhdr_bin_size+0x1c21>
    1cdc:	30015001 	andcc	r5, r1, r1
    1ce0:	c9000000 	stmdbgt	r0, {}	@ <UNPREDICTABLE>
    1ce4:	05000000 	streq	r0, [r0, #-0]
    1ce8:	4a040100 	bmi	1020f0 <_binary_assets_romhdr_bin_size+0x102031>
    1cec:	03000011 	tsteq	r0, #17
    1cf0:	00000137 	andeq	r0, r0, r7, lsr r1
    1cf4:	1647031d 			@ <UNDEFINED> instruction: 0x1647031d
    1cf8:	07da0003 	ldrbeq	r0, [sl, r3]
    1cfc:	00f90000 	rscseq	r0, r9, r0
    1d00:	1dd00000 	ldclne	0, cr0, [r0]
    1d04:	00140800 	andseq	r0, r4, r0, lsl #16
    1d08:	13430000 	cmpne	r3, #0
    1d0c:	01010000 	mrseq	r0, (UNDEF: 1)
    1d10:	00004206 	andeq	r4, r0, r6, lsl #4
    1d14:	05020100 	streq	r0, [r2, #-256]	@ 0xffffff00
    1d18:	00000095 	muleq	r0, r5, r0
    1d1c:	22050401 	andcs	r0, r5, #16777216	@ 0x1000000
    1d20:	01000001 	tsteq	r0, r1
    1d24:	011d0508 	tsteq	sp, r8, lsl #10
    1d28:	01010000 	mrseq	r0, (UNDEF: 1)
    1d2c:	00004008 	andeq	r4, r0, r8
    1d30:	07020100 	streq	r0, [r2, -r0, lsl #2]
    1d34:	00000056 	andeq	r0, r0, r6, asr r0
    1d38:	d3070401 	tstle	r7, #16777216	@ 0x1000000
    1d3c:	01000000 	mrseq	r0, (UNDEF: 0)
    1d40:	00ce0708 	sbceq	r0, lr, r8, lsl #14
    1d44:	04040000 	streq	r0, [r4], #-0
    1d48:	746e6905 	strbtvc	r6, [lr], #-2309	@ 0xfffff6fb
    1d4c:	07040100 	streq	r0, [r4, -r0, lsl #2]
    1d50:	000000d8 			@ <UNDEFINED> instruction: 0x000000d8
    1d54:	47010705 	strmi	r0, [r1, -r5, lsl #14]
    1d58:	02000000 	andeq	r0, r0, #0
    1d5c:	008c0e04 	addeq	r0, ip, r4, lsl #28
    1d60:	ba020000 	blt	81d68 <_binary_assets_romhdr_bin_size+0x81ca9>
    1d64:	00000001 	andeq	r0, r0, r1
    1d68:	0001cc02 	andeq	ip, r1, r2, lsl #24
    1d6c:	06000100 	streq	r0, [r0], -r0, lsl #2
    1d70:	000001e3 	andeq	r0, r0, r3, ror #3
    1d74:	71030702 	tstvc	r3, r2, lsl #14
    1d78:	07000000 	streq	r0, [r0, -r0]
    1d7c:	000001da 			@ <UNDEFINED> instruction: 0x000001da
    1d80:	aa060902 	bge	184190 <_binary_assets_romhdr_bin_size+0x1840d1>
    1d84:	08000000 	stmdaeq	r0, {}	@ <UNPREDICTABLE>
    1d88:	0000008c 	andeq	r0, r0, ip, lsl #1
    1d8c:	06d20900 	ldrbeq	r0, [r2], r0, lsl #18
    1d90:	05010000 	streq	r0, [r1, #-0]
    1d94:	001dd006 	andseq	sp, sp, r6
    1d98:	00001408 	andeq	r1, r0, r8, lsl #8
    1d9c:	0a9c0100 	beq	fe7021a4 <IntrRet+0xf66ffabc>
    1da0:	08001ddc 	stmdaeq	r0, {r2, r3, r4, r6, r7, r8, sl, fp, ip}
    1da4:	00000098 	muleq	r0, r8, r0
    1da8:	0150010b 	cmpeq	r0, fp, lsl #2
    1dac:	00000030 	andeq	r0, r0, r0, lsr r0
    1db0:	000000c9 	andeq	r0, r0, r9, asr #1
    1db4:	04010005 	streq	r0, [r1], #-5
    1db8:	000011ec 	andeq	r1, r0, ip, ror #3
    1dbc:	00013703 	andeq	r3, r1, r3, lsl #14
    1dc0:	47031d00 	strmi	r1, [r3, -r0, lsl #26]
    1dc4:	ed000316 	stc	3, cr0, [r0, #-88]	@ 0xffffffa8
    1dc8:	f9000007 			@ <UNDEFINED> instruction: 0xf9000007
    1dcc:	e4000000 	str	r0, [r0], #-0
    1dd0:	1408001d 	strne	r0, [r8], #-29	@ 0xffffffe3
    1dd4:	a9000000 	stmdbge	r0, {}	@ <UNPREDICTABLE>
    1dd8:	01000013 	tsteq	r0, r3, lsl r0
    1ddc:	00420601 	subeq	r0, r2, r1, lsl #12
    1de0:	02010000 	andeq	r0, r1, #0
    1de4:	00009505 	andeq	r9, r0, r5, lsl #10
    1de8:	05040100 	streq	r0, [r4, #-256]	@ 0xffffff00
    1dec:	00000122 	andeq	r0, r0, r2, lsr #2
    1df0:	1d050801 	stcne	8, cr0, [r5, #-4]
    1df4:	01000001 	tsteq	r0, r1
    1df8:	00400801 	subeq	r0, r0, r1, lsl #16
    1dfc:	02010000 	andeq	r0, r1, #0
    1e00:	00005607 	andeq	r5, r0, r7, lsl #12
    1e04:	07040100 	streq	r0, [r4, -r0, lsl #2]
    1e08:	000000d3 			@ <UNDEFINED> instruction: 0x000000d3
    1e0c:	ce070801 	cdpgt	8, 0, cr0, cr7, cr1, {0}
    1e10:	04000000 	streq	r0, [r0], #-0
    1e14:	6e690504 	cdpvs	5, 6, cr0, cr9, cr4, {0}
    1e18:	04010074 	streq	r0, [r1], #-116	@ 0xffffff8c
    1e1c:	0000d807 	andeq	sp, r0, r7, lsl #16
    1e20:	01070500 	tsteq	r7, r0, lsl #10
    1e24:	00000047 	andeq	r0, r0, r7, asr #32
    1e28:	8c0e0402 	stchi	4, cr0, [lr], {2}
    1e2c:	02000000 	andeq	r0, r0, #0
    1e30:	000001ba 			@ <UNDEFINED> instruction: 0x000001ba
    1e34:	01cc0200 	biceq	r0, ip, r0, lsl #4
    1e38:	00010000 	andeq	r0, r1, r0
    1e3c:	0001e306 	andeq	lr, r1, r6, lsl #6
    1e40:	03070200 	tsteq	r7, #0, 4
    1e44:	00000071 	andeq	r0, r0, r1, ror r0
    1e48:	0001da07 	andeq	sp, r1, r7, lsl #20
    1e4c:	06090200 	streq	r0, [r9], -r0, lsl #4
    1e50:	000000aa 	andeq	r0, r0, sl, lsr #1
    1e54:	00008c08 	andeq	r8, r0, r8, lsl #24
    1e58:	df090000 	svcle	0x00090000
    1e5c:	01000006 	tsteq	r0, r6
    1e60:	1de40605 	stclne	6, cr0, [r4, #20]!
    1e64:	00140800 	andseq	r0, r4, r0, lsl #16
    1e68:	9c010000 	stcls	0, cr0, [r1], {-0}
    1e6c:	001df00a 	andseq	pc, sp, sl
    1e70:	00009808 	andeq	r9, r0, r8, lsl #16
    1e74:	50010b00 	andpl	r0, r1, r0, lsl #22
    1e78:	00003001 	andeq	r3, r0, r1
    1e7c:	00013200 	andeq	r3, r1, r0, lsl #4
    1e80:	01000500 	tsteq	r0, r0, lsl #10
    1e84:	00128e04 	andseq	r8, r2, r4, lsl #28
    1e88:	08030400 	stmdaeq	r3, {sl}
    1e8c:	551d0000 	ldrpl	r0, [sp, #-0]
    1e90:	b4000008 	strlt	r0, [r0], #-8
    1e94:	cc000008 	stcgt	0, cr0, [r0], {8}
    1e98:	00000000 	andeq	r0, r0, r0
    1e9c:	12000000 	andne	r0, r0, #0
    1ea0:	01000014 	tsteq	r0, r4, lsl r0
    1ea4:	00ce0708 	sbceq	r0, lr, r8, lsl #14
    1ea8:	04010000 	streq	r0, [r1], #-0
    1eac:	0000d807 	andeq	sp, r0, r7, lsl #16
    1eb0:	06010100 	streq	r0, [r1], -r0, lsl #2
    1eb4:	00000042 	andeq	r0, r0, r2, asr #32
    1eb8:	40080101 	andmi	r0, r8, r1, lsl #2
    1ebc:	01000000 	mrseq	r0, (UNDEF: 0)
    1ec0:	00950502 	addseq	r0, r5, r2, lsl #10
    1ec4:	02010000 	andeq	r0, r1, #0
    1ec8:	00005607 	andeq	r5, r0, r7, lsl #12
    1ecc:	05040100 	streq	r0, [r4, #-256]	@ 0xffffff00
    1ed0:	00000122 	andeq	r0, r0, r2, lsr #2
    1ed4:	0008a903 	andeq	sl, r8, r3, lsl #18
    1ed8:	194f0200 	stmdbne	pc, {r9}^	@ <UNPREDICTABLE>
    1edc:	00000063 	andeq	r0, r0, r3, rrx
    1ee0:	d3070401 	tstle	r7, #16777216	@ 0x1000000
    1ee4:	01000000 	mrseq	r0, (UNDEF: 0)
    1ee8:	011d0508 	tsteq	sp, r8, lsl #10
    1eec:	04050000 	streq	r0, [r5], #-0
    1ef0:	746e6905 	strbtvc	r6, [lr], #-2309	@ 0xfffff6fb
    1ef4:	08ab0300 	stmiaeq	fp!, {r8, r9}
    1ef8:	30030000 	andcc	r0, r3, r0
    1efc:	00005714 	andeq	r5, r0, r4, lsl r7
    1f00:	33750600 	cmncc	r5, #0, 12
    1f04:	2d040032 	stccs	0, cr0, [r4, #-200]	@ 0xffffff38
    1f08:	00007812 	andeq	r7, r0, r2, lsl r8
    1f0c:	020a0700 	andeq	r0, sl, #0, 14
    1f10:	25010000 	strcs	r0, [r1, #-0]
    1f14:	001dfc06 	andseq	pc, sp, r6, lsl #24
    1f18:	00000408 	andeq	r0, r0, r8, lsl #8
    1f1c:	e09c0100 	adds	r0, ip, r0, lsl #2
    1f20:	02000000 	andeq	r0, r0, #0
    1f24:	00000901 	andeq	r0, r0, r1, lsl #18
    1f28:	00e01e25 	rsceq	r1, r0, r5, lsr #28
    1f2c:	03710000 	cmneq	r1, #0
    1f30:	036d0000 	cmneq	sp, #0
    1f34:	50020000 	andpl	r0, r2, r0
    1f38:	25000008 	strcs	r0, [r0, #-8]
    1f3c:	0000e72d 	andeq	lr, r0, sp, lsr #14
    1f40:	00038e00 	andeq	r8, r3, r0, lsl #28
    1f44:	00038a00 	andeq	r8, r3, r0, lsl #20
    1f48:	038a0200 	orreq	r0, sl, #0, 4
    1f4c:	37250000 	strcc	r0, [r5, -r0]!
    1f50:	00000084 	andeq	r0, r0, r4, lsl #1
    1f54:	000003ab 	andeq	r0, r0, fp, lsr #7
    1f58:	000003a7 	andeq	r0, r0, r7, lsr #7
    1f5c:	e6040800 	str	r0, [r4], -r0, lsl #16
    1f60:	09000000 	stmdbeq	r0, {}	@ <UNPREDICTABLE>
    1f64:	290b040a 	stmdbcs	fp, {r1, r3, sl}
    1f68:	01000002 	tsteq	r0, r2
    1f6c:	1df8061e 	ldclne	6, cr0, [r8, #120]!	@ 0x78
    1f70:	00040800 	andeq	r0, r4, r0, lsl #16
    1f74:	9c010000 	stcls	0, cr0, [r1], {-0}
    1f78:	00090102 	andeq	r0, r9, r2, lsl #2
    1f7c:	e01a1e00 	ands	r1, sl, r0, lsl #28
    1f80:	c8000000 	stmdagt	r0, {}	@ <UNPREDICTABLE>
    1f84:	c4000003 	strgt	r0, [r0], #-3
    1f88:	02000003 	andeq	r0, r0, #3
    1f8c:	00000850 	andeq	r0, r0, r0, asr r8
    1f90:	00e7291e 	rsceq	r2, r7, lr, lsl r9
    1f94:	03e50000 	mvneq	r0, #0
    1f98:	03e10000 	mvneq	r0, #0
    1f9c:	8a020000 	bhi	81fa4 <_binary_assets_romhdr_bin_size+0x81ee5>
    1fa0:	1e000003 	cdpne	0, 0, cr0, cr0, cr3, {0}
    1fa4:	00008433 	andeq	r8, r0, r3, lsr r4
    1fa8:	00040200 	andeq	r0, r4, r0, lsl #4
    1fac:	0003fe00 	andeq	pc, r3, r0, lsl #28
    1fb0:	14000000 	strne	r0, [r0], #-0
    1fb4:	05000004 	streq	r0, [r0, #-4]
    1fb8:	34040100 	strcc	r0, [r4], #-256	@ 0xffffff00
    1fbc:	15000013 	strne	r0, [r0, #-19]	@ 0xffffffed
    1fc0:	00000803 	andeq	r0, r0, r3, lsl #16
    1fc4:	0009111d 	andeq	r1, r9, sp, lsl r1
    1fc8:	0008b400 	andeq	fp, r8, r0, lsl #8
    1fcc:	001e0000 	andseq	r0, lr, r0
    1fd0:	0003c408 	andeq	ip, r3, r8, lsl #8
    1fd4:	00159000 	andseq	r9, r5, r0
    1fd8:	07080200 	streq	r0, [r8, -r0, lsl #4]
    1fdc:	000000ce 	andeq	r0, r0, lr, asr #1
    1fe0:	56070202 	strpl	r0, [r7], -r2, lsl #4
    1fe4:	02000000 	andeq	r0, r0, #0
    1fe8:	00d80704 	sbcseq	r0, r8, r4, lsl #14
    1fec:	01020000 	mrseq	r0, (UNDEF: 2)
    1ff0:	00004206 	andeq	r4, r0, r6, lsl #4
    1ff4:	08010200 	stmdaeq	r1, {r9}
    1ff8:	00000040 	andeq	r0, r0, r0, asr #32
    1ffc:	95050202 	strls	r0, [r5, #-514]	@ 0xfffffdfe
    2000:	03000000 	tsteq	r0, #0
    2004:	00000987 	andeq	r0, r0, r7, lsl #19
    2008:	2d193902 			@ <UNDEFINED> instruction: 0x2d193902
    200c:	02000000 	andeq	r0, r0, #0
    2010:	01220504 			@ <UNDEFINED> instruction: 0x01220504
    2014:	a9030000 	stmdbge	r3, {}	@ <UNPREDICTABLE>
    2018:	02000008 	andeq	r0, r0, #8
    201c:	006f194f 	rsbeq	r1, pc, pc, asr #18
    2020:	04020000 	streq	r0, [r2], #-0
    2024:	0000d307 	andeq	sp, r0, r7, lsl #6
    2028:	05080200 	streq	r0, [r8, #-512]	@ 0xfffffe00
    202c:	0000011d 	andeq	r0, r0, sp, lsl r1
    2030:	69050416 	stmdbvs	r5, {r1, r2, r4, sl}
    2034:	0300746e 	tsteq	r0, #1845493760	@ 0x6e000000
    2038:	00000989 	andeq	r0, r0, r9, lsl #19
    203c:	50142403 	andspl	r2, r4, r3, lsl #8
    2040:	03000000 	tsteq	r0, #0
    2044:	000008ab 	andeq	r0, r0, fp, lsr #17
    2048:	63143003 	tstvs	r4, #3
    204c:	0b000000 	bleq	2054 <_binary_assets_romhdr_bin_size+0x1f95>
    2050:	00363175 	eorseq	r3, r6, r5, ror r1
    2054:	0000842c 	andeq	r8, r0, ip, lsr #8
    2058:	009c1700 	addseq	r1, ip, r0, lsl #14
    205c:	750b0000 	strvc	r0, [fp, #-0]
    2060:	2d003233 	stccs	2, cr3, [r0, #-204]	@ 0xffffff34
    2064:	00000090 	muleq	r0, r0, r0
    2068:	00003b03 	andeq	r3, r0, r3, lsl #22
    206c:	16320400 	ldrtne	r0, [r2], -r0, lsl #8
    2070:	000000a6 	andeq	r0, r0, r6, lsr #1
    2074:	00000003 	andeq	r0, r0, r3
    2078:	122e0500 	eorne	r0, lr, #0, 10
    207c:	000000cd 	andeq	r0, r0, sp, asr #1
    2080:	0000d20c 	andeq	sp, r0, ip, lsl #4
    2084:	ec191800 	ldc	8, cr1, [r9], {-0}
    2088:	08000009 	stmdaeq	r0, {r0, r3}
    208c:	f7083005 			@ <UNDEFINED> instruction: 0xf7083005
    2090:	0d000000 	stceq	0, cr0, [r0, #-0]
    2094:	00000992 	muleq	r0, r2, r9
    2098:	0000c117 	andeq	ip, r0, r7, lsl r1
    209c:	110d0000 	mrsne	r0, (UNDEF: 13)
    20a0:	2400000a 	strcs	r0, [r0], #-10
    20a4:	000000ab 	andeq	r0, r0, fp, lsr #1
    20a8:	060e0004 	streq	r0, [lr], -r4
    20ac:	02000000 	andeq	r0, r0, #0
    20b0:	0000002d 	andeq	r0, r0, sp, lsr #32
    20b4:	630e5705 	tstvs	lr, #1310720	@ 0x140000
    20b8:	01000001 	tsteq	r0, r1
    20bc:	000001af 	andeq	r0, r0, pc, lsr #3
    20c0:	009f0101 	addseq	r0, pc, r1, lsl #2
    20c4:	01020000 	mrseq	r0, (UNDEF: 2)
    20c8:	0000018f 	andeq	r0, r0, pc, lsl #3
    20cc:	00690104 	rsbeq	r0, r9, r4, lsl #2
    20d0:	01080000 	mrseq	r0, (UNDEF: 8)
    20d4:	00000074 	andeq	r0, r0, r4, ror r0
    20d8:	007f0110 	rsbseq	r0, pc, r0, lsl r1	@ <UNPREDICTABLE>
    20dc:	01200000 			@ <UNDEFINED> instruction: 0x01200000
    20e0:	0000008a 	andeq	r0, r0, sl, lsl #1
    20e4:	01a40140 			@ <UNDEFINED> instruction: 0x01a40140
    20e8:	04800000 	streq	r0, [r0], #0
    20ec:	000000aa 	andeq	r0, r0, sl, lsr #1
    20f0:	b3040100 	tstlt	r4, #0, 2
    20f4:	00000000 	andeq	r0, r0, r0
    20f8:	00bc0402 	adcseq	r0, ip, r2, lsl #8
    20fc:	04000000 	streq	r0, [r0], #-0
    2100:	0000c504 	andeq	ip, r0, r4, lsl #10
    2104:	04080000 	streq	r0, [r8], #-0
    2108:	00000030 	andeq	r0, r0, r0, lsr r0
    210c:	2b041000 	blcs	106114 <_binary_assets_romhdr_bin_size+0x106055>
    2110:	00000001 	andeq	r0, r0, r1
    2114:	4e030020 	cdpmi	0, 0, cr0, cr3, cr0, {1}
    2118:	05000000 	streq	r0, [r0, #-0]
    211c:	00f70366 	rscseq	r0, r7, r6, ror #6
    2120:	d30f0000 	tstle	pc, #0
    2124:	7a000000 	bvc	212c <_binary_assets_romhdr_bin_size+0x206d>
    2128:	1a000001 	bne	2134 <_binary_assets_romhdr_bin_size+0x2075>
    212c:	09fe1b00 	ldmibeq	lr!, {r8, r9, fp, ip}^
    2130:	68050000 	stmdavs	r5, {}	@ <UNPREDICTABLE>
    2134:	00016f18 	andeq	r6, r1, r8, lsl pc
    2138:	09080e00 	stmdbeq	r8, {r9, sl, fp}
    213c:	42010000 	andmi	r0, r1, #0
    2140:	06000000 	streq	r0, [r0], -r0
    2144:	01bc066b 			@ <UNDEFINED> instruction: 0x01bc066b
    2148:	c2010000 	andgt	r0, r1, #0
    214c:	01000009 	tsteq	r0, r9
    2150:	00096801 	andeq	r6, r9, r1, lsl #16
    2154:	dd010200 	stcle	2, cr0, [r1, #-0]
    2158:	04000009 	streq	r0, [r0], #-9
    215c:	000a0801 	andeq	r0, sl, r1, lsl #16
    2160:	b3010800 	tstlt	r1, #0, 16
    2164:	10000009 	andne	r0, r0, r9
    2168:	000a2f01 	andeq	r2, sl, r1, lsl #30
    216c:	0f002000 	svceq	0x00002000
    2170:	000000d3 			@ <UNDEFINED> instruction: 0x000000d3
    2174:	000001cc 	andeq	r0, r0, ip, asr #3
    2178:	0000341c 	andeq	r3, r0, ip, lsl r4
    217c:	1d000e00 	stcne	14, cr0, [r0, #-0]
    2180:	0000017a 	andeq	r0, r0, sl, ror r1
    2184:	bc111f01 	ldclt	15, cr1, [r1], {1}
    2188:	05000001 	streq	r0, [r0, #-1]
    218c:	0034f003 	eorseq	pc, r4, r3
    2190:	09aa1e03 	stmibeq	sl!, {r0, r1, r9, sl, fp, ip}
    2194:	89050000 	stmdbhi	r5, {}	@ <UNPREDICTABLE>
    2198:	0001ec06 	andeq	lr, r1, r6, lsl #24
    219c:	10001f00 	andne	r1, r0, r0, lsl #30
    21a0:	00000a24 	andeq	r0, r0, r4, lsr #20
    21a4:	00020269 	andeq	r0, r2, r9, ror #4
    21a8:	0a110500 	beq	4435b0 <_binary_assets_romhdr_bin_size+0x4434f1>
    21ac:	15690000 	strbne	r0, [r9, #-0]!
    21b0:	0000007d 	andeq	r0, r0, sp, ror r0
    21b4:	09760800 	ldmdbeq	r6!, {fp}^
    21b8:	2c630000 	stclcs	0, cr0, [r3], #-0
    21bc:	4c080021 	stcmi	0, cr0, [r8], {33}	@ 0x21
    21c0:	01000000 	mrseq	r0, (UNDEF: 0)
    21c4:	0002439c 	muleq	r2, ip, r3
    21c8:	0a112000 	beq	44a1d0 <_binary_assets_romhdr_bin_size+0x44a111>
    21cc:	63010000 	tstvs	r1, #0
    21d0:	0001631f 	andeq	r6, r1, pc, lsl r3
    21d4:	07500100 	ldrbeq	r0, [r0, -r0, lsl #2]
    21d8:	000001ec 	andeq	r0, r0, ip, ror #3
    21dc:	0800212c 	stmdaeq	r0, {r2, r3, r5, r8, sp}
    21e0:	00010b02 	andeq	r0, r1, r2, lsl #22
    21e4:	06026500 	streq	r6, [r2], -r0, lsl #10
    21e8:	000001f6 			@ <UNDEFINED> instruction: 0x000001f6
    21ec:	00000429 	andeq	r0, r0, r9, lsr #8
    21f0:	00000427 	andeq	r0, r0, r7, lsr #8
    21f4:	9a100000 	bls	4021fc <_binary_assets_romhdr_bin_size+0x40213d>
    21f8:	57000001 	strpl	r0, [r0, -r1]
    21fc:	00000259 	andeq	r0, r0, r9, asr r2
    2200:	000a1105 	andeq	r1, sl, r5, lsl #2
    2204:	7d165700 	ldcvc	7, cr5, [r6, #-0]
    2208:	00000000 	andeq	r0, r0, r0
    220c:	00099a08 	andeq	r9, r9, r8, lsl #20
    2210:	208c5100 	addcs	r5, ip, r0, lsl #2
    2214:	004c0800 	subeq	r0, ip, r0, lsl #16
    2218:	9c010000 	stcls	0, cr0, [r1], {-0}
    221c:	000002a0 	andeq	r0, r0, r0, lsr #5
    2220:	000a1121 	andeq	r1, sl, r1, lsr #2
    2224:	1e510100 	cdpne	1, 5, cr0, cr1, cr0, {0}
    2228:	00000163 	andeq	r0, r0, r3, ror #2
    222c:	0000043b 	andeq	r0, r0, fp, lsr r4
    2230:	00000437 	andeq	r0, r0, r7, lsr r4
    2234:	00024307 	andeq	r4, r2, r7, lsl #6
    2238:	00208c00 	eoreq	r8, r0, r0, lsl #24
    223c:	01000208 	tsteq	r0, r8, lsl #4
    2240:	02530000 	subseq	r0, r3, #0
    2244:	00024d06 	andeq	r4, r2, r6, lsl #26
    2248:	00045700 	andeq	r5, r4, r0, lsl #14
    224c:	00045300 	andeq	r5, r4, r0, lsl #6
    2250:	11000000 	mrsne	r0, (UNDEF: 0)
    2254:	0000001c 	andeq	r0, r0, ip, lsl r0
    2258:	0002cd3f 	andeq	ip, r2, pc, lsr sp
    225c:	0002cd00 	andeq	ip, r2, r0, lsl #26
    2260:	0a110500 	beq	443668 <_binary_assets_romhdr_bin_size+0x4435a9>
    2264:	173f0000 	ldrne	r0, [pc, -r0]!
    2268:	00000163 	andeq	r0, r0, r3, ror #2
    226c:	0009f505 	andeq	pc, r9, r5, lsl #10
    2270:	c1233f00 			@ <UNDEFINED> instruction: 0xc1233f00
    2274:	12000000 	andne	r0, r0, #0
    2278:	7d410069 	stclvc	0, cr0, [r1, #-420]	@ 0xfffffe5c
    227c:	00000000 	andeq	r0, r0, r0
    2280:	0000c10c 	andeq	ip, r0, ip, lsl #2
    2284:	09d01100 	ldmibeq	r0, {r8, ip}^
    2288:	cd390000 	ldcgt	0, cr0, [r9, #-0]
    228c:	f7000002 			@ <UNDEFINED> instruction: 0xf7000002
    2290:	05000002 	streq	r0, [r0, #-2]
    2294:	00000a11 	andeq	r0, r0, r1, lsl sl
    2298:	01631d39 	cmneq	r3, r9, lsr sp
    229c:	f5050000 			@ <UNDEFINED> instruction: 0xf5050000
    22a0:	39000009 	stmdbcc	r0, {r0, r3}
    22a4:	0000c129 	andeq	ip, r0, r9, lsr #2
    22a8:	5a220000 	bpl	8822b0 <_binary_assets_romhdr_bin_size+0x8821f1>
    22ac:	01000004 	tsteq	r0, r4
    22b0:	0d01062a 	stceq	6, cr0, [r1, #-168]	@ 0xffffff58
    22b4:	12000003 	andne	r0, r0, #3
    22b8:	7d2c0069 	stcvc	0, cr0, [ip, #-420]!	@ 0xfffffe5c
    22bc:	00000000 	andeq	r0, r0, r0
    22c0:	000a1608 	andeq	r1, sl, r8, lsl #12
    22c4:	1e042400 	cdpne	4, 0, cr2, cr4, cr0, {0}
    22c8:	005c0800 	subseq	r0, ip, r0, lsl #16
    22cc:	9c010000 	stcls	0, cr0, [r1], {-0}
    22d0:	00000346 	andeq	r0, r0, r6, asr #6
    22d4:	0002f707 	andeq	pc, r2, r7, lsl #14
    22d8:	001e0400 	andseq	r0, lr, r0, lsl #8
    22dc:	00df0208 	sbcseq	r0, pc, r8, lsl #4
    22e0:	02260000 	eoreq	r0, r6, #0
    22e4:	0000df13 	andeq	sp, r0, r3, lsl pc
    22e8:	03040900 	tsteq	r4, #0, 18
    22ec:	04990000 	ldreq	r0, [r9], #0
    22f0:	04790000 	ldrbteq	r0, [r9], #-0
    22f4:	00000000 	andeq	r0, r0, r0
    22f8:	09bc2300 	ldmibeq	ip!, {r8, r9, sp}
    22fc:	20010000 	andcs	r0, r1, r0
    2300:	001e0006 	andseq	r0, lr, r6
    2304:	00000208 	andeq	r0, r0, r8, lsl #4
    2308:	0a9c0100 	beq	fe702710 <IntrRet+0xf6700028>
    230c:	000002f7 			@ <UNDEFINED> instruction: 0x000002f7
    2310:	08001e60 	stmdaeq	r0, {r5, r6, r9, sl, fp, ip}
    2314:	0000005c 	andeq	r0, r0, ip, asr r0
    2318:	03799c01 	cmneq	r9, #256	@ 0x100
    231c:	04090000 	streq	r0, [r9], #-0
    2320:	1a000003 	bne	2334 <_binary_assets_romhdr_bin_size+0x2275>
    2324:	fa000005 			@ <UNDEFINED> instruction: 0xfa000005
    2328:	00000004 	andeq	r0, r0, r4
    232c:	0002d20a 	andeq	sp, r2, sl, lsl #4
    2330:	001ebc00 	andseq	fp, lr, r0, lsl #24
    2334:	0000e808 	andeq	lr, r0, r8, lsl #16
    2338:	df9c0100 	svcle	0x009c0100
    233c:	06000003 	streq	r0, [r0], -r3
    2340:	000002e0 	andeq	r0, r0, r0, ror #5
    2344:	00000592 	muleq	r0, r2, r5
    2348:	0000058e 	andeq	r0, r0, lr, lsl #11
    234c:	0002eb14 	andeq	lr, r2, r4, lsl fp
    2350:	07510100 	ldrbeq	r0, [r1, -r0, lsl #2]
    2354:	000002a0 	andeq	r0, r0, r0, lsr #5
    2358:	08001ec0 	stmdaeq	r0, {r6, r7, r9, sl, fp, ip}
    235c:	0000e600 	andeq	lr, r0, r0, lsl #12
    2360:	06093b00 	streq	r3, [r9], -r0, lsl #22
    2364:	000002b9 			@ <UNDEFINED> instruction: 0x000002b9
    2368:	000005a5 	andeq	r0, r0, r5, lsr #11
    236c:	000005a1 	andeq	r0, r0, r1, lsr #11
    2370:	0002ae06 	andeq	sl, r2, r6, lsl #28
    2374:	0005b800 	andeq	fp, r5, r0, lsl #16
    2378:	0005b400 	andeq	fp, r5, r0, lsl #8
    237c:	00e61300 	rsceq	r1, r6, r0, lsl #6
    2380:	c4090000 	strgt	r0, [r9], #-0
    2384:	01000002 	tsteq	r0, r2
    2388:	c7000006 	strgt	r0, [r0, -r6]
    238c:	00000005 	andeq	r0, r0, r5
    2390:	430a0000 	tstmi	sl, #0
    2394:	d8000002 	stmdale	r0, {r1}
    2398:	54080020 	strpl	r0, [r8], #-32	@ 0xffffffe0
    239c:	01000000 	mrseq	r0, (UNDEF: 0)
    23a0:	0004009c 	muleq	r4, ip, r0
    23a4:	024d0600 	subeq	r0, sp, #0, 12
    23a8:	06f00000 	ldrbteq	r0, [r0], r0
    23ac:	06ea0000 	strbteq	r0, [sl], r0
    23b0:	24000000 	strcs	r0, [r0], #-0
    23b4:	000001ec 	andeq	r0, r0, ip, ror #3
    23b8:	08002178 	stmdaeq	r0, {r3, r4, r5, r6, r8, sp}
    23bc:	0000004c 	andeq	r0, r0, ip, asr #32
    23c0:	f6149c01 			@ <UNDEFINED> instruction: 0xf6149c01
    23c4:	01000001 	tsteq	r0, r1
    23c8:	21000050 	tstcs	r0, r0, asr r0
    23cc:	05000000 	streq	r0, [r0, #-0]
    23d0:	53040100 	tstpl	r4, #0, 2
    23d4:	01000015 	tsteq	r0, r5, lsl r0
    23d8:	00001ee0 	andeq	r1, r0, r0, ror #29
    23dc:	08002660 	stmdaeq	r0, {r5, r6, r9, sl, sp}
    23e0:	0a3901b8 	beq	e42ac8 <_binary_assets_romhdr_bin_size+0xe42a09>
    23e4:	08b40000 	ldmeq	r4!, {}	@ <UNPREDICTABLE>
    23e8:	0a9a0000 	beq	fe6823f0 <IntrRet+0xf667fd08>
    23ec:	80010000 	andhi	r0, r1, r0
    23f0:	00000020 	andeq	r0, r0, r0, lsr #32
    23f4:	04010005 	streq	r0, [r1], #-5
    23f8:	00001567 	andeq	r1, r0, r7, ror #10
    23fc:	001f5801 	andseq	r5, pc, r1, lsl #16
    2400:	0021c400 	eoreq	ip, r1, r0, lsl #8
    2404:	0aa62408 	beq	fe98b42c <IntrRet+0xf6988d44>
    2408:	08b40000 	ldmeq	r4!, {}	@ <UNPREDICTABLE>
    240c:	0a9a0000 	beq	fe682414 <IntrRet+0xf667fd2c>
    2410:	80010000 	andhi	r0, r1, r0

Disassembly of section .debug_abbrev:

00000000 <.debug_abbrev>:
       0:	0b002401 	bleq	900c <_binary_assets_romhdr_bin_size+0x8f4d>
       4:	030b3e0b 	tsteq	fp, #11, 28	@ 0xb0
       8:	0200000e 	andeq	r0, r0, #14
       c:	0e030028 	cdpeq	0, 0, cr0, cr3, cr8, {1}
      10:	00000b1c 	andeq	r0, r0, ip, lsl fp
      14:	03002803 	tsteq	r0, #196608	@ 0x30000
      18:	00051c0e 	andeq	r1, r5, lr, lsl #24
      1c:	00160400 	andseq	r0, r6, r0, lsl #8
      20:	0b3a0e03 	bleq	e83834 <_binary_assets_romhdr_bin_size+0xe83775>
      24:	0b390b3b 	bleq	e42d18 <_binary_assets_romhdr_bin_size+0xe42c59>
      28:	00001349 	andeq	r1, r0, r9, asr #6
      2c:	49000505 	stmdbmi	r0, {r0, r2, r8, sl}
      30:	06000013 			@ <UNDEFINED> instruction: 0x06000013
      34:	18020049 	stmdane	r2, {r0, r3, r6}
      38:	0000187e 	andeq	r1, r0, lr, ror r8
      3c:	0b000f07 	bleq	3c60 <_binary_assets_romhdr_bin_size+0x3ba1>
      40:	13490421 	cmpne	r9, #553648128	@ 0x21000000
      44:	11080000 	mrsne	r0, (UNDEF: 8)
      48:	130e2501 	tstne	lr, #4194304	@ 0x400000
      4c:	0b01900b 	bleq	64080 <_binary_assets_romhdr_bin_size+0x63fc1>
      50:	03060191 	tsteq	r6, #1073741860	@ 0x40000024
      54:	110e1b0e 	tstne	lr, lr, lsl #22
      58:	10061201 	andne	r1, r6, r1, lsl #4
      5c:	09000017 	stmdbeq	r0, {r0, r1, r2, r4}
      60:	0b0b0024 	bleq	2c00f8 <_binary_assets_romhdr_bin_size+0x2c0039>
      64:	08030b3e 	stmdaeq	r3, {r1, r2, r3, r4, r5, r8, r9, fp}
      68:	160a0000 	strne	r0, [sl], -r0
      6c:	3a080300 	bcc	200c74 <_binary_assets_romhdr_bin_size+0x200bb5>
      70:	390b3b0b 	stmdbcc	fp, {r0, r1, r3, r8, r9, fp, ip, sp}
      74:	0013490b 	andseq	r4, r3, fp, lsl #18
      78:	00350b00 	eorseq	r0, r5, r0, lsl #22
      7c:	00001349 	andeq	r1, r0, r9, asr #6
      80:	2700150c 	strcs	r1, [r0, -ip, lsl #10]
      84:	0d000019 	stceq	0, cr0, [r0, #-100]	@ 0xffffff9c
      88:	0e030104 	cdpeq	1, 0, cr0, cr3, cr4, {0}
      8c:	0b0b0b3e 	bleq	2c2d8c <_binary_assets_romhdr_bin_size+0x2c2ccd>
      90:	0b3a1349 	bleq	e84dbc <_binary_assets_romhdr_bin_size+0xe84cfd>
      94:	0b390b3b 	bleq	e42d88 <_binary_assets_romhdr_bin_size+0xe42cc9>
      98:	00001301 	andeq	r1, r0, r1, lsl #6
      9c:	3f012e0e 	svccc	0x00012e0e
      a0:	3a0e0319 	bcc	380d0c <_binary_assets_romhdr_bin_size+0x380c4d>
      a4:	390b3b0b 	stmdbcc	fp, {r0, r1, r3, r8, r9, fp, ip, sp}
      a8:	3c19270b 	ldccc	7, cr2, [r9], {11}
      ac:	00130119 	andseq	r0, r3, r9, lsl r1
      b0:	012e0f00 			@ <UNDEFINED> instruction: 0x012e0f00
      b4:	0e03193f 			@ <UNDEFINED> instruction: 0x0e03193f
      b8:	0b3b0b3a 	bleq	ec2da8 <_binary_assets_romhdr_bin_size+0xec2ce9>
      bc:	19270b39 	stmdbne	r7!, {r0, r3, r4, r5, r8, r9, fp}
      c0:	193c1349 	ldmdbne	ip!, {r0, r3, r6, r8, r9, ip}
      c4:	00001301 	andeq	r1, r0, r1, lsl #6
      c8:	3f012e10 	svccc	0x00012e10
      cc:	3a0e0319 	bcc	380d38 <_binary_assets_romhdr_bin_size+0x380c79>
      d0:	390b3b0b 	stmdbcc	fp, {r0, r1, r3, r8, r9, fp, ip, sp}
      d4:	1119270b 	tstne	r9, fp, lsl #14
      d8:	40061201 	andmi	r1, r6, r1, lsl #4
      dc:	01197a18 	tsteq	r9, r8, lsl sl
      e0:	11000013 	tstne	r0, r3, lsl r0
      e4:	017d0148 	cmneq	sp, r8, asr #2
      e8:	1301137f 	tstne	r1, #-67108863	@ 0xfc000001
      ec:	48120000 	ldmdami	r2, {}	@ <UNPREDICTABLE>
      f0:	7f017d01 	svcvc	0x00017d01
      f4:	13000013 	tstne	r0, #19
      f8:	193f002e 	ldmdbne	pc!, {r1, r2, r3, r5}	@ <UNPREDICTABLE>
      fc:	0b3a0e03 	bleq	e83910 <_binary_assets_romhdr_bin_size+0xe83851>
     100:	0b390b3b 	bleq	e42df4 <_binary_assets_romhdr_bin_size+0xe42d35>
     104:	01111927 	tsteq	r1, r7, lsr #18
     108:	18400612 	stmdane	r0, {r1, r4, r9, sl}^
     10c:	0000197a 	andeq	r1, r0, sl, ror r9
     110:	00240100 	eoreq	r0, r4, r0, lsl #2
     114:	0b3e0b0b 	bleq	f82d48 <_binary_assets_romhdr_bin_size+0xf82c89>
     118:	00000e03 	andeq	r0, r0, r3, lsl #28
     11c:	03001602 	tsteq	r0, #2097152	@ 0x200000
     120:	3b0b3a0e 	blcc	2ce960 <_binary_assets_romhdr_bin_size+0x2ce8a1>
     124:	490b390b 	stmdbmi	fp, {r0, r1, r3, r8, fp, ip, sp}
     128:	03000013 	tsteq	r0, #19
     12c:	08030034 	stmdaeq	r3, {r2, r4, r5}
     130:	3b01213a 	blcc	48620 <_binary_assets_romhdr_bin_size+0x48561>
     134:	490b390b 	stmdbmi	fp, {r0, r1, r3, r8, fp, ip, sp}
     138:	b7170213 			@ <UNDEFINED> instruction: 0xb7170213
     13c:	00001742 	andeq	r1, r0, r2, asr #14
     140:	03002804 	tsteq	r0, #4, 16	@ 0x40000
     144:	000b1c0e 	andeq	r1, fp, lr, lsl #24
     148:	010b0500 	tsteq	fp, r0, lsl #10
     14c:	13011755 	tstne	r1, #22282240	@ 0x1540000
     150:	11060000 	mrsne	r0, (UNDEF: 6)
     154:	130e2501 	tstne	lr, #4194304	@ 0x400000
     158:	0b01900b 	bleq	6418c <_binary_assets_romhdr_bin_size+0x640cd>
     15c:	03060191 	tsteq	r6, #1073741860	@ 0x40000024
     160:	110e1b0e 	tstne	lr, lr, lsl #22
     164:	10061201 	andne	r1, r6, r1, lsl #4
     168:	07000017 			@ <UNDEFINED> instruction: 0x07000017
     16c:	0b3e0104 	bleq	f80584 <_binary_assets_romhdr_bin_size+0xf804c5>
     170:	13490b0b 	cmpne	r9, #11264	@ 0x2c00
     174:	0b3b0b3a 	bleq	ec2e64 <_binary_assets_romhdr_bin_size+0xec2da5>
     178:	13010b39 	tstne	r1, #58368	@ 0xe400
     17c:	24080000 	strcs	r0, [r8], #-0
     180:	3e0b0b00 	vmlacc.f64	d0, d11, d0
     184:	0008030b 	andeq	r0, r8, fp, lsl #6
     188:	00160900 	andseq	r0, r6, r0, lsl #18
     18c:	0b3a0803 	bleq	e821a0 <_binary_assets_romhdr_bin_size+0xe820e1>
     190:	0b390b3b 	bleq	e42e84 <_binary_assets_romhdr_bin_size+0xe42dc5>
     194:	00001349 	andeq	r1, r0, r9, asr #6
     198:	4900350a 	stmdbmi	r0, {r1, r3, r8, sl, ip, sp}
     19c:	0b000013 	bleq	1f0 <_binary_assets_romhdr_bin_size+0x131>
     1a0:	193f012e 	ldmdbne	pc!, {r1, r2, r3, r5, r8}	@ <UNPREDICTABLE>
     1a4:	0b3a0e03 	bleq	e839b8 <_binary_assets_romhdr_bin_size+0xe838f9>
     1a8:	0b390b3b 	bleq	e42e9c <_binary_assets_romhdr_bin_size+0xe42ddd>
     1ac:	01111927 	tsteq	r1, r7, lsr #18
     1b0:	18400612 	stmdane	r0, {r1, r4, r9, sl}^
     1b4:	1301197a 	tstne	r1, #1998848	@ 0x1e8000
     1b8:	050c0000 	streq	r0, [ip, #-0]
     1bc:	3a080300 	bcc	200dc4 <_binary_assets_romhdr_bin_size+0x200d05>
     1c0:	390b3b0b 	stmdbcc	fp, {r0, r1, r3, r8, r9, fp, ip, sp}
     1c4:	0213490b 	andseq	r4, r3, #180224	@ 0x2c000
     1c8:	1742b717 			@ <UNDEFINED> instruction: 0x1742b717
     1cc:	340d0000 	strcc	r0, [sp], #-0
     1d0:	3a0e0300 	bcc	380dd8 <_binary_assets_romhdr_bin_size+0x380d19>
     1d4:	390b3b0b 	stmdbcc	fp, {r0, r1, r3, r8, r9, fp, ip, sp}
     1d8:	1c13490b 			@ <UNDEFINED> instruction: 0x1c13490b
     1dc:	0e000006 	cdpeq	0, 0, cr0, cr0, cr6, {0}
     1e0:	08030034 	stmdaeq	r3, {r2, r4, r5}
     1e4:	0b3b0b3a 	bleq	ec2ed4 <_binary_assets_romhdr_bin_size+0xec2e15>
     1e8:	13490b39 	cmpne	r9, #58368	@ 0xe400
     1ec:	0b0f0000 	bleq	3c01f4 <_binary_assets_romhdr_bin_size+0x3c0135>
     1f0:	12011101 	andne	r1, r1, #1073741824	@ 0x40000000
     1f4:	10000006 	andne	r0, r0, r6
     1f8:	1755010b 	ldrbne	r0, [r5, -fp, lsl #2]
     1fc:	0f110000 	svceq	0x00110000
     200:	490b0b00 	stmdbmi	fp, {r8, r9, fp}
     204:	00000013 	andeq	r0, r0, r3, lsl r0
     208:	0b002401 	bleq	9214 <_binary_assets_romhdr_bin_size+0x9155>
     20c:	030b3e0b 	tsteq	fp, #11, 28	@ 0xb0
     210:	0200000e 	andeq	r0, r0, #14
     214:	13490005 	cmpne	r9, #5
     218:	49030000 	stmdbmi	r3, {}	@ <UNPREDICTABLE>
     21c:	7e180200 	cdpvc	2, 1, cr0, cr8, cr0, {0}
     220:	04000018 	streq	r0, [r0], #-24	@ 0xffffffe8
     224:	0e030005 	cdpeq	0, 0, cr0, cr3, cr5, {0}
     228:	3b01213a 	blcc	48718 <_binary_assets_romhdr_bin_size+0x48659>
     22c:	490b390b 	stmdbmi	fp, {r0, r1, r3, r8, fp, ip, sp}
     230:	b7170213 			@ <UNDEFINED> instruction: 0xb7170213
     234:	00001742 	andeq	r1, r0, r2, asr #14
     238:	03001605 	tsteq	r0, #5242880	@ 0x500000
     23c:	3b0b3a0e 	blcc	2cea7c <_binary_assets_romhdr_bin_size+0x2ce9bd>
     240:	490b390b 	stmdbmi	fp, {r0, r1, r3, r8, fp, ip, sp}
     244:	06000013 			@ <UNDEFINED> instruction: 0x06000013
     248:	193f012e 	ldmdbne	pc!, {r1, r2, r3, r5, r8}	@ <UNPREDICTABLE>
     24c:	213a0e03 	teqcs	sl, r3, lsl #28
     250:	390b3b04 	stmdbcc	fp, {r2, r8, r9, fp, ip, sp}
     254:	19270621 	stmdbne	r7!, {r0, r5, r9, sl}
     258:	1301193c 	tstne	r1, #60, 18	@ 0xf0000
     25c:	2e070000 	cdpcs	0, 0, cr0, cr7, cr0, {0}
     260:	03193f01 	tsteq	r9, #1, 30
     264:	01213a0e 			@ <UNDEFINED> instruction: 0x01213a0e
     268:	21390b3b 	teqcs	r9, fp, lsr fp
     26c:	11192706 	tstne	r9, r6, lsl #14
     270:	40061201 	andmi	r1, r6, r1, lsl #4
     274:	01197a18 	tsteq	r9, r8, lsl sl
     278:	08000013 	stmdaeq	r0, {r0, r1, r4}
     27c:	08030005 	stmdaeq	r3, {r0, r2}
     280:	3b01213a 	blcc	48770 <_binary_assets_romhdr_bin_size+0x486b1>
     284:	0b391721 	bleq	e45f10 <_binary_assets_romhdr_bin_size+0xe45e51>
     288:	18021349 	stmdane	r2, {r0, r3, r6, r8, r9, ip}
     28c:	11090000 	mrsne	r0, (UNDEF: 9)
     290:	130e2501 	tstne	lr, #4194304	@ 0x400000
     294:	0b01900b 	bleq	642c8 <_binary_assets_romhdr_bin_size+0x64209>
     298:	03060191 	tsteq	r6, #1073741860	@ 0x40000024
     29c:	110e1b0e 	tstne	lr, lr, lsl #22
     2a0:	10061201 	andne	r1, r6, r1, lsl #4
     2a4:	0a000017 	beq	308 <_binary_assets_romhdr_bin_size+0x249>
     2a8:	0b0b0024 	bleq	2c0340 <_binary_assets_romhdr_bin_size+0x2c0281>
     2ac:	08030b3e 	stmdaeq	r3, {r1, r2, r3, r4, r5, r8, r9, fp}
     2b0:	160b0000 	strne	r0, [fp], -r0
     2b4:	3a080300 	bcc	200ebc <_binary_assets_romhdr_bin_size+0x200dfd>
     2b8:	390b3b0b 	stmdbcc	fp, {r0, r1, r3, r8, r9, fp, ip, sp}
     2bc:	0013490b 	andseq	r4, r3, fp, lsl #18
     2c0:	00350c00 	eorseq	r0, r5, r0, lsl #24
     2c4:	00001349 	andeq	r1, r0, r9, asr #6
     2c8:	0b000f0d 	bleq	3f04 <_binary_assets_romhdr_bin_size+0x3e45>
     2cc:	0013490b 	andseq	r4, r3, fp, lsl #18
     2d0:	00260e00 	eoreq	r0, r6, r0, lsl #28
     2d4:	0f0f0000 	svceq	0x000f0000
     2d8:	000b0b00 	andeq	r0, fp, r0, lsl #22
     2dc:	01481000 	mrseq	r1, (UNDEF: 72)
     2e0:	137f017d 	cmnne	pc, #1073741855	@ 0x4000001f
     2e4:	00001301 	andeq	r1, r0, r1, lsl #6
     2e8:	7d014811 	stcvc	8, cr4, [r1, #-68]	@ 0xffffffbc
     2ec:	00137f01 	andseq	r7, r3, r1, lsl #30
     2f0:	012e1200 			@ <UNDEFINED> instruction: 0x012e1200
     2f4:	0e03193f 			@ <UNDEFINED> instruction: 0x0e03193f
     2f8:	0b3b0b3a 	bleq	ec2fe8 <_binary_assets_romhdr_bin_size+0xec2f29>
     2fc:	19270b39 	stmdbne	r7!, {r0, r3, r4, r5, r8, r9, fp}
     300:	06120111 			@ <UNDEFINED> instruction: 0x06120111
     304:	197a1840 	ldmdbne	sl!, {r6, fp, ip}^
     308:	05130000 	ldreq	r0, [r3, #-0]
     30c:	3a0e0300 	bcc	380f14 <_binary_assets_romhdr_bin_size+0x380e55>
     310:	390b3b0b 	stmdbcc	fp, {r0, r1, r3, r8, r9, fp, ip, sp}
     314:	0213490b 	andseq	r4, r3, #180224	@ 0x2c000
     318:	00000018 	andeq	r0, r0, r8, lsl r0
     31c:	03002801 	tsteq	r0, #65536	@ 0x10000
     320:	000b1c0e 	andeq	r1, fp, lr, lsl #24
     324:	00490200 	subeq	r0, r9, r0, lsl #4
     328:	187e1802 	ldmdane	lr!, {r1, fp, ip}^
     32c:	24030000 	strcs	r0, [r3], #-0
     330:	3e0b0b00 	vmlacc.f64	d0, d11, d0
     334:	000e030b 	andeq	r0, lr, fp, lsl #6
     338:	00160400 	andseq	r0, r6, r0, lsl #8
     33c:	0b3a0e03 	bleq	e83b50 <_binary_assets_romhdr_bin_size+0xe83a91>
     340:	0b390b3b 	bleq	e43034 <_binary_assets_romhdr_bin_size+0xe42f75>
     344:	00001349 	andeq	r1, r0, r9, asr #6
     348:	7d004805 	stcvc	8, cr4, [r0, #-20]	@ 0xffffffec
     34c:	00137f01 	andseq	r7, r3, r1, lsl #30
     350:	00050600 	andeq	r0, r5, r0, lsl #12
     354:	00001349 	andeq	r1, r0, r9, asr #6
     358:	3f012e07 	svccc	0x00012e07
     35c:	3a0e0319 	bcc	380fc8 <_binary_assets_romhdr_bin_size+0x380f09>
     360:	0b3b0121 	bleq	ec07ec <_binary_assets_romhdr_bin_size+0xec072d>
     364:	27062139 			@ <UNDEFINED> instruction: 0x27062139
     368:	12011119 	andne	r1, r1, #1073741830	@ 0x40000006
     36c:	7a184006 	bvc	61038c <_binary_assets_romhdr_bin_size+0x6102cd>
     370:	00130119 	andseq	r0, r3, r9, lsl r1
     374:	012e0800 			@ <UNDEFINED> instruction: 0x012e0800
     378:	0e03193f 			@ <UNDEFINED> instruction: 0x0e03193f
     37c:	0b3b0b3a 	bleq	ec306c <_binary_assets_romhdr_bin_size+0xec2fad>
     380:	27062139 			@ <UNDEFINED> instruction: 0x27062139
     384:	01193c19 	tsteq	r9, r9, lsl ip
     388:	09000013 	stmdbeq	r0, {r0, r1, r4}
     38c:	017d0148 	cmneq	sp, r8, asr #2
     390:	0000137f 	andeq	r1, r0, pc, ror r3
     394:	3f002e0a 	svccc	0x00002e0a
     398:	3a0e0319 	bcc	381004 <_binary_assets_romhdr_bin_size+0x380f45>
     39c:	390b3b0b 	stmdbcc	fp, {r0, r1, r3, r8, r9, fp, ip, sp}
     3a0:	19270621 	stmdbne	r7!, {r0, r5, r9, sl}
     3a4:	0000193c 	andeq	r1, r0, ip, lsr r9
     3a8:	3100340b 	tstcc	r0, fp, lsl #8
     3ac:	80211c13 	eorhi	r1, r1, r3, lsl ip
     3b0:	00188080 	andseq	r8, r8, r0, lsl #1
     3b4:	010b0c00 	tsteq	fp, r0, lsl #24
     3b8:	17551331 			@ <UNDEFINED> instruction: 0x17551331
     3bc:	340d0000 	strcc	r0, [sp], #-0
     3c0:	02133100 	andseq	r3, r3, #0, 2
     3c4:	1742b717 			@ <UNDEFINED> instruction: 0x1742b717
     3c8:	480e0000 	stmdami	lr, {}	@ <UNPREDICTABLE>
     3cc:	7f017d01 	svcvc	0x00017d01
     3d0:	00130113 	andseq	r0, r3, r3, lsl r1
     3d4:	000d0f00 	andeq	r0, sp, r0, lsl #30
     3d8:	213a0e03 	teqcs	sl, r3, lsl #28
     3dc:	390b3b05 	stmdbcc	fp, {r0, r2, r8, r9, fp, ip, sp}
     3e0:	3813490b 	ldmdacc	r3, {r0, r1, r3, r8, fp, lr}
     3e4:	1000000b 	andne	r0, r0, fp
     3e8:	13490026 	cmpne	r9, #38	@ 0x26
     3ec:	2e110000 	cdpcs	0, 1, cr0, cr1, cr0, {0}
     3f0:	03193f01 	tsteq	r9, #1, 30
     3f4:	01213a0e 			@ <UNDEFINED> instruction: 0x01213a0e
     3f8:	21390b3b 	teqcs	r9, fp, lsr fp
     3fc:	20192706 	andscs	r2, r9, r6, lsl #14
     400:	13010121 	tstne	r1, #1073741832	@ 0x40000008
     404:	34120000 	ldrcc	r0, [r2], #-0
     408:	3a0e0300 	bcc	381010 <_binary_assets_romhdr_bin_size+0x380f51>
     40c:	0b3b0121 	bleq	ec0898 <_binary_assets_romhdr_bin_size+0xec07d9>
     410:	49082139 	stmdbmi	r8, {r0, r3, r4, r5, r8, sp}
     414:	13000013 	tstne	r0, #19
     418:	0000010b 	andeq	r0, r0, fp, lsl #2
     41c:	03003414 	tsteq	r0, #20, 8	@ 0x14000000
     420:	01213a08 			@ <UNDEFINED> instruction: 0x01213a08
     424:	21390b3b 	teqcs	r9, fp, lsr fp
     428:	0013490a 	andseq	r4, r3, sl, lsl #18
     42c:	00341500 	eorseq	r1, r4, r0, lsl #10
     430:	00001331 	andeq	r1, r0, r1, lsr r3
     434:	25011116 	strcs	r1, [r1, #-278]	@ 0xfffffeea
     438:	900b130e 	andls	r1, fp, lr, lsl #6
     43c:	01910b01 	orrseq	r0, r1, r1, lsl #22
     440:	1b0e0306 	blne	381060 <_binary_assets_romhdr_bin_size+0x380fa1>
     444:	1117550e 	tstne	r7, lr, lsl #10
     448:	00171001 	andseq	r1, r7, r1
     44c:	00241700 	eoreq	r1, r4, r0, lsl #14
     450:	0b3e0b0b 	bleq	f83084 <_binary_assets_romhdr_bin_size+0xf82fc5>
     454:	00000803 	andeq	r0, r0, r3, lsl #16
     458:	03001618 	tsteq	r0, #24, 12	@ 0x1800000
     45c:	3b0b3a08 	blcc	2cec84 <_binary_assets_romhdr_bin_size+0x2cebc5>
     460:	490b390b 	stmdbmi	fp, {r0, r1, r3, r8, fp, ip, sp}
     464:	19000013 	stmdbne	r0, {r0, r1, r4}
     468:	13490035 	cmpne	r9, #53	@ 0x35
     46c:	041a0000 	ldreq	r0, [sl], #-0
     470:	3e0e0301 	cdpcc	3, 0, cr0, cr14, cr1, {0}
     474:	490b0b0b 	stmdbmi	fp, {r0, r1, r3, r8, r9, fp}
     478:	3b0b3a13 	blcc	2ceccc <_binary_assets_romhdr_bin_size+0x2cec0d>
     47c:	010b390b 	tsteq	fp, fp, lsl #18
     480:	1b000013 	blne	4d4 <_binary_assets_romhdr_bin_size+0x415>
     484:	0b3e0104 	bleq	f8089c <_binary_assets_romhdr_bin_size+0xf807dd>
     488:	13490b0b 	cmpne	r9, #11264	@ 0x2c00
     48c:	0b3b0b3a 	bleq	ec317c <_binary_assets_romhdr_bin_size+0xec30bd>
     490:	13010b39 	tstne	r1, #58368	@ 0xe400
     494:	131c0000 	tstne	ip, #0
     498:	3a0b0b01 	bcc	2c30a4 <_binary_assets_romhdr_bin_size+0x2c2fe5>
     49c:	390b3b0b 	stmdbcc	fp, {r0, r1, r3, r8, r9, fp, ip, sp}
     4a0:	0013010b 	andseq	r0, r3, fp, lsl #2
     4a4:	00341d00 	eorseq	r1, r4, r0, lsl #26
     4a8:	0b3a0e03 	bleq	e83cbc <_binary_assets_romhdr_bin_size+0xe83bfd>
     4ac:	0b390b3b 	bleq	e431a0 <_binary_assets_romhdr_bin_size+0xe430e1>
     4b0:	193f1349 	ldmdbne	pc!, {r0, r3, r6, r8, r9, ip}	@ <UNPREDICTABLE>
     4b4:	0000193c 	andeq	r1, r0, ip, lsr r9
     4b8:	4700341e 			@ <UNDEFINED> instruction: 0x4700341e
     4bc:	3b0b3a13 	blcc	2ced10 <_binary_assets_romhdr_bin_size+0x2cec51>
     4c0:	020b390b 	andeq	r3, fp, #180224	@ 0x2c000
     4c4:	1f000018 	svcne	0x00000018
     4c8:	13490101 	cmpne	r9, #1073741824	@ 0x40000000
     4cc:	00001301 	andeq	r1, r0, r1, lsl #6
     4d0:	49002120 	stmdbmi	r0, {r5, r8, sp}
     4d4:	000b2f13 	andeq	r2, fp, r3, lsl pc
     4d8:	00342100 	eorseq	r2, r4, r0, lsl #2
     4dc:	0b3a0e03 	bleq	e83cf0 <_binary_assets_romhdr_bin_size+0xe83c31>
     4e0:	0b390b3b 	bleq	e431d4 <_binary_assets_romhdr_bin_size+0xe43115>
     4e4:	193f1349 	ldmdbne	pc!, {r0, r3, r6, r8, r9, ip}	@ <UNPREDICTABLE>
     4e8:	00001802 	andeq	r1, r0, r2, lsl #16
     4ec:	0b000f22 	bleq	417c <_binary_assets_romhdr_bin_size+0x40bd>
     4f0:	2300000b 	tstcs	r0, #11
     4f4:	017d0048 	cmneq	sp, r8, asr #32
     4f8:	7f190182 	svcvc	0x00190182
     4fc:	24000013 	strcs	r0, [r0], #-19	@ 0xffffffed
     500:	1331011d 	teqne	r1, #1073741831	@ 0x40000007
     504:	42b80152 	adcsmi	r0, r8, #-2147483628	@ 0x80000014
     508:	5817550b 	ldmdapl	r7, {r0, r1, r3, r8, sl, ip, lr}
     50c:	570b590b 	strpl	r5, [fp, -fp, lsl #18]
     510:	0013010b 	andseq	r0, r3, fp, lsl #2
     514:	000f2500 	andeq	r2, pc, r0, lsl #10
     518:	13490b0b 	cmpne	r9, #11264	@ 0x2c00
     51c:	2e260000 	cdpcs	0, 2, cr0, cr6, cr0, {0}
     520:	11133101 	tstne	r3, r1, lsl #2
     524:	40061201 	andmi	r1, r6, r1, lsl #4
     528:	01197a18 	tsteq	r9, r8, lsl sl
     52c:	27000013 			@ <UNDEFINED> instruction: 0x27000013
     530:	1331010b 	teqne	r1, #-1073741822	@ 0xc0000002
     534:	13011755 	tstne	r1, #22282240	@ 0x1540000
     538:	1d280000 	stcne	0, cr0, [r8, #-0]
     53c:	52133101 	andspl	r3, r3, #1073741824	@ 0x40000000
     540:	0b42b801 	bleq	10ae54c <_binary_assets_romhdr_bin_size+0x10ae48d>
     544:	0b581755 	bleq	16062a0 <_binary_assets_romhdr_bin_size+0x16061e1>
     548:	0b570b59 	bleq	15c32b4 <_binary_assets_romhdr_bin_size+0x15c31f5>
     54c:	2e290000 	cdpcs	0, 2, cr0, cr9, cr0, {0}
     550:	11133101 	tstne	r3, r1, lsl #2
     554:	40061201 	andmi	r1, r6, r1, lsl #4
     558:	00197a18 	andseq	r7, r9, r8, lsl sl
     55c:	24010000 	strcs	r0, [r1], #-0
     560:	3e0b0b00 	vmlacc.f64	d0, d11, d0
     564:	000e030b 	andeq	r0, lr, fp, lsl #6
     568:	00340200 	eorseq	r0, r4, r0, lsl #4
     56c:	213a0803 	teqcs	sl, r3, lsl #16
     570:	390b3b01 	stmdbcc	fp, {r0, r8, r9, fp, ip, sp}
     574:	0213490b 	andseq	r4, r3, #180224	@ 0x2c000
     578:	1742b717 			@ <UNDEFINED> instruction: 0x1742b717
     57c:	34030000 	strcc	r0, [r3], #-0
     580:	3a0e0300 	bcc	381188 <_binary_assets_romhdr_bin_size+0x3810c9>
     584:	0b3b0121 	bleq	ec0a10 <_binary_assets_romhdr_bin_size+0xec0951>
     588:	13490b39 	cmpne	r9, #58368	@ 0xe400
     58c:	1802193f 	stmdane	r2, {r0, r1, r2, r3, r4, r5, r8, fp, ip}
     590:	34040000 	strcc	r0, [r4], #-0
     594:	02133100 	andseq	r3, r3, #0, 2
     598:	1742b717 			@ <UNDEFINED> instruction: 0x1742b717
     59c:	26050000 	strcs	r0, [r5], -r0
     5a0:	00134900 	andseq	r4, r3, r0, lsl #18
     5a4:	01010600 	tsteq	r1, r0, lsl #12
     5a8:	13011349 	tstne	r1, #603979777	@ 0x24000001
     5ac:	05070000 	streq	r0, [r7, #-0]
     5b0:	02133100 	andseq	r3, r3, #0, 2
     5b4:	1742b717 			@ <UNDEFINED> instruction: 0x1742b717
     5b8:	11080000 	mrsne	r0, (UNDEF: 8)
     5bc:	130e2501 	tstne	lr, #4194304	@ 0x400000
     5c0:	0b01900b 	bleq	645f4 <_binary_assets_romhdr_bin_size+0x64535>
     5c4:	03060191 	tsteq	r6, #1073741860	@ 0x40000024
     5c8:	110e1b0e 	tstne	lr, lr, lsl #22
     5cc:	10061201 	andne	r1, r6, r1, lsl #4
     5d0:	09000017 	stmdbeq	r0, {r0, r1, r2, r4}
     5d4:	0e030016 	mcreq	0, 0, r0, cr3, cr6, {0}
     5d8:	0b3b0b3a 	bleq	ec32c8 <_binary_assets_romhdr_bin_size+0xec3209>
     5dc:	13490b39 	cmpne	r9, #58368	@ 0xe400
     5e0:	240a0000 	strcs	r0, [sl], #-0
     5e4:	3e0b0b00 	vmlacc.f64	d0, d11, d0
     5e8:	0008030b 	andeq	r0, r8, fp, lsl #6
     5ec:	00210b00 	eoreq	r0, r1, r0, lsl #22
     5f0:	052f1349 	streq	r1, [pc, #-841]!	@ 2af <_binary_assets_romhdr_bin_size+0x1f0>
     5f4:	210c0000 	mrscs	r0, (UNDEF: 12)
     5f8:	2f134900 	svccs	0x00134900
     5fc:	0d00000b 	stceq	0, cr0, [r0, #-44]	@ 0xffffffd4
     600:	193f012e 	ldmdbne	pc!, {r1, r2, r3, r5, r8}	@ <UNPREDICTABLE>
     604:	0b3a0e03 	bleq	e83e18 <_binary_assets_romhdr_bin_size+0xe83d59>
     608:	0b390b3b 	bleq	e432fc <_binary_assets_romhdr_bin_size+0xe4323d>
     60c:	13491927 	cmpne	r9, #638976	@ 0x9c000
     610:	06120111 			@ <UNDEFINED> instruction: 0x06120111
     614:	197a1840 	ldmdbne	sl!, {r6, fp, ip}^
     618:	00001301 	andeq	r1, r0, r1, lsl #6
     61c:	55010b0e 	strpl	r0, [r1, #-2830]	@ 0xfffff4f2
     620:	0f000017 	svceq	0x00000017
     624:	1331011d 	teqne	r1, #1073741831	@ 0x40000007
     628:	06120111 			@ <UNDEFINED> instruction: 0x06120111
     62c:	0b590b58 	bleq	1643394 <_binary_assets_romhdr_bin_size+0x16432d5>
     630:	00000b57 	andeq	r0, r0, r7, asr fp
     634:	31010b10 	tstcc	r1, r0, lsl fp
     638:	12011113 	andne	r1, r1, #-1073741820	@ 0xc0000004
     63c:	11000006 	tstne	r0, r6
     640:	13310034 	teqne	r1, #52	@ 0x34
     644:	0f120000 	svceq	0x00120000
     648:	490b0b00 	stmdbmi	fp, {r8, r9, fp}
     64c:	13000013 	tstne	r0, #19
     650:	193f012e 	ldmdbne	pc!, {r1, r2, r3, r5, r8}	@ <UNPREDICTABLE>
     654:	0b3a0e03 	bleq	e83e68 <_binary_assets_romhdr_bin_size+0xe83da9>
     658:	0b390b3b 	bleq	e4334c <_binary_assets_romhdr_bin_size+0xe4328d>
     65c:	0b201927 	bleq	806b00 <_binary_assets_romhdr_bin_size+0x806a41>
     660:	00001301 	andeq	r1, r0, r1, lsl #6
     664:	03000514 	tsteq	r0, #20, 10	@ 0x5000000
     668:	3b0b3a0e 	blcc	2ceea8 <_binary_assets_romhdr_bin_size+0x2cede9>
     66c:	490b390b 	stmdbmi	fp, {r0, r1, r3, r8, fp, ip, sp}
     670:	15000013 	strne	r0, [r0, #-19]	@ 0xffffffed
     674:	0e030034 	mcreq	0, 0, r0, cr3, cr4, {1}
     678:	0b3b0b3a 	bleq	ec3368 <_binary_assets_romhdr_bin_size+0xec32a9>
     67c:	13490b39 	cmpne	r9, #58368	@ 0xe400
     680:	0b160000 	bleq	580688 <_binary_assets_romhdr_bin_size+0x5805c9>
     684:	17000001 	strne	r0, [r0, -r1]
     688:	08030034 	stmdaeq	r3, {r2, r4, r5}
     68c:	0b3b0b3a 	bleq	ec337c <_binary_assets_romhdr_bin_size+0xec32bd>
     690:	13490b39 	cmpne	r9, #58368	@ 0xe400
     694:	2e180000 	cdpcs	0, 1, cr0, cr8, cr0, {0}
     698:	11133101 	tstne	r3, r1, lsl #2
     69c:	40061201 	andmi	r1, r6, r1, lsl #4
     6a0:	00197a18 	andseq	r7, r9, r8, lsl sl
     6a4:	010b1900 	tsteq	fp, r0, lsl #18
     6a8:	17551331 			@ <UNDEFINED> instruction: 0x17551331
     6ac:	01000000 	mrseq	r0, (UNDEF: 0)
     6b0:	0b0b0024 	bleq	2c0748 <_binary_assets_romhdr_bin_size+0x2c0689>
     6b4:	0e030b3e 	vmoveq.16	d3[0], r0
     6b8:	05020000 	streq	r0, [r2, #-0]
     6bc:	3a080300 	bcc	2012c4 <_binary_assets_romhdr_bin_size+0x201205>
     6c0:	213b0121 	teqcs	fp, r1, lsr #2
     6c4:	490b3904 	stmdbmi	fp, {r2, r8, fp, ip, sp}
     6c8:	b7170213 			@ <UNDEFINED> instruction: 0xb7170213
     6cc:	00001742 	andeq	r1, r0, r2, asr #14
     6d0:	25011103 	strcs	r1, [r1, #-259]	@ 0xfffffefd
     6d4:	900b130e 	andls	r1, fp, lr, lsl #6
     6d8:	01910b01 	orrseq	r0, r1, r1, lsl #22
     6dc:	1b0e0306 	blne	3812fc <_binary_assets_romhdr_bin_size+0x38123d>
     6e0:	1201110e 	andne	r1, r1, #-2147483645	@ 0x80000003
     6e4:	00171006 	andseq	r1, r7, r6
     6e8:	00160400 	andseq	r0, r6, r0, lsl #8
     6ec:	0b3a0e03 	bleq	e83f00 <_binary_assets_romhdr_bin_size+0xe83e41>
     6f0:	0b390b3b 	bleq	e433e4 <_binary_assets_romhdr_bin_size+0xe43325>
     6f4:	00001349 	andeq	r1, r0, r9, asr #6
     6f8:	0b002405 	bleq	9714 <_binary_assets_romhdr_bin_size+0x9655>
     6fc:	030b3e0b 	tsteq	fp, #11, 28	@ 0xb0
     700:	06000008 	streq	r0, [r0], -r8
     704:	193f012e 	ldmdbne	pc!, {r1, r2, r3, r5, r8}	@ <UNPREDICTABLE>
     708:	0b3a0e03 	bleq	e83f1c <_binary_assets_romhdr_bin_size+0xe83e5d>
     70c:	0b390b3b 	bleq	e43400 <_binary_assets_romhdr_bin_size+0xe43341>
     710:	13491927 	cmpne	r9, #638976	@ 0x9c000
     714:	06120111 			@ <UNDEFINED> instruction: 0x06120111
     718:	197a1840 	ldmdbne	sl!, {r6, fp, ip}^
     71c:	00001301 	andeq	r1, r0, r1, lsl #6
     720:	0b000f07 	bleq	4344 <_binary_assets_romhdr_bin_size+0x4285>
     724:	0000000b 	andeq	r0, r0, fp
     728:	0b002401 	bleq	9734 <_binary_assets_romhdr_bin_size+0x9675>
     72c:	030b3e0b 	tsteq	fp, #11, 28	@ 0xb0
     730:	0200000e 	andeq	r0, r0, #14
     734:	0e03000d 	cdpeq	0, 0, cr0, cr3, cr13, {0}
     738:	3b03213a 	blcc	c8c28 <_binary_assets_romhdr_bin_size+0xc8b69>
     73c:	0e21390b 			@ <UNDEFINED> instruction: 0x0e21390b
     740:	0b381349 	bleq	e0546c <_binary_assets_romhdr_bin_size+0xe053ad>
     744:	16030000 	strne	r0, [r3], -r0
     748:	3a0e0300 	bcc	381350 <_binary_assets_romhdr_bin_size+0x381291>
     74c:	390b3b0b 	stmdbcc	fp, {r0, r1, r3, r8, r9, fp, ip, sp}
     750:	0013490b 	andseq	r4, r3, fp, lsl #18
     754:	00050400 	andeq	r0, r5, r0, lsl #8
     758:	213a0e03 	teqcs	sl, r3, lsl #28
     75c:	05213b01 	streq	r3, [r1, #-2817]!	@ 0xfffff4ff
     760:	13490b39 	cmpne	r9, #58368	@ 0xe400
     764:	00001802 	andeq	r1, r0, r2, lsl #16
     768:	25011105 	strcs	r1, [r1, #-261]	@ 0xfffffefb
     76c:	900b130e 	andls	r1, fp, lr, lsl #6
     770:	01910b01 	orrseq	r0, r1, r1, lsl #22
     774:	1b0e0306 	blne	381394 <_binary_assets_romhdr_bin_size+0x3812d5>
     778:	1201110e 	andne	r1, r1, #-2147483645	@ 0x80000003
     77c:	00171006 	andseq	r1, r7, r6
     780:	00240600 	eoreq	r0, r4, r0, lsl #12
     784:	0b3e0b0b 	bleq	f833b8 <_binary_assets_romhdr_bin_size+0xf832f9>
     788:	00000803 	andeq	r0, r0, r3, lsl #16
     78c:	0b011307 	bleq	453b0 <_binary_assets_romhdr_bin_size+0x452f1>
     790:	3b0b3a0b 	blcc	2cefc4 <_binary_assets_romhdr_bin_size+0x2cef05>
     794:	010b390b 	tsteq	fp, fp, lsl #18
     798:	08000013 	stmdaeq	r0, {r0, r1, r4}
     79c:	0e030034 	mcreq	0, 0, r0, cr3, cr4, {1}
     7a0:	0b3b0b3a 	bleq	ec3490 <_binary_assets_romhdr_bin_size+0xec33d1>
     7a4:	13490b39 	cmpne	r9, #58368	@ 0xe400
     7a8:	193c193f 	ldmdbne	ip!, {r0, r1, r2, r3, r4, r5, r8, fp, ip}
     7ac:	34090000 	strcc	r0, [r9], #-0
     7b0:	3a134700 	bcc	4d23b8 <_binary_assets_romhdr_bin_size+0x4d22f9>
     7b4:	390b3b0b 	stmdbcc	fp, {r0, r1, r3, r8, r9, fp, ip, sp}
     7b8:	0018020b 	andseq	r0, r8, fp, lsl #4
     7bc:	012e0a00 			@ <UNDEFINED> instruction: 0x012e0a00
     7c0:	0e03193f 			@ <UNDEFINED> instruction: 0x0e03193f
     7c4:	0b3b0b3a 	bleq	ec34b4 <_binary_assets_romhdr_bin_size+0xec33f5>
     7c8:	19270b39 	stmdbne	r7!, {r0, r3, r4, r5, r8, r9, fp}
     7cc:	06120111 			@ <UNDEFINED> instruction: 0x06120111
     7d0:	197a1840 	ldmdbne	sl!, {r6, fp, ip}^
     7d4:	00001301 	andeq	r1, r0, r1, lsl #6
     7d8:	0b000f0b 	bleq	440c <_binary_assets_romhdr_bin_size+0x434d>
     7dc:	0013490b 	andseq	r4, r3, fp, lsl #18
     7e0:	24010000 	strcs	r0, [r1], #-0
     7e4:	3e0b0b00 	vmlacc.f64	d0, d11, d0
     7e8:	000e030b 	andeq	r0, lr, fp, lsl #6
     7ec:	00490200 	subeq	r0, r9, r0, lsl #4
     7f0:	187e1802 	ldmdane	lr!, {r1, fp, ip}^
     7f4:	0d030000 	stceq	0, cr0, [r3, #-0]
     7f8:	3a0e0300 	bcc	381400 <_binary_assets_romhdr_bin_size+0x381341>
     7fc:	0b3b0321 	bleq	ec1488 <_binary_assets_romhdr_bin_size+0xec13c9>
     800:	490e2139 	stmdbmi	lr, {r0, r3, r4, r5, r8, sp}
     804:	000b3813 	andeq	r3, fp, r3, lsl r8
     808:	00160400 	andseq	r0, r6, r0, lsl #8
     80c:	0b3a0e03 	bleq	e84020 <_binary_assets_romhdr_bin_size+0xe83f61>
     810:	0b390b3b 	bleq	e43504 <_binary_assets_romhdr_bin_size+0xe43445>
     814:	00001349 	andeq	r1, r0, r9, asr #6
     818:	7d014805 	stcvc	8, cr4, [r1, #-20]	@ 0xffffffec
     81c:	01137f01 	tsteq	r3, r1, lsl #30
     820:	06000013 			@ <UNDEFINED> instruction: 0x06000013
     824:	0e030034 	mcreq	0, 0, r0, cr3, cr4, {1}
     828:	3b03213a 	blcc	c8d18 <_binary_assets_romhdr_bin_size+0xc8c59>
     82c:	490b390b 	stmdbmi	fp, {r0, r1, r3, r8, fp, ip, sp}
     830:	3c193f13 	ldccc	15, cr3, [r9], {19}
     834:	07000019 			@ <UNDEFINED> instruction: 0x07000019
     838:	13470034 	cmpne	r7, #52	@ 0x34
     83c:	3b01213a 	blcc	48d2c <_binary_assets_romhdr_bin_size+0x48c6d>
     840:	020b390b 	andeq	r3, fp, #180224	@ 0x2c000
     844:	08000018 	stmdaeq	r0, {r3, r4}
     848:	13490005 	cmpne	r9, #5
     84c:	2e090000 	cdpcs	0, 0, cr0, cr9, cr0, {0}
     850:	03193f01 	tsteq	r9, #1, 30
     854:	01213a0e 			@ <UNDEFINED> instruction: 0x01213a0e
     858:	21390b3b 	teqcs	r9, fp, lsr fp
     85c:	11192706 	tstne	r9, r6, lsl #14
     860:	40061201 	andmi	r1, r6, r1, lsl #4
     864:	01197a18 	tsteq	r9, r8, lsl sl
     868:	0a000013 	beq	8bc <_binary_assets_romhdr_bin_size+0x7fd>
     86c:	0e250111 	mcreq	1, 1, r0, cr5, cr1, {0}
     870:	01900b13 	orrseq	r0, r0, r3, lsl fp
     874:	0601910b 	streq	r9, [r1], -fp, lsl #2
     878:	0e1b0e03 	cdpeq	14, 1, cr0, cr11, cr3, {0}
     87c:	06120111 			@ <UNDEFINED> instruction: 0x06120111
     880:	00001710 	andeq	r1, r0, r0, lsl r7
     884:	0b00240b 	bleq	98b8 <_binary_assets_romhdr_bin_size+0x97f9>
     888:	030b3e0b 	tsteq	fp, #11, 28	@ 0xb0
     88c:	0c000008 	stceq	0, cr0, [r0], {8}
     890:	0b0b0113 	bleq	2c0ce4 <_binary_assets_romhdr_bin_size+0x2c0c25>
     894:	0b3b0b3a 	bleq	ec3584 <_binary_assets_romhdr_bin_size+0xec34c5>
     898:	13010b39 	tstne	r1, #58368	@ 0xe400
     89c:	010d0000 	mrseq	r0, (UNDEF: 13)
     8a0:	01134901 	tsteq	r3, r1, lsl #18
     8a4:	0e000013 	mcreq	0, 0, r0, cr0, cr3, {0}
     8a8:	13490021 	cmpne	r9, #33	@ 0x21
     8ac:	0000052f 	andeq	r0, r0, pc, lsr #10
     8b0:	3f012e0f 	svccc	0x00012e0f
     8b4:	3a0e0319 	bcc	381520 <_binary_assets_romhdr_bin_size+0x381461>
     8b8:	390b3b0b 	stmdbcc	fp, {r0, r1, r3, r8, r9, fp, ip, sp}
     8bc:	3c19270b 	ldccc	7, cr2, [r9], {11}
     8c0:	00130119 	andseq	r0, r3, r9, lsl r1
     8c4:	000f1000 	andeq	r1, pc, r0
     8c8:	00000b0b 	andeq	r0, r0, fp, lsl #22
     8cc:	03000511 	tsteq	r0, #71303168	@ 0x4400000
     8d0:	3b0b3a0e 	blcc	2cf110 <_binary_assets_romhdr_bin_size+0x2cf051>
     8d4:	490b390b 	stmdbmi	fp, {r0, r1, r3, r8, fp, ip, sp}
     8d8:	b7170213 			@ <UNDEFINED> instruction: 0xb7170213
     8dc:	00001742 	andeq	r1, r0, r2, asr #14
     8e0:	7d014812 	stcvc	8, cr4, [r1, #-72]	@ 0xffffffb8
     8e4:	00137f01 	andseq	r7, r3, r1, lsl #30
     8e8:	00051300 	andeq	r1, r5, r0, lsl #6
     8ec:	0b3a0e03 	bleq	e84100 <_binary_assets_romhdr_bin_size+0xe84041>
     8f0:	0b390b3b 	bleq	e435e4 <_binary_assets_romhdr_bin_size+0xe43525>
     8f4:	18021349 	stmdane	r2, {r0, r3, r6, r8, r9, ip}
     8f8:	0b140000 	bleq	500900 <_binary_assets_romhdr_bin_size+0x500841>
     8fc:	12011101 	andne	r1, r1, #1073741824	@ 0x40000000
     900:	15000006 	strne	r0, [r0, #-6]
     904:	08030034 	stmdaeq	r3, {r2, r4, r5}
     908:	0b3b0b3a 	bleq	ec35f8 <_binary_assets_romhdr_bin_size+0xec3539>
     90c:	13490b39 	cmpne	r9, #58368	@ 0xe400
     910:	42b71702 	adcsmi	r1, r7, #524288	@ 0x80000
     914:	16000017 			@ <UNDEFINED> instruction: 0x16000017
     918:	0b0b000f 	bleq	2c095c <_binary_assets_romhdr_bin_size+0x2c089d>
     91c:	00001349 	andeq	r1, r0, r9, asr #6
     920:	000d0100 	andeq	r0, sp, r0, lsl #2
     924:	0b3a0e03 	bleq	e84138 <_binary_assets_romhdr_bin_size+0xe84079>
     928:	21390b3b 	teqcs	r9, fp, lsr fp
     92c:	3813490e 	ldmdacc	r3, {r1, r2, r3, r8, fp, lr}
     930:	0200000b 	andeq	r0, r0, #11
     934:	0b0b0024 	bleq	2c09cc <_binary_assets_romhdr_bin_size+0x2c090d>
     938:	0e030b3e 	vmoveq.16	d3[0], r0
     93c:	16030000 	strne	r0, [r3], -r0
     940:	3a0e0300 	bcc	381548 <_binary_assets_romhdr_bin_size+0x381489>
     944:	390b3b0b 	stmdbcc	fp, {r0, r1, r3, r8, r9, fp, ip, sp}
     948:	0013490b 	andseq	r4, r3, fp, lsl #18
     94c:	00050400 	andeq	r0, r5, r0, lsl #8
     950:	00001349 	andeq	r1, r0, r9, asr #6
     954:	03003405 	tsteq	r0, #83886080	@ 0x5000000
     958:	3b0b3a0e 	blcc	2cf198 <_binary_assets_romhdr_bin_size+0x2cf0d9>
     95c:	490b390b 	stmdbmi	fp, {r0, r1, r3, r8, fp, ip, sp}
     960:	3c193f13 	ldccc	15, cr3, [r9], {19}
     964:	06000019 			@ <UNDEFINED> instruction: 0x06000019
     968:	193f012e 	ldmdbne	pc!, {r1, r2, r3, r5, r8}	@ <UNPREDICTABLE>
     96c:	0b3a0e03 	bleq	e84180 <_binary_assets_romhdr_bin_size+0xe840c1>
     970:	21390b3b 	teqcs	r9, fp, lsr fp
     974:	3c192706 	ldccc	7, cr2, [r9], {6}
     978:	00130119 	andseq	r0, r3, r9, lsl r1
     97c:	01130700 	tsteq	r3, r0, lsl #14
     980:	0b3a0b0b 	bleq	e835b4 <_binary_assets_romhdr_bin_size+0xe834f5>
     984:	3906213b 	stmdbcc	r6, {r0, r1, r3, r4, r5, r8, sp}
     988:	13010921 	tstne	r1, #540672	@ 0x84000
     98c:	0f080000 	svceq	0x00080000
     990:	04210b00 	strteq	r0, [r1], #-2816	@ 0xfffff500
     994:	00001349 	andeq	r1, r0, r9, asr #6
     998:	7d004809 	stcvc	8, cr4, [r0, #-36]	@ 0xffffffdc
     99c:	00137f01 	andseq	r7, r3, r1, lsl #30
     9a0:	01110a00 	tsteq	r1, r0, lsl #20
     9a4:	0b130e25 	bleq	4c4240 <_binary_assets_romhdr_bin_size+0x4c4181>
     9a8:	910b0190 			@ <UNDEFINED> instruction: 0x910b0190
     9ac:	0e030601 	cdpeq	6, 0, cr0, cr3, cr1, {0}
     9b0:	01110e1b 	tsteq	r1, fp, lsl lr
     9b4:	17100612 			@ <UNDEFINED> instruction: 0x17100612
     9b8:	240b0000 	strcs	r0, [fp], #-0
     9bc:	3e0b0b00 	vmlacc.f64	d0, d11, d0
     9c0:	0008030b 	andeq	r0, r8, fp, lsl #6
     9c4:	01010c00 	tsteq	r1, r0, lsl #24
     9c8:	13011349 	tstne	r1, #603979777	@ 0x24000001
     9cc:	210d0000 	mrscs	r0, (UNDEF: 13)
     9d0:	2f134900 	svccs	0x00134900
     9d4:	0e000005 	cdpeq	0, 0, cr0, cr0, cr5, {0}
     9d8:	0b0b000f 	bleq	2c0a1c <_binary_assets_romhdr_bin_size+0x2c095d>
     9dc:	2e0f0000 	cdpcs	0, 0, cr0, cr15, cr0, {0}
     9e0:	03193f01 	tsteq	r9, #1, 30
     9e4:	3b0b3a0e 	blcc	2cf224 <_binary_assets_romhdr_bin_size+0x2cf165>
     9e8:	270b390b 	strcs	r3, [fp, -fp, lsl #18]
     9ec:	12011119 	andne	r1, r1, #1073741830	@ 0x40000006
     9f0:	7a184006 	bvc	610a10 <_binary_assets_romhdr_bin_size+0x610951>
     9f4:	10000019 	andne	r0, r0, r9, lsl r0
     9f8:	017d0148 	cmneq	sp, r8, asr #2
     9fc:	0000137f 	andeq	r1, r0, pc, ror r3
     a00:	02004911 	andeq	r4, r0, #278528	@ 0x44000
     a04:	00187e18 	andseq	r7, r8, r8, lsl lr
     a08:	11010000 	mrsne	r0, (UNDEF: 1)
     a0c:	130e2501 	tstne	lr, #4194304	@ 0x400000
     a10:	0b01900b 	bleq	64a44 <_binary_assets_romhdr_bin_size+0x64985>
     a14:	03060191 	tsteq	r6, #1073741860	@ 0x40000024
     a18:	550e1b0e 	strpl	r1, [lr, #-2830]	@ 0xfffff4f2
     a1c:	10011117 	andne	r1, r1, r7, lsl r1
     a20:	02000017 	andeq	r0, r0, #23
     a24:	193f002e 	ldmdbne	pc!, {r1, r2, r3, r5}	@ <UNPREDICTABLE>
     a28:	0b3a0e03 	bleq	e8423c <_binary_assets_romhdr_bin_size+0xe8417d>
     a2c:	0b390b3b 	bleq	e43720 <_binary_assets_romhdr_bin_size+0xe43661>
     a30:	193c1927 	ldmdbne	ip!, {r0, r1, r2, r5, r8, fp, ip}
     a34:	2e030000 	cdpcs	0, 0, cr0, cr3, cr0, {0}
     a38:	03193f01 	tsteq	r9, #1, 30
     a3c:	3b0b3a0e 	blcc	2cf27c <_binary_assets_romhdr_bin_size+0x2cf1bd>
     a40:	270b390b 	strcs	r3, [fp, -fp, lsl #18]
     a44:	12011119 	andne	r1, r1, #1073741830	@ 0x40000006
     a48:	7a184006 	bvc	610a68 <_binary_assets_romhdr_bin_size+0x6109a9>
     a4c:	04000019 	streq	r0, [r0], #-25	@ 0xffffffe7
     a50:	017d0048 	cmneq	sp, r8, asr #32
     a54:	0000137f 	andeq	r1, r0, pc, ror r3
     a58:	00240100 	eoreq	r0, r4, r0, lsl #2
     a5c:	0b3e0b0b 	bleq	f83690 <_binary_assets_romhdr_bin_size+0xf835d1>
     a60:	00000e03 	andeq	r0, r0, r3, lsl #28
     a64:	03002802 	tsteq	r0, #131072	@ 0x20000
     a68:	000b1c0e 	andeq	r1, fp, lr, lsl #24
     a6c:	01110300 	tsteq	r1, r0, lsl #6
     a70:	0b130e25 	bleq	4c430c <_binary_assets_romhdr_bin_size+0x4c424d>
     a74:	910b0190 			@ <UNDEFINED> instruction: 0x910b0190
     a78:	0e030601 	cdpeq	6, 0, cr0, cr3, cr1, {0}
     a7c:	01110e1b 	tsteq	r1, fp, lsl lr
     a80:	17100612 			@ <UNDEFINED> instruction: 0x17100612
     a84:	24040000 	strcs	r0, [r4], #-0
     a88:	3e0b0b00 	vmlacc.f64	d0, d11, d0
     a8c:	0008030b 	andeq	r0, r8, fp, lsl #6
     a90:	01040500 	tsteq	r4, r0, lsl #10
     a94:	0b0b0b3e 	bleq	2c3794 <_binary_assets_romhdr_bin_size+0x2c36d5>
     a98:	0b3a1349 	bleq	e857c4 <_binary_assets_romhdr_bin_size+0xe85705>
     a9c:	0b390b3b 	bleq	e43790 <_binary_assets_romhdr_bin_size+0xe436d1>
     aa0:	00001301 	andeq	r1, r0, r1, lsl #6
     aa4:	03001606 	tsteq	r0, #6291456	@ 0x600000
     aa8:	3b0b3a0e 	blcc	2cf2e8 <_binary_assets_romhdr_bin_size+0x2cf229>
     aac:	490b390b 	stmdbmi	fp, {r0, r1, r3, r8, fp, ip, sp}
     ab0:	07000013 			@ <UNDEFINED> instruction: 0x07000013
     ab4:	193f012e 	ldmdbne	pc!, {r1, r2, r3, r5, r8}	@ <UNPREDICTABLE>
     ab8:	0b3a0e03 	bleq	e842cc <_binary_assets_romhdr_bin_size+0xe8420d>
     abc:	0b390b3b 	bleq	e437b0 <_binary_assets_romhdr_bin_size+0xe436f1>
     ac0:	193c1927 	ldmdbne	ip!, {r0, r1, r2, r5, r8, fp, ip}
     ac4:	00001301 	andeq	r1, r0, r1, lsl #6
     ac8:	49000508 	stmdbmi	r0, {r3, r8, sl}
     acc:	09000013 	stmdbeq	r0, {r0, r1, r4}
     ad0:	193f012e 	ldmdbne	pc!, {r1, r2, r3, r5, r8}	@ <UNPREDICTABLE>
     ad4:	0b3a0e03 	bleq	e842e8 <_binary_assets_romhdr_bin_size+0xe84229>
     ad8:	0b390b3b 	bleq	e437cc <_binary_assets_romhdr_bin_size+0xe4370d>
     adc:	01111927 	tsteq	r1, r7, lsr #18
     ae0:	18400612 	stmdane	r0, {r1, r4, r9, sl}^
     ae4:	0000197a 	andeq	r1, r0, sl, ror r9
     ae8:	7d01480a 	stcvc	8, cr4, [r1, #-40]	@ 0xffffffd8
     aec:	00137f01 	andseq	r7, r3, r1, lsl #30
     af0:	00490b00 	subeq	r0, r9, r0, lsl #22
     af4:	187e1802 	ldmdane	lr!, {r1, fp, ip}^
     af8:	01000000 	mrseq	r0, (UNDEF: 0)
     afc:	0b0b0024 	bleq	2c0b94 <_binary_assets_romhdr_bin_size+0x2c0ad5>
     b00:	0e030b3e 	vmoveq.16	d3[0], r0
     b04:	28020000 	stmdacs	r2, {}	@ <UNPREDICTABLE>
     b08:	1c0e0300 	stcne	3, cr0, [lr], {-0}
     b0c:	0300000b 	tsteq	r0, #11
     b10:	0e250111 	mcreq	1, 1, r0, cr5, cr1, {0}
     b14:	01900b13 	orrseq	r0, r0, r3, lsl fp
     b18:	0601910b 	streq	r9, [r1], -fp, lsl #2
     b1c:	0e1b0e03 	cdpeq	14, 1, cr0, cr11, cr3, {0}
     b20:	06120111 			@ <UNDEFINED> instruction: 0x06120111
     b24:	00001710 	andeq	r1, r0, r0, lsl r7
     b28:	0b002404 	bleq	9b40 <_binary_assets_romhdr_bin_size+0x9a81>
     b2c:	030b3e0b 	tsteq	fp, #11, 28	@ 0xb0
     b30:	05000008 	streq	r0, [r0, #-8]
     b34:	0b3e0104 	bleq	f80f4c <_binary_assets_romhdr_bin_size+0xf80e8d>
     b38:	13490b0b 	cmpne	r9, #11264	@ 0x2c00
     b3c:	0b3b0b3a 	bleq	ec382c <_binary_assets_romhdr_bin_size+0xec376d>
     b40:	13010b39 	tstne	r1, #58368	@ 0xe400
     b44:	16060000 	strne	r0, [r6], -r0
     b48:	3a0e0300 	bcc	381750 <_binary_assets_romhdr_bin_size+0x381691>
     b4c:	390b3b0b 	stmdbcc	fp, {r0, r1, r3, r8, r9, fp, ip, sp}
     b50:	0013490b 	andseq	r4, r3, fp, lsl #18
     b54:	012e0700 			@ <UNDEFINED> instruction: 0x012e0700
     b58:	0e03193f 			@ <UNDEFINED> instruction: 0x0e03193f
     b5c:	0b3b0b3a 	bleq	ec384c <_binary_assets_romhdr_bin_size+0xec378d>
     b60:	19270b39 	stmdbne	r7!, {r0, r3, r4, r5, r8, r9, fp}
     b64:	1301193c 	tstne	r1, #60, 18	@ 0xf0000
     b68:	05080000 	streq	r0, [r8, #-0]
     b6c:	00134900 	andseq	r4, r3, r0, lsl #18
     b70:	012e0900 			@ <UNDEFINED> instruction: 0x012e0900
     b74:	0e03193f 			@ <UNDEFINED> instruction: 0x0e03193f
     b78:	0b3b0b3a 	bleq	ec3868 <_binary_assets_romhdr_bin_size+0xec37a9>
     b7c:	19270b39 	stmdbne	r7!, {r0, r3, r4, r5, r8, r9, fp}
     b80:	06120111 			@ <UNDEFINED> instruction: 0x06120111
     b84:	197a1840 	ldmdbne	sl!, {r6, fp, ip}^
     b88:	480a0000 	stmdami	sl, {}	@ <UNPREDICTABLE>
     b8c:	7f017d01 	svcvc	0x00017d01
     b90:	0b000013 	bleq	be4 <_binary_assets_romhdr_bin_size+0xb25>
     b94:	18020049 	stmdane	r2, {r0, r3, r6}
     b98:	0000187e 	andeq	r1, r0, lr, ror r8
     b9c:	00280100 	eoreq	r0, r8, r0, lsl #2
     ba0:	0b1c0e03 	bleq	7043b4 <_binary_assets_romhdr_bin_size+0x7042f5>
     ba4:	24020000 	strcs	r0, [r2], #-0
     ba8:	3e0b0b00 	vmlacc.f64	d0, d11, d0
     bac:	000e030b 	andeq	r0, lr, fp, lsl #6
     bb0:	00490300 	subeq	r0, r9, r0, lsl #6
     bb4:	187e1802 	ldmdane	lr!, {r1, fp, ip}^
     bb8:	48040000 	stmdami	r4, {}	@ <UNPREDICTABLE>
     bbc:	7f017d01 	svcvc	0x00017d01
     bc0:	00130113 	andseq	r0, r3, r3, lsl r1
     bc4:	00160500 	andseq	r0, r6, r0, lsl #10
     bc8:	0b3a0e03 	bleq	e843dc <_binary_assets_romhdr_bin_size+0xe8431d>
     bcc:	0b390b3b 	bleq	e438c0 <_binary_assets_romhdr_bin_size+0xe43801>
     bd0:	00001349 	andeq	r1, r0, r9, asr #6
     bd4:	49000506 	stmdbmi	r0, {r1, r2, r8, sl}
     bd8:	07000013 			@ <UNDEFINED> instruction: 0x07000013
     bdc:	017d0048 	cmneq	sp, r8, asr #32
     be0:	0000137f 	andeq	r1, r0, pc, ror r3
     be4:	3f012e08 	svccc	0x00012e08
     be8:	3a0e0319 	bcc	381854 <_binary_assets_romhdr_bin_size+0x381795>
     bec:	0b3b0121 	bleq	ec1078 <_binary_assets_romhdr_bin_size+0xec0fb9>
     bf0:	27062139 			@ <UNDEFINED> instruction: 0x27062139
     bf4:	12011119 	andne	r1, r1, #1073741830	@ 0x40000006
     bf8:	7a184006 	bvc	610c18 <_binary_assets_romhdr_bin_size+0x610b59>
     bfc:	00130119 	andseq	r0, r3, r9, lsl r1
     c00:	000d0900 	andeq	r0, sp, r0, lsl #18
     c04:	213a0e03 	teqcs	sl, r3, lsl #28
     c08:	390b3b03 	stmdbcc	fp, {r0, r1, r8, r9, fp, ip, sp}
     c0c:	3813490b 	ldmdacc	r3, {r0, r1, r3, r8, fp, lr}
     c10:	0a00000b 	beq	c44 <_binary_assets_romhdr_bin_size+0xb85>
     c14:	0e030034 	mcreq	0, 0, r0, cr3, cr4, {1}
     c18:	0b3b0b3a 	bleq	ec3908 <_binary_assets_romhdr_bin_size+0xec3849>
     c1c:	13490b39 	cmpne	r9, #58368	@ 0xe400
     c20:	193c193f 	ldmdbne	ip!, {r0, r1, r2, r3, r4, r5, r8, fp, ip}
     c24:	110b0000 	mrsne	r0, (UNDEF: 11)
     c28:	130e2501 	tstne	lr, #4194304	@ 0x400000
     c2c:	0b01900b 	bleq	64c60 <_binary_assets_romhdr_bin_size+0x64ba1>
     c30:	03060191 	tsteq	r6, #1073741860	@ 0x40000024
     c34:	110e1b0e 	tstne	lr, lr, lsl #22
     c38:	10061201 	andne	r1, r6, r1, lsl #4
     c3c:	0c000017 	stceq	0, cr0, [r0], {23}
     c40:	0b0b0024 	bleq	2c0cd8 <_binary_assets_romhdr_bin_size+0x2c0c19>
     c44:	08030b3e 	stmdaeq	r3, {r1, r2, r3, r4, r5, r8, r9, fp}
     c48:	040d0000 	streq	r0, [sp], #-0
     c4c:	0b0b3e01 	bleq	2d0458 <_binary_assets_romhdr_bin_size+0x2d0399>
     c50:	3a13490b 	bcc	4d3084 <_binary_assets_romhdr_bin_size+0x4d2fc5>
     c54:	390b3b0b 	stmdbcc	fp, {r0, r1, r3, r8, r9, fp, ip, sp}
     c58:	0013010b 	andseq	r0, r3, fp, lsl #2
     c5c:	01130e00 	tsteq	r3, r0, lsl #28
     c60:	0b3a0b0b 	bleq	e83894 <_binary_assets_romhdr_bin_size+0xe837d5>
     c64:	0b390b3b 	bleq	e43958 <_binary_assets_romhdr_bin_size+0xe43899>
     c68:	00001301 	andeq	r1, r0, r1, lsl #6
     c6c:	4901010f 	stmdbmi	r1, {r0, r1, r2, r3, r8}
     c70:	00130113 	andseq	r0, r3, r3, lsl r1
     c74:	00211000 	eoreq	r1, r1, r0
     c78:	052f1349 	streq	r1, [pc, #-841]!	@ 937 <_binary_assets_romhdr_bin_size+0x878>
     c7c:	34110000 	ldrcc	r0, [r1], #-0
     c80:	3a0e0300 	bcc	381888 <_binary_assets_romhdr_bin_size+0x3817c9>
     c84:	390b3b0b 	stmdbcc	fp, {r0, r1, r3, r8, r9, fp, ip, sp}
     c88:	3f13490b 	svccc	0x0013490b
     c8c:	00180219 	andseq	r0, r8, r9, lsl r2
     c90:	002e1200 	eoreq	r1, lr, r0, lsl #4
     c94:	0e03193f 			@ <UNDEFINED> instruction: 0x0e03193f
     c98:	0b3b0b3a 	bleq	ec3988 <_binary_assets_romhdr_bin_size+0xec38c9>
     c9c:	19270b39 	stmdbne	r7!, {r0, r3, r4, r5, r8, r9, fp}
     ca0:	0000193c 	andeq	r1, r0, ip, lsr r9
     ca4:	3f012e13 	svccc	0x00012e13
     ca8:	3a0e0319 	bcc	381914 <_binary_assets_romhdr_bin_size+0x381855>
     cac:	390b3b0b 	stmdbcc	fp, {r0, r1, r3, r8, r9, fp, ip, sp}
     cb0:	3c19270b 	ldccc	7, cr2, [r9], {11}
     cb4:	00130119 	andseq	r0, r3, r9, lsl r1
     cb8:	000f1400 	andeq	r1, pc, r0, lsl #8
     cbc:	13490b0b 	cmpne	r9, #11264	@ 0x2c00
     cc0:	26150000 	ldrcs	r0, [r5], -r0
     cc4:	16000000 	strne	r0, [r0], -r0
     cc8:	0b0b000f 	bleq	2c0d0c <_binary_assets_romhdr_bin_size+0x2c0c4d>
     ccc:	2e170000 	cdpcs	0, 1, cr0, cr7, cr0, {0}
     cd0:	03193f01 	tsteq	r9, #1, 30
     cd4:	3b0b3a0e 	blcc	2cf514 <_binary_assets_romhdr_bin_size+0x2cf455>
     cd8:	270b390b 	strcs	r3, [fp, -fp, lsl #18]
     cdc:	3c134919 			@ <UNDEFINED> instruction: 0x3c134919
     ce0:	00130119 	andseq	r0, r3, r9, lsl r1
     ce4:	011d1800 	tsteq	sp, r0, lsl #16
     ce8:	01521331 	cmpeq	r2, r1, lsr r3
     cec:	110b42b8 			@ <UNDEFINED> instruction: 0x110b42b8
     cf0:	58061201 	stmdapl	r6, {r0, r9, ip}
     cf4:	570b590b 	strpl	r5, [fp, -fp, lsl #18]
     cf8:	0013010b 	andseq	r0, r3, fp, lsl #2
     cfc:	002e1900 	eoreq	r1, lr, r0, lsl #18
     d00:	0e03193f 			@ <UNDEFINED> instruction: 0x0e03193f
     d04:	0b3b0b3a 	bleq	ec39f4 <_binary_assets_romhdr_bin_size+0xec3935>
     d08:	19270b39 	stmdbne	r7!, {r0, r3, r4, r5, r8, r9, fp}
     d0c:	00000b20 	andeq	r0, r0, r0, lsr #22
     d10:	0300341a 	tsteq	r0, #436207616	@ 0x1a000000
     d14:	3b0b3a0e 	blcc	2cf554 <_binary_assets_romhdr_bin_size+0x2cf495>
     d18:	490b390b 	stmdbmi	fp, {r0, r1, r3, r8, fp, ip, sp}
     d1c:	b7170213 			@ <UNDEFINED> instruction: 0xb7170213
     d20:	00001742 	andeq	r1, r0, r2, asr #14
     d24:	0300341b 	tsteq	r0, #452984832	@ 0x1b000000
     d28:	3b0b3a0e 	blcc	2cf568 <_binary_assets_romhdr_bin_size+0x2cf4a9>
     d2c:	490b390b 	stmdbmi	fp, {r0, r1, r3, r8, fp, ip, sp}
     d30:	1c000013 	stcne	0, cr0, [r0], {19}
     d34:	017d0148 	cmneq	sp, r8, asr #2
     d38:	0000137f 	andeq	r1, r0, pc, ror r3
     d3c:	31012e1d 	tstcc	r1, sp, lsl lr
     d40:	12011113 	andne	r1, r1, #-1073741820	@ 0xc0000004
     d44:	7a184006 	bvc	610d64 <_binary_assets_romhdr_bin_size+0x610ca5>
     d48:	00000019 	andeq	r0, r0, r9, lsl r0
     d4c:	03002801 	tsteq	r0, #65536	@ 0x10000
     d50:	000b1c0e 	andeq	r1, fp, lr, lsl #24
     d54:	00480200 	subeq	r0, r8, r0, lsl #4
     d58:	137f017d 	cmnne	pc, #1073741855	@ 0x4000001f
     d5c:	2e030000 	cdpcs	0, 0, cr0, cr3, cr0, {0}
     d60:	03193f00 	tsteq	r9, #0, 30
     d64:	3b0b3a0e 	blcc	2cf5a4 <_binary_assets_romhdr_bin_size+0x2cf4e5>
     d68:	0621390b 	strteq	r3, [r1], -fp, lsl #18
     d6c:	193c1927 	ldmdbne	ip!, {r0, r1, r2, r5, r8, fp, ip}
     d70:	24040000 	strcs	r0, [r4], #-0
     d74:	3e0b0b00 	vmlacc.f64	d0, d11, d0
     d78:	000e030b 	andeq	r0, lr, fp, lsl #6
     d7c:	00160500 	andseq	r0, r6, r0, lsl #10
     d80:	0b3a0e03 	bleq	e84594 <_binary_assets_romhdr_bin_size+0xe844d5>
     d84:	0b390b3b 	bleq	e43a78 <_binary_assets_romhdr_bin_size+0xe439b9>
     d88:	00001349 	andeq	r1, r0, r9, asr #6
     d8c:	03000d06 	tsteq	r0, #384	@ 0x180
     d90:	03213a0e 			@ <UNDEFINED> instruction: 0x03213a0e
     d94:	0b390b3b 	bleq	e43a88 <_binary_assets_romhdr_bin_size+0xe439c9>
     d98:	0b381349 	bleq	e05ac4 <_binary_assets_romhdr_bin_size+0xe05a05>
     d9c:	11070000 	mrsne	r0, (UNDEF: 7)
     da0:	130e2501 	tstne	lr, #4194304	@ 0x400000
     da4:	0b01900b 	bleq	64dd8 <_binary_assets_romhdr_bin_size+0x64d19>
     da8:	03060191 	tsteq	r6, #1073741860	@ 0x40000024
     dac:	110e1b0e 	tstne	lr, lr, lsl #22
     db0:	10061201 	andne	r1, r6, r1, lsl #4
     db4:	08000017 	stmdaeq	r0, {r0, r1, r2, r4}
     db8:	0b0b0024 	bleq	2c0e50 <_binary_assets_romhdr_bin_size+0x2c0d91>
     dbc:	08030b3e 	stmdaeq	r3, {r1, r2, r3, r4, r5, r8, r9, fp}
     dc0:	04090000 	streq	r0, [r9], #-0
     dc4:	0b0b3e01 	bleq	2d05d0 <_binary_assets_romhdr_bin_size+0x2d0511>
     dc8:	3a13490b 	bcc	4d31fc <_binary_assets_romhdr_bin_size+0x4d313d>
     dcc:	390b3b0b 	stmdbcc	fp, {r0, r1, r3, r8, r9, fp, ip, sp}
     dd0:	0013010b 	andseq	r0, r3, fp, lsl #2
     dd4:	01130a00 	tsteq	r3, r0, lsl #20
     dd8:	0b3a0b0b 	bleq	e83a0c <_binary_assets_romhdr_bin_size+0xe8394d>
     ddc:	0b390b3b 	bleq	e43ad0 <_binary_assets_romhdr_bin_size+0xe43a11>
     de0:	00001301 	andeq	r1, r0, r1, lsl #6
     de4:	0300340b 	tsteq	r0, #184549376	@ 0xb000000
     de8:	3b0b3a0e 	blcc	2cf628 <_binary_assets_romhdr_bin_size+0x2cf569>
     dec:	490b390b 	stmdbmi	fp, {r0, r1, r3, r8, fp, ip, sp}
     df0:	3c193f13 	ldccc	15, cr3, [r9], {19}
     df4:	0c000019 	stceq	0, cr0, [r0], {25}
     df8:	193f012e 	ldmdbne	pc!, {r1, r2, r3, r5, r8}	@ <UNPREDICTABLE>
     dfc:	0b3a0e03 	bleq	e84610 <_binary_assets_romhdr_bin_size+0xe84551>
     e00:	0b390b3b 	bleq	e43af4 <_binary_assets_romhdr_bin_size+0xe43a35>
     e04:	01111927 	tsteq	r1, r7, lsr #18
     e08:	18400612 	stmdane	r0, {r1, r4, r9, sl}^
     e0c:	0000197a 	andeq	r1, r0, sl, ror r9
     e10:	03000a0d 	tsteq	r0, #53248	@ 0xd000
     e14:	3b0b3a0e 	blcc	2cf654 <_binary_assets_romhdr_bin_size+0x2cf595>
     e18:	110b390b 	tstne	fp, fp, lsl #18
     e1c:	00000001 	andeq	r0, r0, r1
     e20:	0b002401 	bleq	9e2c <_binary_assets_romhdr_bin_size+0x9d6d>
     e24:	030b3e0b 	tsteq	fp, #11, 28	@ 0xb0
     e28:	0200000e 	andeq	r0, r0, #14
     e2c:	0e030028 	cdpeq	0, 0, cr0, cr3, cr8, {1}
     e30:	00000b1c 	andeq	r0, r0, ip, lsl fp
     e34:	25011103 	strcs	r1, [r1, #-259]	@ 0xfffffefd
     e38:	900b130e 	andls	r1, fp, lr, lsl #6
     e3c:	01910b01 	orrseq	r0, r1, r1, lsl #22
     e40:	1b0e0306 	blne	381a60 <_binary_assets_romhdr_bin_size+0x3819a1>
     e44:	1201110e 	andne	r1, r1, #-2147483645	@ 0x80000003
     e48:	00171006 	andseq	r1, r7, r6
     e4c:	00240400 	eoreq	r0, r4, r0, lsl #8
     e50:	0b3e0b0b 	bleq	f83a84 <_binary_assets_romhdr_bin_size+0xf839c5>
     e54:	00000803 	andeq	r0, r0, r3, lsl #16
     e58:	3e010405 	cdpcc	4, 0, cr0, cr1, cr5, {0}
     e5c:	490b0b0b 	stmdbmi	fp, {r0, r1, r3, r8, r9, fp}
     e60:	3b0b3a13 	blcc	2cf6b4 <_binary_assets_romhdr_bin_size+0x2cf5f5>
     e64:	010b390b 	tsteq	fp, fp, lsl #18
     e68:	06000013 			@ <UNDEFINED> instruction: 0x06000013
     e6c:	0e030016 	mcreq	0, 0, r0, cr3, cr6, {0}
     e70:	0b3b0b3a 	bleq	ec3b60 <_binary_assets_romhdr_bin_size+0xec3aa1>
     e74:	13490b39 	cmpne	r9, #58368	@ 0xe400
     e78:	2e070000 	cdpcs	0, 0, cr0, cr7, cr0, {0}
     e7c:	03193f01 	tsteq	r9, #1, 30
     e80:	3b0b3a0e 	blcc	2cf6c0 <_binary_assets_romhdr_bin_size+0x2cf601>
     e84:	270b390b 	strcs	r3, [fp, -fp, lsl #18]
     e88:	01193c19 	tsteq	r9, r9, lsl ip
     e8c:	08000013 	stmdaeq	r0, {r0, r1, r4}
     e90:	13490005 	cmpne	r9, #5
     e94:	2e090000 	cdpcs	0, 0, cr0, cr9, cr0, {0}
     e98:	03193f01 	tsteq	r9, #1, 30
     e9c:	3b0b3a0e 	blcc	2cf6dc <_binary_assets_romhdr_bin_size+0x2cf61d>
     ea0:	270b390b 	strcs	r3, [fp, -fp, lsl #18]
     ea4:	12011119 	andne	r1, r1, #1073741830	@ 0x40000006
     ea8:	7a184006 	bvc	610ec8 <_binary_assets_romhdr_bin_size+0x610e09>
     eac:	0a000019 	beq	f18 <_binary_assets_romhdr_bin_size+0xe59>
     eb0:	017d0148 	cmneq	sp, r8, asr #2
     eb4:	0000137f 	andeq	r1, r0, pc, ror r3
     eb8:	0200490b 	andeq	r4, r0, #180224	@ 0x2c000
     ebc:	00187e18 	andseq	r7, r8, r8, lsl lr
     ec0:	24010000 	strcs	r0, [r1], #-0
     ec4:	3e0b0b00 	vmlacc.f64	d0, d11, d0
     ec8:	000e030b 	andeq	r0, lr, fp, lsl #6
     ecc:	00280200 	eoreq	r0, r8, r0, lsl #4
     ed0:	0b1c0e03 	bleq	7046e4 <_binary_assets_romhdr_bin_size+0x704625>
     ed4:	11030000 	mrsne	r0, (UNDEF: 3)
     ed8:	130e2501 	tstne	lr, #4194304	@ 0x400000
     edc:	0b01900b 	bleq	64f10 <_binary_assets_romhdr_bin_size+0x64e51>
     ee0:	03060191 	tsteq	r6, #1073741860	@ 0x40000024
     ee4:	110e1b0e 	tstne	lr, lr, lsl #22
     ee8:	10061201 	andne	r1, r6, r1, lsl #4
     eec:	04000017 	streq	r0, [r0], #-23	@ 0xffffffe9
     ef0:	0b0b0024 	bleq	2c0f88 <_binary_assets_romhdr_bin_size+0x2c0ec9>
     ef4:	08030b3e 	stmdaeq	r3, {r1, r2, r3, r4, r5, r8, r9, fp}
     ef8:	04050000 	streq	r0, [r5], #-0
     efc:	0b0b3e01 	bleq	2d0708 <_binary_assets_romhdr_bin_size+0x2d0649>
     f00:	3a13490b 	bcc	4d3334 <_binary_assets_romhdr_bin_size+0x4d3275>
     f04:	390b3b0b 	stmdbcc	fp, {r0, r1, r3, r8, r9, fp, ip, sp}
     f08:	0013010b 	andseq	r0, r3, fp, lsl #2
     f0c:	00160600 	andseq	r0, r6, r0, lsl #12
     f10:	0b3a0e03 	bleq	e84724 <_binary_assets_romhdr_bin_size+0xe84665>
     f14:	0b390b3b 	bleq	e43c08 <_binary_assets_romhdr_bin_size+0xe43b49>
     f18:	00001349 	andeq	r1, r0, r9, asr #6
     f1c:	3f012e07 	svccc	0x00012e07
     f20:	3a0e0319 	bcc	381b8c <_binary_assets_romhdr_bin_size+0x381acd>
     f24:	390b3b0b 	stmdbcc	fp, {r0, r1, r3, r8, r9, fp, ip, sp}
     f28:	3c19270b 	ldccc	7, cr2, [r9], {11}
     f2c:	00130119 	andseq	r0, r3, r9, lsl r1
     f30:	00050800 	andeq	r0, r5, r0, lsl #16
     f34:	00001349 	andeq	r1, r0, r9, asr #6
     f38:	3f012e09 	svccc	0x00012e09
     f3c:	3a0e0319 	bcc	381ba8 <_binary_assets_romhdr_bin_size+0x381ae9>
     f40:	390b3b0b 	stmdbcc	fp, {r0, r1, r3, r8, r9, fp, ip, sp}
     f44:	1119270b 	tstne	r9, fp, lsl #14
     f48:	40061201 	andmi	r1, r6, r1, lsl #4
     f4c:	00197a18 	andseq	r7, r9, r8, lsl sl
     f50:	01480a00 	cmpeq	r8, r0, lsl #20
     f54:	137f017d 	cmnne	pc, #1073741855	@ 0x4000001f
     f58:	490b0000 	stmdbmi	fp, {}	@ <UNPREDICTABLE>
     f5c:	7e180200 	cdpvc	2, 1, cr0, cr8, cr0, {0}
     f60:	00000018 	andeq	r0, r0, r8, lsl r0
     f64:	0b002401 	bleq	9f70 <_binary_assets_romhdr_bin_size+0x9eb1>
     f68:	030b3e0b 	tsteq	fp, #11, 28	@ 0xb0
     f6c:	0200000e 	andeq	r0, r0, #14
     f70:	0e030028 	cdpeq	0, 0, cr0, cr3, cr8, {1}
     f74:	00000b1c 	andeq	r0, r0, ip, lsl fp
     f78:	25011103 	strcs	r1, [r1, #-259]	@ 0xfffffefd
     f7c:	900b130e 	andls	r1, fp, lr, lsl #6
     f80:	01910b01 	orrseq	r0, r1, r1, lsl #22
     f84:	1b0e0306 	blne	381ba4 <_binary_assets_romhdr_bin_size+0x381ae5>
     f88:	1201110e 	andne	r1, r1, #-2147483645	@ 0x80000003
     f8c:	00171006 	andseq	r1, r7, r6
     f90:	00240400 	eoreq	r0, r4, r0, lsl #8
     f94:	0b3e0b0b 	bleq	f83bc8 <_binary_assets_romhdr_bin_size+0xf83b09>
     f98:	00000803 	andeq	r0, r0, r3, lsl #16
     f9c:	3e010405 	cdpcc	4, 0, cr0, cr1, cr5, {0}
     fa0:	490b0b0b 	stmdbmi	fp, {r0, r1, r3, r8, r9, fp}
     fa4:	3b0b3a13 	blcc	2cf7f8 <_binary_assets_romhdr_bin_size+0x2cf739>
     fa8:	010b390b 	tsteq	fp, fp, lsl #18
     fac:	06000013 			@ <UNDEFINED> instruction: 0x06000013
     fb0:	0e030016 	mcreq	0, 0, r0, cr3, cr6, {0}
     fb4:	0b3b0b3a 	bleq	ec3ca4 <_binary_assets_romhdr_bin_size+0xec3be5>
     fb8:	13490b39 	cmpne	r9, #58368	@ 0xe400
     fbc:	2e070000 	cdpcs	0, 0, cr0, cr7, cr0, {0}
     fc0:	03193f01 	tsteq	r9, #1, 30
     fc4:	3b0b3a0e 	blcc	2cf804 <_binary_assets_romhdr_bin_size+0x2cf745>
     fc8:	270b390b 	strcs	r3, [fp, -fp, lsl #18]
     fcc:	01193c19 	tsteq	r9, r9, lsl ip
     fd0:	08000013 	stmdaeq	r0, {r0, r1, r4}
     fd4:	13490005 	cmpne	r9, #5
     fd8:	2e090000 	cdpcs	0, 0, cr0, cr9, cr0, {0}
     fdc:	03193f01 	tsteq	r9, #1, 30
     fe0:	3b0b3a0e 	blcc	2cf820 <_binary_assets_romhdr_bin_size+0x2cf761>
     fe4:	270b390b 	strcs	r3, [fp, -fp, lsl #18]
     fe8:	12011119 	andne	r1, r1, #1073741830	@ 0x40000006
     fec:	7a184006 	bvc	61100c <_binary_assets_romhdr_bin_size+0x610f4d>
     ff0:	0a000019 	beq	105c <_binary_assets_romhdr_bin_size+0xf9d>
     ff4:	017d0148 	cmneq	sp, r8, asr #2
     ff8:	0000137f 	andeq	r1, r0, pc, ror r3
     ffc:	0200490b 	andeq	r4, r0, #180224	@ 0x2c000
    1000:	00187e18 	andseq	r7, r8, r8, lsl lr
    1004:	24010000 	strcs	r0, [r1], #-0
    1008:	3e0b0b00 	vmlacc.f64	d0, d11, d0
    100c:	000e030b 	andeq	r0, lr, fp, lsl #6
    1010:	00280200 	eoreq	r0, r8, r0, lsl #4
    1014:	0b1c0e03 	bleq	704828 <_binary_assets_romhdr_bin_size+0x704769>
    1018:	11030000 	mrsne	r0, (UNDEF: 3)
    101c:	130e2501 	tstne	lr, #4194304	@ 0x400000
    1020:	0b01900b 	bleq	65054 <_binary_assets_romhdr_bin_size+0x64f95>
    1024:	03060191 	tsteq	r6, #1073741860	@ 0x40000024
    1028:	110e1b0e 	tstne	lr, lr, lsl #22
    102c:	10061201 	andne	r1, r6, r1, lsl #4
    1030:	04000017 	streq	r0, [r0], #-23	@ 0xffffffe9
    1034:	0b0b0024 	bleq	2c10cc <_binary_assets_romhdr_bin_size+0x2c100d>
    1038:	08030b3e 	stmdaeq	r3, {r1, r2, r3, r4, r5, r8, r9, fp}
    103c:	04050000 	streq	r0, [r5], #-0
    1040:	0b0b3e01 	bleq	2d084c <_binary_assets_romhdr_bin_size+0x2d078d>
    1044:	3a13490b 	bcc	4d3478 <_binary_assets_romhdr_bin_size+0x4d33b9>
    1048:	390b3b0b 	stmdbcc	fp, {r0, r1, r3, r8, r9, fp, ip, sp}
    104c:	0013010b 	andseq	r0, r3, fp, lsl #2
    1050:	00160600 	andseq	r0, r6, r0, lsl #12
    1054:	0b3a0e03 	bleq	e84868 <_binary_assets_romhdr_bin_size+0xe847a9>
    1058:	0b390b3b 	bleq	e43d4c <_binary_assets_romhdr_bin_size+0xe43c8d>
    105c:	00001349 	andeq	r1, r0, r9, asr #6
    1060:	3f012e07 	svccc	0x00012e07
    1064:	3a0e0319 	bcc	381cd0 <_binary_assets_romhdr_bin_size+0x381c11>
    1068:	390b3b0b 	stmdbcc	fp, {r0, r1, r3, r8, r9, fp, ip, sp}
    106c:	3c19270b 	ldccc	7, cr2, [r9], {11}
    1070:	00130119 	andseq	r0, r3, r9, lsl r1
    1074:	00050800 	andeq	r0, r5, r0, lsl #16
    1078:	00001349 	andeq	r1, r0, r9, asr #6
    107c:	3f012e09 	svccc	0x00012e09
    1080:	3a0e0319 	bcc	381cec <_binary_assets_romhdr_bin_size+0x381c2d>
    1084:	390b3b0b 	stmdbcc	fp, {r0, r1, r3, r8, r9, fp, ip, sp}
    1088:	1119270b 	tstne	r9, fp, lsl #14
    108c:	40061201 	andmi	r1, r6, r1, lsl #4
    1090:	00197a18 	andseq	r7, r9, r8, lsl sl
    1094:	01480a00 	cmpeq	r8, r0, lsl #20
    1098:	137f017d 	cmnne	pc, #1073741855	@ 0x4000001f
    109c:	490b0000 	stmdbmi	fp, {}	@ <UNPREDICTABLE>
    10a0:	7e180200 	cdpvc	2, 1, cr0, cr8, cr0, {0}
    10a4:	00000018 	andeq	r0, r0, r8, lsl r0
    10a8:	0b002401 	bleq	a0b4 <_binary_assets_romhdr_bin_size+0x9ff5>
    10ac:	030b3e0b 	tsteq	fp, #11, 28	@ 0xb0
    10b0:	0200000e 	andeq	r0, r0, #14
    10b4:	0e030028 	cdpeq	0, 0, cr0, cr3, cr8, {1}
    10b8:	00000b1c 	andeq	r0, r0, ip, lsl fp
    10bc:	25011103 	strcs	r1, [r1, #-259]	@ 0xfffffefd
    10c0:	900b130e 	andls	r1, fp, lr, lsl #6
    10c4:	01910b01 	orrseq	r0, r1, r1, lsl #22
    10c8:	1b0e0306 	blne	381ce8 <_binary_assets_romhdr_bin_size+0x381c29>
    10cc:	1201110e 	andne	r1, r1, #-2147483645	@ 0x80000003
    10d0:	00171006 	andseq	r1, r7, r6
    10d4:	00240400 	eoreq	r0, r4, r0, lsl #8
    10d8:	0b3e0b0b 	bleq	f83d0c <_binary_assets_romhdr_bin_size+0xf83c4d>
    10dc:	00000803 	andeq	r0, r0, r3, lsl #16
    10e0:	3e010405 	cdpcc	4, 0, cr0, cr1, cr5, {0}
    10e4:	490b0b0b 	stmdbmi	fp, {r0, r1, r3, r8, r9, fp}
    10e8:	3b0b3a13 	blcc	2cf93c <_binary_assets_romhdr_bin_size+0x2cf87d>
    10ec:	010b390b 	tsteq	fp, fp, lsl #18
    10f0:	06000013 			@ <UNDEFINED> instruction: 0x06000013
    10f4:	0e030016 	mcreq	0, 0, r0, cr3, cr6, {0}
    10f8:	0b3b0b3a 	bleq	ec3de8 <_binary_assets_romhdr_bin_size+0xec3d29>
    10fc:	13490b39 	cmpne	r9, #58368	@ 0xe400
    1100:	2e070000 	cdpcs	0, 0, cr0, cr7, cr0, {0}
    1104:	03193f01 	tsteq	r9, #1, 30
    1108:	3b0b3a0e 	blcc	2cf948 <_binary_assets_romhdr_bin_size+0x2cf889>
    110c:	270b390b 	strcs	r3, [fp, -fp, lsl #18]
    1110:	01193c19 	tsteq	r9, r9, lsl ip
    1114:	08000013 	stmdaeq	r0, {r0, r1, r4}
    1118:	13490005 	cmpne	r9, #5
    111c:	2e090000 	cdpcs	0, 0, cr0, cr9, cr0, {0}
    1120:	03193f01 	tsteq	r9, #1, 30
    1124:	3b0b3a0e 	blcc	2cf964 <_binary_assets_romhdr_bin_size+0x2cf8a5>
    1128:	270b390b 	strcs	r3, [fp, -fp, lsl #18]
    112c:	12011119 	andne	r1, r1, #1073741830	@ 0x40000006
    1130:	7a184006 	bvc	611150 <_binary_assets_romhdr_bin_size+0x611091>
    1134:	0a000019 	beq	11a0 <_binary_assets_romhdr_bin_size+0x10e1>
    1138:	017d0148 	cmneq	sp, r8, asr #2
    113c:	0000137f 	andeq	r1, r0, pc, ror r3
    1140:	0200490b 	andeq	r4, r0, #180224	@ 0x2c000
    1144:	00187e18 	andseq	r7, r8, r8, lsl lr
    1148:	24010000 	strcs	r0, [r1], #-0
    114c:	3e0b0b00 	vmlacc.f64	d0, d11, d0
    1150:	000e030b 	andeq	r0, lr, fp, lsl #6
    1154:	00280200 	eoreq	r0, r8, r0, lsl #4
    1158:	0b1c0e03 	bleq	70496c <_binary_assets_romhdr_bin_size+0x7048ad>
    115c:	11030000 	mrsne	r0, (UNDEF: 3)
    1160:	130e2501 	tstne	lr, #4194304	@ 0x400000
    1164:	0b01900b 	bleq	65198 <_binary_assets_romhdr_bin_size+0x650d9>
    1168:	03060191 	tsteq	r6, #1073741860	@ 0x40000024
    116c:	110e1b0e 	tstne	lr, lr, lsl #22
    1170:	10061201 	andne	r1, r6, r1, lsl #4
    1174:	04000017 	streq	r0, [r0], #-23	@ 0xffffffe9
    1178:	0b0b0024 	bleq	2c1210 <_binary_assets_romhdr_bin_size+0x2c1151>
    117c:	08030b3e 	stmdaeq	r3, {r1, r2, r3, r4, r5, r8, r9, fp}
    1180:	04050000 	streq	r0, [r5], #-0
    1184:	0b0b3e01 	bleq	2d0990 <_binary_assets_romhdr_bin_size+0x2d08d1>
    1188:	3a13490b 	bcc	4d35bc <_binary_assets_romhdr_bin_size+0x4d34fd>
    118c:	390b3b0b 	stmdbcc	fp, {r0, r1, r3, r8, r9, fp, ip, sp}
    1190:	0013010b 	andseq	r0, r3, fp, lsl #2
    1194:	00160600 	andseq	r0, r6, r0, lsl #12
    1198:	0b3a0e03 	bleq	e849ac <_binary_assets_romhdr_bin_size+0xe848ed>
    119c:	0b390b3b 	bleq	e43e90 <_binary_assets_romhdr_bin_size+0xe43dd1>
    11a0:	00001349 	andeq	r1, r0, r9, asr #6
    11a4:	3f012e07 	svccc	0x00012e07
    11a8:	3a0e0319 	bcc	381e14 <_binary_assets_romhdr_bin_size+0x381d55>
    11ac:	390b3b0b 	stmdbcc	fp, {r0, r1, r3, r8, r9, fp, ip, sp}
    11b0:	3c19270b 	ldccc	7, cr2, [r9], {11}
    11b4:	00130119 	andseq	r0, r3, r9, lsl r1
    11b8:	00050800 	andeq	r0, r5, r0, lsl #16
    11bc:	00001349 	andeq	r1, r0, r9, asr #6
    11c0:	3f012e09 	svccc	0x00012e09
    11c4:	3a0e0319 	bcc	381e30 <_binary_assets_romhdr_bin_size+0x381d71>
    11c8:	390b3b0b 	stmdbcc	fp, {r0, r1, r3, r8, r9, fp, ip, sp}
    11cc:	1119270b 	tstne	r9, fp, lsl #14
    11d0:	40061201 	andmi	r1, r6, r1, lsl #4
    11d4:	00197a18 	andseq	r7, r9, r8, lsl sl
    11d8:	01480a00 	cmpeq	r8, r0, lsl #20
    11dc:	137f017d 	cmnne	pc, #1073741855	@ 0x4000001f
    11e0:	490b0000 	stmdbmi	fp, {}	@ <UNPREDICTABLE>
    11e4:	7e180200 	cdpvc	2, 1, cr0, cr8, cr0, {0}
    11e8:	00000018 	andeq	r0, r0, r8, lsl r0
    11ec:	0b002401 	bleq	a1f8 <_binary_assets_romhdr_bin_size+0xa139>
    11f0:	030b3e0b 	tsteq	fp, #11, 28	@ 0xb0
    11f4:	0200000e 	andeq	r0, r0, #14
    11f8:	0e030028 	cdpeq	0, 0, cr0, cr3, cr8, {1}
    11fc:	00000b1c 	andeq	r0, r0, ip, lsl fp
    1200:	25011103 	strcs	r1, [r1, #-259]	@ 0xfffffefd
    1204:	900b130e 	andls	r1, fp, lr, lsl #6
    1208:	01910b01 	orrseq	r0, r1, r1, lsl #22
    120c:	1b0e0306 	blne	381e2c <_binary_assets_romhdr_bin_size+0x381d6d>
    1210:	1201110e 	andne	r1, r1, #-2147483645	@ 0x80000003
    1214:	00171006 	andseq	r1, r7, r6
    1218:	00240400 	eoreq	r0, r4, r0, lsl #8
    121c:	0b3e0b0b 	bleq	f83e50 <_binary_assets_romhdr_bin_size+0xf83d91>
    1220:	00000803 	andeq	r0, r0, r3, lsl #16
    1224:	3e010405 	cdpcc	4, 0, cr0, cr1, cr5, {0}
    1228:	490b0b0b 	stmdbmi	fp, {r0, r1, r3, r8, r9, fp}
    122c:	3b0b3a13 	blcc	2cfa80 <_binary_assets_romhdr_bin_size+0x2cf9c1>
    1230:	010b390b 	tsteq	fp, fp, lsl #18
    1234:	06000013 			@ <UNDEFINED> instruction: 0x06000013
    1238:	0e030016 	mcreq	0, 0, r0, cr3, cr6, {0}
    123c:	0b3b0b3a 	bleq	ec3f2c <_binary_assets_romhdr_bin_size+0xec3e6d>
    1240:	13490b39 	cmpne	r9, #58368	@ 0xe400
    1244:	2e070000 	cdpcs	0, 0, cr0, cr7, cr0, {0}
    1248:	03193f01 	tsteq	r9, #1, 30
    124c:	3b0b3a0e 	blcc	2cfa8c <_binary_assets_romhdr_bin_size+0x2cf9cd>
    1250:	270b390b 	strcs	r3, [fp, -fp, lsl #18]
    1254:	01193c19 	tsteq	r9, r9, lsl ip
    1258:	08000013 	stmdaeq	r0, {r0, r1, r4}
    125c:	13490005 	cmpne	r9, #5
    1260:	2e090000 	cdpcs	0, 0, cr0, cr9, cr0, {0}
    1264:	03193f01 	tsteq	r9, #1, 30
    1268:	3b0b3a0e 	blcc	2cfaa8 <_binary_assets_romhdr_bin_size+0x2cf9e9>
    126c:	270b390b 	strcs	r3, [fp, -fp, lsl #18]
    1270:	12011119 	andne	r1, r1, #1073741830	@ 0x40000006
    1274:	7a184006 	bvc	611294 <_binary_assets_romhdr_bin_size+0x6111d5>
    1278:	0a000019 	beq	12e4 <_binary_assets_romhdr_bin_size+0x1225>
    127c:	017d0148 	cmneq	sp, r8, asr #2
    1280:	0000137f 	andeq	r1, r0, pc, ror r3
    1284:	0200490b 	andeq	r4, r0, #180224	@ 0x2c000
    1288:	00187e18 	andseq	r7, r8, r8, lsl lr
    128c:	24010000 	strcs	r0, [r1], #-0
    1290:	3e0b0b00 	vmlacc.f64	d0, d11, d0
    1294:	000e030b 	andeq	r0, lr, fp, lsl #6
    1298:	00050200 	andeq	r0, r5, r0, lsl #4
    129c:	213a0e03 	teqcs	sl, r3, lsl #28
    12a0:	390b3b01 	stmdbcc	fp, {r0, r8, r9, fp, ip, sp}
    12a4:	0213490b 	andseq	r4, r3, #180224	@ 0x2c000
    12a8:	1742b717 			@ <UNDEFINED> instruction: 0x1742b717
    12ac:	16030000 	strne	r0, [r3], -r0
    12b0:	3a0e0300 	bcc	381eb8 <_binary_assets_romhdr_bin_size+0x381df9>
    12b4:	390b3b0b 	stmdbcc	fp, {r0, r1, r3, r8, r9, fp, ip, sp}
    12b8:	0013490b 	andseq	r4, r3, fp, lsl #18
    12bc:	01110400 	tsteq	r1, r0, lsl #8
    12c0:	0b130e25 	bleq	4c4b5c <_binary_assets_romhdr_bin_size+0x4c4a9d>
    12c4:	0e1b0e03 	cdpeq	14, 1, cr0, cr11, cr3, {0}
    12c8:	01111755 	tsteq	r1, r5, asr r7
    12cc:	00001710 	andeq	r1, r0, r0, lsl r7
    12d0:	0b002405 	bleq	a2ec <_binary_assets_romhdr_bin_size+0xa22d>
    12d4:	030b3e0b 	tsteq	fp, #11, 28	@ 0xb0
    12d8:	06000008 	streq	r0, [r0], -r8
    12dc:	08030016 	stmdaeq	r3, {r1, r2, r4}
    12e0:	0b3b0b3a 	bleq	ec3fd0 <_binary_assets_romhdr_bin_size+0xec3f11>
    12e4:	13490b39 	cmpne	r9, #58368	@ 0xe400
    12e8:	2e070000 	cdpcs	0, 0, cr0, cr7, cr0, {0}
    12ec:	03193f01 	tsteq	r9, #1, 30
    12f0:	3b0b3a0e 	blcc	2cfb30 <_binary_assets_romhdr_bin_size+0x2cfa71>
    12f4:	270b390b 	strcs	r3, [fp, -fp, lsl #18]
    12f8:	12011119 	andne	r1, r1, #1073741830	@ 0x40000006
    12fc:	7a184006 	bvc	61131c <_binary_assets_romhdr_bin_size+0x61125d>
    1300:	00130119 	andseq	r0, r3, r9, lsl r1
    1304:	000f0800 	andeq	r0, pc, r0, lsl #16
    1308:	13490b0b 	cmpne	r9, #11264	@ 0x2c00
    130c:	26090000 	strcs	r0, [r9], -r0
    1310:	0a000000 	beq	1318 <_binary_assets_romhdr_bin_size+0x1259>
    1314:	0b0b000f 	bleq	2c1358 <_binary_assets_romhdr_bin_size+0x2c1299>
    1318:	2e0b0000 	cdpcs	0, 0, cr0, cr11, cr0, {0}
    131c:	03193f01 	tsteq	r9, #1, 30
    1320:	3b0b3a0e 	blcc	2cfb60 <_binary_assets_romhdr_bin_size+0x2cfaa1>
    1324:	270b390b 	strcs	r3, [fp, -fp, lsl #18]
    1328:	12011119 	andne	r1, r1, #1073741830	@ 0x40000006
    132c:	7a184006 	bvc	61134c <_binary_assets_romhdr_bin_size+0x61128d>
    1330:	00000019 	andeq	r0, r0, r9, lsl r0
    1334:	03002801 	tsteq	r0, #65536	@ 0x10000
    1338:	000b1c0e 	andeq	r1, fp, lr, lsl #24
    133c:	00240200 	eoreq	r0, r4, r0, lsl #4
    1340:	0b3e0b0b 	bleq	f83f74 <_binary_assets_romhdr_bin_size+0xf83eb5>
    1344:	00000e03 	andeq	r0, r0, r3, lsl #28
    1348:	03001603 	tsteq	r0, #3145728	@ 0x300000
    134c:	3b0b3a0e 	blcc	2cfb8c <_binary_assets_romhdr_bin_size+0x2cfacd>
    1350:	490b390b 	stmdbmi	fp, {r0, r1, r3, r8, fp, ip, sp}
    1354:	04000013 	streq	r0, [r0], #-19	@ 0xffffffed
    1358:	0e030028 	cdpeq	0, 0, cr0, cr3, cr8, {1}
    135c:	0000051c 	andeq	r0, r0, ip, lsl r5
    1360:	03000505 	tsteq	r0, #20971520	@ 0x1400000
    1364:	01213a0e 			@ <UNDEFINED> instruction: 0x01213a0e
    1368:	0b390b3b 	bleq	e4405c <_binary_assets_romhdr_bin_size+0xe43f9d>
    136c:	00001349 	andeq	r1, r0, r9, asr #6
    1370:	31000506 	tstcc	r0, r6, lsl #10
    1374:	b7170213 			@ <UNDEFINED> instruction: 0xb7170213
    1378:	00001742 	andeq	r1, r0, r2, asr #14
    137c:	31011d07 	tstcc	r1, r7, lsl #26
    1380:	b8015213 	stmdalt	r1, {r0, r1, r4, r9, ip, lr}
    1384:	17550b42 	ldrbne	r0, [r5, -r2, asr #22]
    1388:	59012158 	stmdbpl	r1, {r3, r4, r6, r8, sp}
    138c:	000b570b 	andeq	r5, fp, fp, lsl #14
    1390:	012e0800 			@ <UNDEFINED> instruction: 0x012e0800
    1394:	0e03193f 			@ <UNDEFINED> instruction: 0x0e03193f
    1398:	3b01213a 	blcc	49888 <_binary_assets_romhdr_bin_size+0x497c9>
    139c:	0621390b 	strteq	r3, [r1], -fp, lsl #18
    13a0:	01111927 	tsteq	r1, r7, lsr #18
    13a4:	18400612 	stmdane	r0, {r1, r4, r9, sl}^
    13a8:	1301197a 	tstne	r1, #1998848	@ 0x1e8000
    13ac:	34090000 	strcc	r0, [r9], #-0
    13b0:	02133100 	andseq	r3, r3, #0, 2
    13b4:	1742b717 			@ <UNDEFINED> instruction: 0x1742b717
    13b8:	2e0a0000 	cdpcs	0, 0, cr0, cr10, cr0, {0}
    13bc:	11133101 	tstne	r3, r1, lsl #2
    13c0:	40061201 	andmi	r1, r6, r1, lsl #4
    13c4:	01197a18 	tsteq	r9, r8, lsl sl
    13c8:	0b000013 	bleq	141c <_binary_assets_romhdr_bin_size+0x135d>
    13cc:	08030016 	stmdaeq	r3, {r1, r2, r4}
    13d0:	3b04213a 	blcc	1098c0 <_binary_assets_romhdr_bin_size+0x109801>
    13d4:	1221390b 	eorne	r3, r1, #180224	@ 0x2c000
    13d8:	00001349 	andeq	r1, r0, r9, asr #6
    13dc:	0b000f0c 	bleq	5014 <_binary_assets_romhdr_bin_size+0x4f55>
    13e0:	13490421 	cmpne	r9, #553648128	@ 0x21000000
    13e4:	0d0d0000 	stceq	0, cr0, [sp, #-0]
    13e8:	3a0e0300 	bcc	381ff0 <_binary_assets_romhdr_bin_size+0x381f31>
    13ec:	213b0521 	teqcs	fp, r1, lsr #10
    13f0:	490b3930 	stmdbmi	fp, {r4, r5, r8, fp, ip, sp}
    13f4:	000b3813 	andeq	r3, fp, r3, lsl r8
    13f8:	01040e00 	tsteq	r4, r0, lsl #28
    13fc:	213e0e03 	teqcs	lr, r3, lsl #28
    1400:	490b0b07 	stmdbmi	fp, {r0, r1, r2, r8, r9, fp}
    1404:	3b0b3a13 	blcc	2cfc58 <_binary_assets_romhdr_bin_size+0x2cfb99>
    1408:	010b390b 	tsteq	fp, fp, lsl #18
    140c:	0f000013 	svceq	0x00000013
    1410:	13490101 	cmpne	r9, #1073741824	@ 0x40000000
    1414:	00001301 	andeq	r1, r0, r1, lsl #6
    1418:	3f012e10 	svccc	0x00012e10
    141c:	3a0e0319 	bcc	382088 <_binary_assets_romhdr_bin_size+0x381fc9>
    1420:	0b3b0121 	bleq	ec18ac <_binary_assets_romhdr_bin_size+0xec17ed>
    1424:	27062139 			@ <UNDEFINED> instruction: 0x27062139
    1428:	01212019 			@ <UNDEFINED> instruction: 0x01212019
    142c:	00001301 	andeq	r1, r0, r1, lsl #6
    1430:	3f012e11 	svccc	0x00012e11
    1434:	3a0e0319 	bcc	3820a0 <_binary_assets_romhdr_bin_size+0x381fe1>
    1438:	0b3b0121 	bleq	ec18c4 <_binary_assets_romhdr_bin_size+0xec1805>
    143c:	27082139 			@ <UNDEFINED> instruction: 0x27082139
    1440:	20134919 	andscs	r4, r3, r9, lsl r9
    1444:	13010121 	tstne	r1, #1073741832	@ 0x40000008
    1448:	34120000 	ldrcc	r0, [r2], #-0
    144c:	3a080300 	bcc	202054 <_binary_assets_romhdr_bin_size+0x201f95>
    1450:	0b3b0121 	bleq	ec18dc <_binary_assets_romhdr_bin_size+0xec181d>
    1454:	49062139 	stmdbmi	r6, {r0, r3, r4, r5, r8, sp}
    1458:	13000013 	tstne	r0, #19
    145c:	1755010b 	ldrbne	r0, [r5, -fp, lsl #2]
    1460:	05140000 	ldreq	r0, [r4, #-0]
    1464:	02133100 	andseq	r3, r3, #0, 2
    1468:	15000018 	strne	r0, [r0, #-24]	@ 0xffffffe8
    146c:	0e250111 	mcreq	1, 1, r0, cr5, cr1, {0}
    1470:	0e030b13 	vmoveq.32	d3[0], r0
    1474:	01110e1b 	tsteq	r1, fp, lsl lr
    1478:	17100612 			@ <UNDEFINED> instruction: 0x17100612
    147c:	24160000 	ldrcs	r0, [r6], #-0
    1480:	3e0b0b00 	vmlacc.f64	d0, d11, d0
    1484:	0008030b 	andeq	r0, r8, fp, lsl #6
    1488:	00351700 	eorseq	r1, r5, r0, lsl #14
    148c:	00001349 	andeq	r1, r0, r9, asr #6
    1490:	27001518 			@ <UNDEFINED> instruction: 0x27001518
    1494:	19000019 	stmdbne	r0, {r0, r3, r4}
    1498:	0e030113 	mcreq	1, 0, r0, cr3, cr3, {0}
    149c:	0b3a0b0b 	bleq	e840d0 <_binary_assets_romhdr_bin_size+0xe84011>
    14a0:	0b390b3b 	bleq	e44194 <_binary_assets_romhdr_bin_size+0xe440d5>
    14a4:	00001301 	andeq	r1, r0, r1, lsl #6
    14a8:	0000211a 	andeq	r2, r0, sl, lsl r1
    14ac:	00341b00 	eorseq	r1, r4, r0, lsl #22
    14b0:	0b3a0e03 	bleq	e84cc4 <_binary_assets_romhdr_bin_size+0xe84c05>
    14b4:	0b390b3b 	bleq	e441a8 <_binary_assets_romhdr_bin_size+0xe440e9>
    14b8:	193f1349 	ldmdbne	pc!, {r0, r3, r6, r8, r9, ip}	@ <UNPREDICTABLE>
    14bc:	0000193c 	andeq	r1, r0, ip, lsr r9
    14c0:	4900211c 	stmdbmi	r0, {r2, r3, r4, r8, sp}
    14c4:	000b2f13 	andeq	r2, fp, r3, lsl pc
    14c8:	00341d00 	eorseq	r1, r4, r0, lsl #26
    14cc:	0b3a1347 	bleq	e861f0 <_binary_assets_romhdr_bin_size+0xe86131>
    14d0:	0b390b3b 	bleq	e441c4 <_binary_assets_romhdr_bin_size+0xe44105>
    14d4:	18021349 	stmdane	r2, {r0, r3, r6, r8, r9, ip}
    14d8:	2e1e0000 	cdpcs	0, 1, cr0, cr14, cr0, {0}
    14dc:	03193f01 	tsteq	r9, #1, 30
    14e0:	3b0b3a0e 	blcc	2cfd20 <_binary_assets_romhdr_bin_size+0x2cfc61>
    14e4:	3c0b390b 			@ <UNDEFINED> instruction: 0x3c0b390b
    14e8:	00130119 	andseq	r0, r3, r9, lsl r1
    14ec:	00181f00 	andseq	r1, r8, r0, lsl #30
    14f0:	05200000 	streq	r0, [r0, #-0]!
    14f4:	3a0e0300 	bcc	3820fc <_binary_assets_romhdr_bin_size+0x38203d>
    14f8:	390b3b0b 	stmdbcc	fp, {r0, r1, r3, r8, r9, fp, ip, sp}
    14fc:	0213490b 	andseq	r4, r3, #180224	@ 0x2c000
    1500:	21000018 	tstcs	r0, r8, lsl r0
    1504:	0e030005 	cdpeq	0, 0, cr0, cr3, cr5, {0}
    1508:	0b3b0b3a 	bleq	ec41f8 <_binary_assets_romhdr_bin_size+0xec4139>
    150c:	13490b39 	cmpne	r9, #58368	@ 0xe400
    1510:	42b71702 	adcsmi	r1, r7, #524288	@ 0x80000
    1514:	22000017 	andcs	r0, r0, #23
    1518:	193f012e 	ldmdbne	pc!, {r1, r2, r3, r5, r8}	@ <UNPREDICTABLE>
    151c:	0b3a0e03 	bleq	e84d30 <_binary_assets_romhdr_bin_size+0xe84c71>
    1520:	0b390b3b 	bleq	e44214 <_binary_assets_romhdr_bin_size+0xe44155>
    1524:	13010b20 	tstne	r1, #32, 22	@ 0x8000
    1528:	2e230000 	cdpcs	0, 2, cr0, cr3, cr0, {0}
    152c:	03193f00 	tsteq	r9, #0, 30
    1530:	3b0b3a0e 	blcc	2cfd70 <_binary_assets_romhdr_bin_size+0x2cfcb1>
    1534:	270b390b 	strcs	r3, [fp, -fp, lsl #18]
    1538:	12011119 	andne	r1, r1, #1073741830	@ 0x40000006
    153c:	7a184006 	bvc	61155c <_binary_assets_romhdr_bin_size+0x61149d>
    1540:	24000019 	strcs	r0, [r0], #-25	@ 0xffffffe7
    1544:	1331012e 	teqne	r1, #-2147483637	@ 0x8000000b
    1548:	06120111 			@ <UNDEFINED> instruction: 0x06120111
    154c:	197a1840 	ldmdbne	sl!, {r6, fp, ip}^
    1550:	01000000 	mrseq	r0, (UNDEF: 0)
    1554:	17100011 			@ <UNDEFINED> instruction: 0x17100011
    1558:	0f120111 	svceq	0x00120111
    155c:	0e1b0e03 	cdpeq	14, 1, cr0, cr11, cr3, {0}
    1560:	05130e25 	ldreq	r0, [r3, #-3621]	@ 0xfffff1db
    1564:	01000000 	mrseq	r0, (UNDEF: 0)
    1568:	17100011 			@ <UNDEFINED> instruction: 0x17100011
    156c:	0f120111 	svceq	0x00120111
    1570:	0e1b0e03 	cdpeq	14, 1, cr0, cr11, cr3, {0}
    1574:	05130e25 	ldreq	r0, [r3, #-3621]	@ 0xfffff1db
    1578:	Address 0x1578 is out of bounds.


Disassembly of section .debug_aranges:

00000000 <.debug_aranges>:
   0:	0000001c 	andeq	r0, r0, ip, lsl r0
   4:	00000002 	andeq	r0, r0, r2
   8:	00040000 	andeq	r0, r4, r0
   c:	00000000 	andeq	r0, r0, r0
  10:	08000144 	stmdaeq	r0, {r2, r6, r8}
  14:	0000005c 	andeq	r0, r0, ip, asr r0
	...
  20:	0000001c 	andeq	r0, r0, ip, lsl r0
  24:	01ac0002 			@ <UNDEFINED> instruction: 0x01ac0002
  28:	00040000 	andeq	r0, r4, r0
  2c:	00000000 	andeq	r0, r0, r0
  30:	080001a0 	stmdaeq	r0, {r5, r7, r8}
  34:	000000c0 	andeq	r0, r0, r0, asr #1
	...
  40:	0000001c 	andeq	r0, r0, ip, lsl r0
  44:	031c0002 	tsteq	ip, #2
  48:	00040000 	andeq	r0, r4, r0
  4c:	00000000 	andeq	r0, r0, r0
  50:	08000260 	stmdaeq	r0, {r5, r6, r9}
  54:	00000084 	andeq	r0, r0, r4, lsl #1
	...
  60:	00000024 	andeq	r0, r0, r4, lsr #32
  64:	04f70002 	ldrbteq	r0, [r7], #2
  68:	00040000 	andeq	r0, r4, r0
  6c:	00000000 	andeq	r0, r0, r0
  70:	080002e4 	stmdaeq	r0, {r2, r5, r6, r7, r9}
  74:	000001ac 	andeq	r0, r0, ip, lsr #3
  78:	080000c0 	stmdaeq	r0, {r6, r7}
  7c:	0000007c 	andeq	r0, r0, ip, ror r0
	...
  88:	0000001c 	andeq	r0, r0, ip, lsl r0
  8c:	097d0002 	ldmdbeq	sp!, {r1}^
  90:	00040000 	andeq	r0, r4, r0
  94:	00000000 	andeq	r0, r0, r0
  98:	08000490 	stmdaeq	r0, {r4, r7, sl}
  9c:	000001a8 	andeq	r0, r0, r8, lsr #3
	...
  a8:	0000001c 	andeq	r0, r0, ip, lsl r0
  ac:	0b760002 	bleq	1d800bc <_binary_assets_romhdr_bin_size+0x1d7fffd>
  b0:	00040000 	andeq	r0, r4, r0
  b4:	00000000 	andeq	r0, r0, r0
  b8:	08000638 	stmdaeq	r0, {r3, r4, r5, r9, sl}
  bc:	00000010 	andeq	r0, r0, r0, lsl r0
	...
  c8:	0000001c 	andeq	r0, r0, ip, lsl r0
  cc:	0c350002 	ldceq	0, cr0, [r5], #-8
  d0:	00040000 	andeq	r0, r4, r0
  d4:	00000000 	andeq	r0, r0, r0
  d8:	08000648 	stmdaeq	r0, {r3, r6, r9, sl}
  dc:	00000030 	andeq	r0, r0, r0, lsr r0
	...
  e8:	0000001c 	andeq	r0, r0, ip, lsl r0
  ec:	0d7c0002 	ldcleq	0, cr0, [ip, #-8]!
  f0:	00040000 	andeq	r0, r4, r0
  f4:	00000000 	andeq	r0, r0, r0
  f8:	08000678 	stmdaeq	r0, {r3, r4, r5, r6, r9, sl}
  fc:	00000098 	muleq	r0, r8, r0
	...
 108:	0000001c 	andeq	r0, r0, ip, lsl r0
 10c:	0fca0002 	svceq	0x00ca0002
 110:	00040000 	andeq	r0, r4, r0
 114:	00000000 	andeq	r0, r0, r0
 118:	08000710 	stmdaeq	r0, {r4, r8, r9, sl}
 11c:	00000034 	andeq	r0, r0, r4, lsr r0
	...
 128:	0000001c 	andeq	r0, r0, ip, lsl r0
 12c:	11e40002 	mvnne	r0, r2
 130:	00040000 	andeq	r0, r4, r0
 134:	00000000 	andeq	r0, r0, r0
 138:	0800013c 	stmdaeq	r0, {r2, r3, r4, r5, r8}
 13c:	00000008 	andeq	r0, r0, r8
	...
 148:	0000001c 	andeq	r0, r0, ip, lsl r0
 14c:	12340002 	eorsne	r0, r4, #2
 150:	00040000 	andeq	r0, r4, r0
 154:	00000000 	andeq	r0, r0, r0
 158:	08001c18 	stmdaeq	r0, {r3, r4, sl, fp, ip}
 15c:	00000014 	andeq	r0, r0, r4, lsl r0
	...
 168:	0000001c 	andeq	r0, r0, ip, lsl r0
 16c:	13010002 	tstne	r1, #2
 170:	00040000 	andeq	r0, r4, r0
 174:	00000000 	andeq	r0, r0, r0
 178:	08001c2c 	stmdaeq	r0, {r2, r3, r5, sl, fp, ip}
 17c:	00000014 	andeq	r0, r0, r4, lsl r0
	...
 188:	0000001c 	andeq	r0, r0, ip, lsl r0
 18c:	13ce0002 	bicne	r0, lr, #2
 190:	00040000 	andeq	r0, r4, r0
 194:	00000000 	andeq	r0, r0, r0
 198:	08001c40 	stmdaeq	r0, {r6, sl, fp, ip}
 19c:	0000009c 	muleq	r0, ip, r0
	...
 1a8:	0000001c 	andeq	r0, r0, ip, lsl r0
 1ac:	16d40002 	ldrbne	r0, [r4], r2
 1b0:	00040000 	andeq	r0, r4, r0
 1b4:	00000000 	andeq	r0, r0, r0
 1b8:	08001cdc 	stmdaeq	r0, {r2, r3, r4, r6, r7, sl, fp, ip}
 1bc:	00000090 	muleq	r0, r0, r0
	...
 1c8:	0000001c 	andeq	r0, r0, ip, lsl r0
 1cc:	18e20002 	stmiane	r2!, {r1}^
 1d0:	00040000 	andeq	r0, r4, r0
 1d4:	00000000 	andeq	r0, r0, r0
 1d8:	08001d6c 	stmdaeq	r0, {r2, r3, r5, r6, r8, sl, fp, ip}
 1dc:	00000014 	andeq	r0, r0, r4, lsl r0
	...
 1e8:	0000001c 	andeq	r0, r0, ip, lsl r0
 1ec:	19af0002 	stmibne	pc!, {r1}	@ <UNPREDICTABLE>
 1f0:	00040000 	andeq	r0, r4, r0
 1f4:	00000000 	andeq	r0, r0, r0
 1f8:	08001d80 	stmdaeq	r0, {r7, r8, sl, fp, ip}
 1fc:	00000014 	andeq	r0, r0, r4, lsl r0
	...
 208:	0000001c 	andeq	r0, r0, ip, lsl r0
 20c:	1a7c0002 	bne	1f0021c <_binary_assets_romhdr_bin_size+0x1f0015d>
 210:	00040000 	andeq	r0, r4, r0
 214:	00000000 	andeq	r0, r0, r0
 218:	08001d94 	stmdaeq	r0, {r2, r4, r7, r8, sl, fp, ip}
 21c:	00000014 	andeq	r0, r0, r4, lsl r0
	...
 228:	0000001c 	andeq	r0, r0, ip, lsl r0
 22c:	1b490002 	blne	124023c <_binary_assets_romhdr_bin_size+0x124017d>
 230:	00040000 	andeq	r0, r4, r0
 234:	00000000 	andeq	r0, r0, r0
 238:	08001da8 	stmdaeq	r0, {r3, r5, r7, r8, sl, fp, ip}
 23c:	00000014 	andeq	r0, r0, r4, lsl r0
	...
 248:	0000001c 	andeq	r0, r0, ip, lsl r0
 24c:	1c160002 	ldcne	0, cr0, [r6], {2}
 250:	00040000 	andeq	r0, r4, r0
 254:	00000000 	andeq	r0, r0, r0
 258:	08001dbc 	stmdaeq	r0, {r2, r3, r4, r5, r7, r8, sl, fp, ip}
 25c:	00000014 	andeq	r0, r0, r4, lsl r0
	...
 268:	0000001c 	andeq	r0, r0, ip, lsl r0
 26c:	1ce30002 	stclne	0, cr0, [r3], #8
 270:	00040000 	andeq	r0, r4, r0
 274:	00000000 	andeq	r0, r0, r0
 278:	08001dd0 	stmdaeq	r0, {r4, r6, r7, r8, sl, fp, ip}
 27c:	00000014 	andeq	r0, r0, r4, lsl r0
	...
 288:	0000001c 	andeq	r0, r0, ip, lsl r0
 28c:	1db00002 	ldcne	0, cr0, [r0, #8]!
 290:	00040000 	andeq	r0, r4, r0
 294:	00000000 	andeq	r0, r0, r0
 298:	08001de4 	stmdaeq	r0, {r2, r5, r6, r7, r8, sl, fp, ip}
 29c:	00000014 	andeq	r0, r0, r4, lsl r0
	...
 2a8:	0000001c 	andeq	r0, r0, ip, lsl r0
 2ac:	1e7d0002 	cdpne	0, 7, cr0, cr13, cr2, {0}
 2b0:	00040000 	andeq	r0, r4, r0
 2b4:	00000000 	andeq	r0, r0, r0
 2b8:	08001df8 	stmdaeq	r0, {r3, r4, r5, r6, r7, r8, sl, fp, ip}
 2bc:	00000008 	andeq	r0, r0, r8
	...
 2c8:	0000001c 	andeq	r0, r0, ip, lsl r0
 2cc:	1fb30002 	svcne	0x00b30002
 2d0:	00040000 	andeq	r0, r4, r0
 2d4:	00000000 	andeq	r0, r0, r0
 2d8:	08001e00 	stmdaeq	r0, {r9, sl, fp, ip}
 2dc:	000003c4 	andeq	r0, r0, r4, asr #7
	...
 2e8:	0000001c 	andeq	r0, r0, ip, lsl r0
 2ec:	23cb0002 	biccs	r0, fp, #2
 2f0:	00040000 	andeq	r0, r4, r0
 2f4:	00000000 	andeq	r0, r0, r0
 2f8:	08002660 	stmdaeq	r0, {r5, r6, r9, sl, sp}
 2fc:	000000b8 	strheq	r0, [r0], -r8
	...
 308:	0000001c 	andeq	r0, r0, ip, lsl r0
 30c:	23f00002 	mvnscs	r0, #2
 310:	00040000 	andeq	r0, r4, r0
 314:	00000000 	andeq	r0, r0, r0
 318:	080021c4 	stmdaeq	r0, {r2, r6, r7, r8, sp}
 31c:	00000024 	andeq	r0, r0, r4, lsr #32
	...

Disassembly of section .debug_line:

00000000 <.debug_line>:
       0:	00000105 	andeq	r0, r0, r5, lsl #2
       4:	00b80003 	adcseq	r0, r8, r3
       8:	01020000 	mrseq	r0, (UNDEF: 2)
       c:	000d0efb 			@ <UNDEFINED> instruction: 0x000d0efb
      10:	01010101 	tsteq	r1, r1, lsl #2
      14:	01000000 	mrseq	r0, (UNDEF: 0)
      18:	73010000 	tstvc	r1, #0
      1c:	6e2f6372 	mcrvs	3, 1, r6, cr15, cr2, {3}
      20:	635f6e6f 	cmpvs	pc, #1776	@ 0x6f0
      24:	6e6f6e61 	cdpvs	14, 6, cr6, cr15, cr1, {3}
      28:	706f2f00 	rsbvc	r2, pc, r0, lsl #30
      2c:	65642f74 	strbvs	r2, [r4, #-3956]!	@ 0xfffff08c
      30:	74696b76 	strbtvc	r6, [r9], #-2934	@ 0xfffff48a
      34:	2f6f7270 	svccs	0x006f7270
      38:	6b766564 	blvs	1d995d0 <_binary_assets_romhdr_bin_size+0x1d99511>
      3c:	52417469 	subpl	r7, r1, #1761607680	@ 0x69000000
      40:	696c2f4d 	stmdbvs	ip!, {r0, r2, r3, r6, r8, r9, sl, fp, sp}^
      44:	63672f62 	cmnvs	r7, #392	@ 0x188
      48:	72612f63 	rsbvc	r2, r1, #396	@ 0x18c
      4c:	6f6e2d6d 	svcvs	0x006e2d6d
      50:	652d656e 	strvs	r6, [sp, #-1390]!	@ 0xfffffa92
      54:	2f696261 	svccs	0x00696261
      58:	312e3531 			@ <UNDEFINED> instruction: 0x312e3531
      5c:	692f302e 	stmdbvs	pc!, {r1, r2, r3, r5, ip, sp}	@ <UNPREDICTABLE>
      60:	756c636e 	strbvc	r6, [ip, #-878]!	@ 0xfffffc92
      64:	2f006564 	svccs	0x00006564
      68:	2f74706f 	svccs	0x0074706f
      6c:	6b766564 	blvs	1d99604 <_binary_assets_romhdr_bin_size+0x1d99545>
      70:	72707469 	rsbsvc	r7, r0, #1761607680	@ 0x69000000
      74:	696c2f6f 	stmdbvs	ip!, {r0, r1, r2, r3, r5, r6, r8, r9, sl, fp, sp}^
      78:	61626762 	cmnvs	r2, r2, ror #14
      7c:	636e692f 	cmnvs	lr, #770048	@ 0xbc000
      80:	6564756c 	strbvs	r7, [r4, #-1388]!	@ 0xfffffa94
      84:	6e690000 	cdpvs	0, 6, cr0, cr9, cr0, {0}
      88:	00632e74 	rsbeq	r2, r3, r4, ror lr
      8c:	73000001 	tstvc	r0, #1
      90:	6e696474 	mcrvs	4, 3, r6, cr9, cr4, {3}
      94:	63672d74 	cmnvs	r7, #116, 26	@ 0x1d00
      98:	00682e63 	rsbeq	r2, r8, r3, ror #28
      9c:	67000002 	strvs	r0, [r0, -r2]
      a0:	745f6162 	ldrbvc	r6, [pc], #-354	@ a8 <_binary_assets_romhdr_bin_size-0x17>
      a4:	73657079 	cmnvc	r5, #121	@ 0x79
      a8:	0300682e 	tsteq	r0, #3014656	@ 0x2e0000
      ac:	62670000 	rsbvs	r0, r7, #0
      b0:	6e695f61 	cdpvs	15, 6, cr5, cr9, cr1, {3}
      b4:	72726574 	rsbsvc	r6, r2, #116, 10	@ 0x1d000000
      b8:	2e747075 	mrccs	0, 3, r7, cr4, cr5, {3}
      bc:	00030068 	andeq	r0, r3, r8, rrx
      c0:	14050000 	strne	r0, [r5], #-0
      c4:	44020500 	strmi	r0, [r2], #-1280	@ 0xfffffb00
      c8:	19080001 	stmdbne	r8, {r0}
      cc:	05140505 	ldreq	r0, [r4, #-1285]	@ 0xfffffafb
      d0:	05130601 	ldreq	r0, [r3, #-1537]	@ 0xfffff9ff
      d4:	05300614 	ldreq	r0, [r0, #-1556]!	@ 0xfffff9ec
      d8:	13051305 	tstne	r5, #335544320	@ 0x14000000
      dc:	12050106 	andne	r0, r5, #-2147483647	@ 0x80000001
      e0:	2b140530 	blcs	5015a8 <_binary_assets_romhdr_bin_size+0x5014e9>
      e4:	052f1305 	streq	r1, [pc, #-773]!	@ fffffde7 <IntrRet+0xf7ffd6ff>
      e8:	054b0605 	strbeq	r0, [fp, #-1541]	@ 0xfffff9fb
      ec:	05010612 	streq	r0, [r1, #-1554]	@ 0xfffff9ee
      f0:	05670605 	strbeq	r0, [r7, #-1541]!	@ 0xfffff9fb
      f4:	05010612 	streq	r0, [r1, #-1554]	@ 0xfffff9ee
      f8:	67680605 	strbvs	r0, [r8, -r5, lsl #12]!
      fc:	060d054c 	streq	r0, [sp], -ip, asr #10
     100:	4b010501 	blmi	4150c <_binary_assets_romhdr_bin_size+0x4144d>
     104:	01000802 	tsteq	r0, r2, lsl #16
     108:	00019101 	andeq	r9, r1, r1, lsl #2
     10c:	ae000300 	cdpge	3, 0, cr0, cr0, cr0, {0}
     110:	02000000 	andeq	r0, r0, #0
     114:	0d0efb01 	vstreq	d15, [lr, #-4]
     118:	01010100 	mrseq	r0, (UNDEF: 17)
     11c:	00000001 	andeq	r0, r0, r1
     120:	01000001 	tsteq	r0, r1
     124:	2f637273 	svccs	0x00637273
     128:	5f6e6f6e 	svcpl	0x006e6f6e
     12c:	6f6e6163 	svcvs	0x006e6163
     130:	6f2f006e 	svcvs	0x002f006e
     134:	642f7470 	strtvs	r7, [pc], #-1136	@ 13c <_binary_assets_romhdr_bin_size+0x7d>
     138:	696b7665 	stmdbvs	fp!, {r0, r2, r5, r6, r9, sl, ip, sp, lr}^
     13c:	6f727074 	svcvs	0x00727074
     140:	7665642f 	strbtvc	r6, [r5], -pc, lsr #8
     144:	4174696b 	cmnmi	r4, fp, ror #18
     148:	6c2f4d52 	stcvs	13, cr4, [pc], #-328	@ 8 <_binary_assets_romhdr_bin_size-0xb7>
     14c:	672f6269 	strvs	r6, [pc, -r9, ror #4]!
     150:	612f6363 			@ <UNDEFINED> instruction: 0x612f6363
     154:	6e2d6d72 	mcrvs	13, 1, r6, cr13, cr2, {3}
     158:	2d656e6f 	stclcs	14, cr6, [r5, #-444]!	@ 0xfffffe44
     15c:	69626165 	stmdbvs	r2!, {r0, r2, r5, r6, r8, sp, lr}^
     160:	2e35312f 	cdpcs	1, 3, cr3, cr5, cr15, {1}
     164:	2f302e31 	svccs	0x00302e31
     168:	6c636e69 	stclvs	14, cr6, [r3], #-420	@ 0xfffffe5c
     16c:	00656475 	rsbeq	r6, r5, r5, ror r4
     170:	74706f2f 	ldrbtvc	r6, [r0], #-3887	@ 0xfffff0d1
     174:	7665642f 	strbtvc	r6, [r5], -pc, lsr #8
     178:	7074696b 	rsbsvc	r6, r4, fp, ror #18
     17c:	6c2f6f72 	stcvs	15, cr6, [pc], #-456	@ ffffffbc <IntrRet+0xf7ffd8d4>
     180:	62676269 	rsbvs	r6, r7, #-1879048186	@ 0x90000006
     184:	6e692f61 	cdpvs	15, 6, cr2, cr9, cr1, {3}
     188:	64756c63 	ldrbtvs	r6, [r5], #-3171	@ 0xfffff39d
     18c:	65000065 	strvs	r0, [r0, #-101]	@ 0xffffff9b
     190:	632e7272 			@ <UNDEFINED> instruction: 0x632e7272
     194:	00000100 	andeq	r0, r0, r0, lsl #2
     198:	2e727265 	cdpcs	2, 7, cr7, cr2, cr5, {3}
     19c:	00010068 	andeq	r0, r1, r8, rrx
     1a0:	64747300 	ldrbtvs	r7, [r4], #-768	@ 0xfffffd00
     1a4:	2d746e69 	ldclcs	14, cr6, [r4, #-420]!	@ 0xfffffe5c
     1a8:	2e636367 	cdpcs	3, 6, cr6, cr3, cr7, {3}
     1ac:	00020068 	andeq	r0, r2, r8, rrx
     1b0:	61626700 	cmnvs	r2, r0, lsl #14
     1b4:	7079745f 	rsbsvc	r7, r9, pc, asr r4
     1b8:	682e7365 	stmdavs	lr!, {r0, r2, r5, r6, r8, r9, ip, sp, lr}
     1bc:	00000300 	andeq	r0, r0, r0, lsl #6
     1c0:	001a0500 	andseq	r0, sl, r0, lsl #10
     1c4:	01a00205 	lsleq	r0, r5, #4
     1c8:	05160800 	ldreq	r0, [r6, #-2048]	@ 0xfffff800
     1cc:	0e051502 	cdpeq	5, 0, cr1, cr5, cr2, {0}
     1d0:	10050106 	andne	r0, r5, r6, lsl #2
     1d4:	031a0550 	tsteq	sl, #80, 10	@ 0x14000000
     1d8:	0e052e77 	mcreq	14, 0, r2, cr5, cr7, {3}
     1dc:	001b0531 	andseq	r0, fp, r1, lsr r5
     1e0:	33010402 	tstcc	r1, #33554432	@ 0x2000000
     1e4:	05290e05 	streq	r0, [r9, #-3589]!	@ 0xfffff1fb
     1e8:	14310605 	ldrtne	r0, [r1], #-1541	@ 0xfffff9fb
     1ec:	05010905 	streq	r0, [r1, #-2309]	@ 0xfffff6fb
     1f0:	0402001b 	streq	r0, [r2], #-27	@ 0xffffffe5
     1f4:	09050101 	stmdbeq	r5, {r0, r8}
     1f8:	06100513 			@ <UNDEFINED> instruction: 0x06100513
     1fc:	00270501 	eoreq	r0, r7, r1, lsl #10
     200:	06030402 	streq	r0, [r3], -r2, lsl #8
     204:	001b052d 	andseq	r0, fp, sp, lsr #10
     208:	01010402 	tsteq	r1, r2, lsl #8
     20c:	50062005 	andpl	r2, r6, r5
     210:	02001b05 	andeq	r1, r0, #5120	@ 0x1400
     214:	05650104 	strbeq	r0, [r5, #-260]!	@ 0xfffffefc
     218:	052f0609 	streq	r0, [pc, #-1545]!	@ fffffc17 <IntrRet+0xf7ffd52f>
     21c:	05010620 	streq	r0, [r1, #-1568]	@ 0xfffff9e0
     220:	052f0609 	streq	r0, [pc, #-1545]!	@ fffffc1f <IntrRet+0xf7ffd537>
     224:	0402001b 	streq	r0, [r2], #-27	@ 0xffffffe5
     228:	05100601 	ldreq	r0, [r0, #-1537]	@ 0xfffff9ff
     22c:	22054c20 	andcs	r4, r5, #32, 24	@ 0x2000
     230:	03040200 	tsteq	r4, #0, 4
     234:	1b052c06 	blne	14b254 <_binary_assets_romhdr_bin_size+0x14b195>
     238:	01040200 	mrseq	r0, R12_usr
     23c:	04020001 	streq	r0, [r2], #-1
     240:	00820601 	addeq	r0, r2, r1, lsl #12
     244:	06010402 	streq	r0, [r1], -r2, lsl #8
     248:	06280518 			@ <UNDEFINED> instruction: 0x06280518
     24c:	001b0568 	andseq	r0, fp, r8, ror #10
     250:	2c010402 	stccs	4, cr0, [r1], {2}
     254:	01040200 	mrseq	r0, R12_usr
     258:	001f054a 	andseq	r0, pc, sl, asr #10
     25c:	06010402 	streq	r0, [r1], -r2, lsl #8
     260:	2f0d052f 	svccs	0x000d052f
     264:	01062805 	tsteq	r6, r5, lsl #16
     268:	02002605 	andeq	r2, r0, #5242880	@ 0x500000
     26c:	2d060304 	stccs	3, cr0, [r6, #-16]
     270:	02001f05 	andeq	r1, r0, #5, 30
     274:	05010104 	streq	r0, [r1, #-260]	@ 0xfffffefc
     278:	04020023 	streq	r0, [r2], #-35	@ 0xffffffdd
     27c:	1b056502 	blne	15968c <_binary_assets_romhdr_bin_size+0x1595cd>
     280:	01040200 	mrseq	r0, R12_usr
     284:	6c050501 	stcvs	5, cr0, [r5], {1}
     288:	01060d05 	tsteq	r6, r5, lsl #26
     28c:	67060505 	strvs	r0, [r6, -r5, lsl #10]
     290:	05010b05 	streq	r0, [r1, #-2821]	@ 0xfffff4fb
     294:	0b050105 	bleq	1406b0 <_binary_assets_romhdr_bin_size+0x1405f1>
     298:	00100201 	andseq	r0, r0, r1, lsl #4
     29c:	01270101 			@ <UNDEFINED> instruction: 0x01270101
     2a0:	00030000 	andeq	r0, r3, r0
     2a4:	000000ba 	strheq	r0, [r0], -sl
     2a8:	0efb0102 	cdpeq	1, 15, cr0, cr11, cr2, {0}
     2ac:	0101000d 	tsteq	r1, sp
     2b0:	00000101 	andeq	r0, r0, r1, lsl #2
     2b4:	00000100 	andeq	r0, r0, r0, lsl #2
     2b8:	63727301 	cmnvs	r2, #67108864	@ 0x4000000
     2bc:	6974752f 	ldmdbvs	r4!, {r0, r1, r2, r3, r5, r8, sl, ip, sp, lr}^
     2c0:	6f2f006c 	svcvs	0x002f006c
     2c4:	642f7470 	strtvs	r7, [pc], #-1136	@ 2cc <_binary_assets_romhdr_bin_size+0x20d>
     2c8:	696b7665 	stmdbvs	fp!, {r0, r2, r5, r6, r9, sl, ip, sp, lr}^
     2cc:	6f727074 	svcvs	0x00727074
     2d0:	7665642f 	strbtvc	r6, [r5], -pc, lsr #8
     2d4:	4174696b 	cmnmi	r4, fp, ror #18
     2d8:	6c2f4d52 	stcvs	13, cr4, [pc], #-328	@ 198 <_binary_assets_romhdr_bin_size+0xd9>
     2dc:	672f6269 	strvs	r6, [pc, -r9, ror #4]!
     2e0:	612f6363 			@ <UNDEFINED> instruction: 0x612f6363
     2e4:	6e2d6d72 	mcrvs	13, 1, r6, cr13, cr2, {3}
     2e8:	2d656e6f 	stclcs	14, cr6, [r5, #-444]!	@ 0xfffffe44
     2ec:	69626165 	stmdbvs	r2!, {r0, r2, r5, r6, r8, sp, lr}^
     2f0:	2e35312f 	cdpcs	1, 3, cr3, cr5, cr15, {1}
     2f4:	2f302e31 	svccs	0x00302e31
     2f8:	6c636e69 	stclvs	14, cr6, [r3], #-420	@ 0xfffffe5c
     2fc:	00656475 	rsbeq	r6, r5, r5, ror r4
     300:	74706f2f 	ldrbtvc	r6, [r0], #-3887	@ 0xfffff0d1
     304:	7665642f 	strbtvc	r6, [r5], -pc, lsr #8
     308:	7074696b 	rsbsvc	r6, r4, fp, ror #18
     30c:	6c2f6f72 	stcvs	15, cr6, [pc], #-456	@ 14c <_binary_assets_romhdr_bin_size+0x8d>
     310:	62676269 	rsbvs	r6, r7, #-1879048186	@ 0x90000006
     314:	6e692f61 	cdpvs	15, 6, cr2, cr9, cr1, {3}
     318:	64756c63 	ldrbtvs	r6, [r5], #-3171	@ 0xfffff39d
     31c:	6c000065 	stcvs	0, cr0, [r0], {101}	@ 0x65
     320:	656c776f 	strbvs	r7, [ip, #-1903]!	@ 0xfffff891
     324:	2e6c6576 	mcrcs	5, 3, r6, cr12, cr6, {3}
     328:	00010063 	andeq	r0, r1, r3, rrx
     32c:	64747300 	ldrbtvs	r7, [r4], #-768	@ 0xfffffd00
     330:	2d746e69 	ldclcs	14, cr6, [r4, #-420]!	@ 0xfffffe5c
     334:	2e636367 	cdpcs	3, 6, cr6, cr3, cr7, {3}
     338:	00020068 	andeq	r0, r2, r8, rrx
     33c:	61626700 	cmnvs	r2, r0, lsl #14
     340:	7079745f 	rsbsvc	r7, r9, pc, asr r4
     344:	682e7365 	stmdavs	lr!, {r0, r2, r5, r6, r8, r9, ip, sp, lr}
     348:	00000300 	andeq	r0, r0, r0, lsl #6
     34c:	5f616267 	svcpl	0x00616267
     350:	74737973 	ldrbtvc	r7, [r3], #-2419	@ 0xfffff68d
     354:	61636d65 	cmnvs	r3, r5, ror #26
     358:	2e736c6c 	cdpcs	12, 7, cr6, cr3, cr12, {3}
     35c:	00030068 	andeq	r0, r3, r8, rrx
     360:	2d050000 	stccs	0, cr0, [r5, #-0]
     364:	60020500 	andvs	r0, r2, r0, lsl #10
     368:	19080002 	stmdbne	r8, {r1}
     36c:	06130205 	ldreq	r0, [r3], -r5, lsl #4
     370:	2e4a0666 	cdpcs	6, 4, cr0, cr10, cr6, {3}
     374:	052e2a05 	streq	r2, [lr, #-2565]!	@ 0xfffff5fb
     378:	08051302 	stmdaeq	r5, {r1, r8, r9, ip}
     37c:	01040200 	mrseq	r0, R12_usr
     380:	862d0501 	strthi	r0, [sp], -r1, lsl #10
     384:	05130205 	ldreq	r0, [r3, #-517]	@ 0xfffffdfb
     388:	0501060c 	streq	r0, [r1, #-1548]	@ 0xfffff9f4
     38c:	0402002c 	streq	r0, [r2], #-44	@ 0xffffffd4
     390:	19052e01 	stmdbne	r5, {r0, r9, sl, fp, sp}
     394:	01040200 	mrseq	r0, R12_usr
     398:	2f1c052e 	svccs	0x001c052e
     39c:	052c2d05 	streq	r2, [ip, #-3333]!	@ 0xfffff2fb
     3a0:	19053003 	stmdbne	r5, {r0, r1, ip, sp}
     3a4:	01040200 	mrseq	r0, R12_usr
     3a8:	0603052d 	streq	r0, [r3], -sp, lsr #10
     3ac:	052e0631 	streq	r0, [lr, #-1585]!	@ 0xfffff9cf
     3b0:	03053001 	tsteq	r5, #1
     3b4:	2e064606 	cdpcs	6, 0, cr4, cr6, cr6, {0}
     3b8:	054e0105 	strbeq	r0, [lr, #-261]	@ 0xfffffefb
     3bc:	054d0634 	strbeq	r0, [sp, #-1588]	@ 0xfffff9cc
     3c0:	01051305 	tsteq	r5, r5, lsl #6
     3c4:	0100c206 	tsteq	r0, r6, lsl #4
     3c8:	00040101 	andeq	r0, r4, r1, lsl #2
     3cc:	20000300 	andcs	r0, r0, r0, lsl #6
     3d0:	02000001 	andeq	r0, r0, #1
     3d4:	0d0efb01 	vstreq	d15, [lr, #-4]
     3d8:	01010100 	mrseq	r0, (UNDEF: 17)
     3dc:	00000001 	andeq	r0, r0, r1
     3e0:	01000001 	tsteq	r0, r1
     3e4:	00637273 	rsbeq	r7, r3, r3, ror r2
     3e8:	74706f2f 	ldrbtvc	r6, [r0], #-3887	@ 0xfffff0d1
     3ec:	7665642f 	strbtvc	r6, [r5], -pc, lsr #8
     3f0:	7074696b 	rsbsvc	r6, r4, fp, ror #18
     3f4:	642f6f72 	strtvs	r6, [pc], #-3954	@ 3fc <_binary_assets_romhdr_bin_size+0x33d>
     3f8:	696b7665 	stmdbvs	fp!, {r0, r2, r5, r6, r9, sl, ip, sp, lr}^
     3fc:	4d524174 	ldclmi	1, cr4, [r2, #-464]	@ 0xfffffe30
     400:	62696c2f 	rsbvs	r6, r9, #12032	@ 0x2f00
     404:	6363672f 	cmnvs	r3, #12320768	@ 0xbc0000
     408:	6d72612f 	ldclvs	1, cr6, [r2, #-188]!	@ 0xffffff44
     40c:	6e6f6e2d 	cdpvs	14, 6, cr6, cr15, cr13, {1}
     410:	61652d65 	cmnvs	r5, r5, ror #26
     414:	312f6962 			@ <UNDEFINED> instruction: 0x312f6962
     418:	2e312e35 	mrccs	14, 1, r2, cr1, cr5, {1}
     41c:	6e692f30 	mcrvs	15, 3, r2, cr9, cr0, {1}
     420:	64756c63 	ldrbtvs	r6, [r5], #-3171	@ 0xfffff39d
     424:	6f2f0065 	svcvs	0x002f0065
     428:	642f7470 	strtvs	r7, [pc], #-1136	@ 430 <_binary_assets_romhdr_bin_size+0x371>
     42c:	696b7665 	stmdbvs	fp!, {r0, r2, r5, r6, r9, sl, ip, sp, lr}^
     430:	6f727074 	svcvs	0x00727074
     434:	62696c2f 	rsbvs	r6, r9, #12032	@ 0x2f00
     438:	2f616267 	svccs	0x00616267
     43c:	6c636e69 	stclvs	14, cr6, [r3], #-420	@ 0xfffffe5c
     440:	00656475 	rsbeq	r6, r5, r5, ror r4
     444:	2f637273 	svccs	0x00637273
     448:	746e7572 	strbtvc	r7, [lr], #-1394	@ 0xfffffa8e
     44c:	00656d69 	rsbeq	r6, r5, r9, ror #26
     450:	2f637273 	svccs	0x00637273
     454:	5f6e6f6e 	svcpl	0x006e6f6e
     458:	6f6e6163 	svcvs	0x006e6163
     45c:	7273006e 	rsbsvc	r0, r3, #110	@ 0x6e
     460:	75732f63 	ldrbvc	r2, [r3, #-3939]!	@ 0xfffff09d
     464:	73797362 	cmnvc	r9, #-2013265919	@ 0x88000001
     468:	63727300 	cmnvs	r2, #0, 6
     46c:	6974752f 	ldmdbvs	r4!, {r0, r1, r2, r3, r5, r8, sl, ip, sp, lr}^
     470:	6d00006c 	stcvs	0, cr0, [r0, #-432]	@ 0xfffffe50
     474:	2e6e6961 			@ <UNDEFINED> instruction: 0x2e6e6961
     478:	00010063 	andeq	r0, r1, r3, rrx
     47c:	64747300 	ldrbtvs	r7, [r4], #-768	@ 0xfffffd00
     480:	2d746e69 	ldclcs	14, cr6, [r4, #-420]!	@ 0xfffffe5c
     484:	2e636367 	cdpcs	3, 6, cr6, cr3, cr7, {3}
     488:	00020068 	andeq	r0, r2, r8, rrx
     48c:	61626700 	cmnvs	r2, r0, lsl #14
     490:	7079745f 	rsbsvc	r7, r9, pc, asr r4
     494:	682e7365 	stmdavs	lr!, {r0, r2, r5, r6, r8, r9, ip, sp, lr}
     498:	00000300 	andeq	r0, r0, r0, lsl #6
     49c:	5f616267 	svcpl	0x00616267
     4a0:	74737973 	ldrbtvc	r7, [r3], #-2419	@ 0xfffff68d
     4a4:	61636d65 	cmnvs	r3, r5, ror #26
     4a8:	2e736c6c 	cdpcs	12, 7, cr6, cr3, cr12, {3}
     4ac:	00030068 	andeq	r0, r3, r8, rrx
     4b0:	6e757200 	cdpvs	2, 7, cr7, cr5, cr0, {0}
     4b4:	656d6974 	strbvs	r6, [sp, #-2420]!	@ 0xfffff68c
     4b8:	0400682e 	streq	r6, [r0], #-2094	@ 0xfffff7d2
     4bc:	6e690000 	cdpvs	0, 6, cr0, cr9, cr0, {0}
     4c0:	00682e74 	rsbeq	r2, r8, r4, ror lr
     4c4:	67000005 	strvs	r0, [r0, -r5]
     4c8:	695f6162 	ldmdbvs	pc, {r1, r5, r6, r8, sp, lr}^	@ <UNPREDICTABLE>
     4cc:	7265746e 	rsbvc	r7, r5, #1845493760	@ 0x6e000000
     4d0:	74707572 	ldrbtvc	r7, [r0], #-1394	@ 0xfffffa8e
     4d4:	0300682e 	tsteq	r0, #3014656	@ 0x2e0000
     4d8:	61720000 	cmnvs	r2, r0
     4dc:	682e646e 	stmdavs	lr!, {r1, r2, r3, r5, r6, sl, sp, lr}
     4e0:	00000600 	andeq	r0, r0, r0, lsl #12
     4e4:	6c776f6c 	ldclvs	15, cr6, [r7], #-432	@ 0xfffffe50
     4e8:	6c657665 	stclvs	6, cr7, [r5], #-404	@ 0xfffffe6c
     4ec:	0700682e 	streq	r6, [r0, -lr, lsr #16]
     4f0:	05000000 	streq	r0, [r0, #-0]
     4f4:	02050011 	andeq	r0, r5, #17
     4f8:	080002e4 	stmdaeq	r0, {r2, r5, r6, r7, r9}
     4fc:	05010d03 	streq	r0, [r1, #-3331]	@ 0xfffff2fd
     500:	11051302 	tstne	r5, r2, lsl #6
     504:	02051106 	andeq	r1, r5, #-2147483647	@ 0x80000001
     508:	0567062f 	strbeq	r0, [r7, #-1583]!	@ 0xfffff9d1
     50c:	05670601 	strbeq	r0, [r7, #-1537]!	@ 0xfffff9ff
     510:	0585061a 	streq	r0, [r5, #1562]	@ 0x61a
     514:	1a051302 	bne	145124 <_binary_assets_romhdr_bin_size+0x145065>
     518:	02051106 	andeq	r1, r5, #-2147483647	@ 0x80000001
     51c:	6767062f 	strbvs	r0, [r7, -pc, lsr #12]!
     520:	67060105 	strvs	r0, [r6, -r5, lsl #2]
     524:	4d061305 	stcmi	3, cr1, [r6, #-20]	@ 0xffffffec
     528:	14130205 	ldrne	r0, [r3], #-517	@ 0xfffffdfb
     52c:	05010605 	streq	r0, [r1, #-1541]	@ 0xfffff9fb
     530:	04020013 	streq	r0, [r2], #-19	@ 0xffffffed
     534:	0f060101 	svceq	0x00060101
     538:	01040200 	mrseq	r0, R12_usr
     53c:	0603054d 	streq	r0, [r3], -sp, asr #10
     540:	0605052f 	streq	r0, [r5], -pc, lsr #10
     544:	00130501 	andseq	r0, r3, r1, lsl #10
     548:	65010402 	strvs	r0, [r1, #-1026]	@ 0xfffffbfe
     54c:	052f0505 	streq	r0, [pc, #-1285]!	@ 4f <_binary_assets_romhdr_bin_size-0x70>
     550:	04020013 	streq	r0, [r2], #-19	@ 0xffffffed
     554:	19052d01 	stmdbne	r5, {r0, r8, sl, fp, sp}
     558:	02040200 	andeq	r0, r4, #0, 4
     55c:	13054a06 	tstne	r5, #24576	@ 0x6000
     560:	01040200 	mrseq	r0, R12_usr
     564:	34020501 	strcc	r0, [r2], #-1281	@ 0xfffffaff
     568:	01060905 	tsteq	r6, r5, lsl #18
     56c:	052e1005 	streq	r1, [lr, #-5]!
     570:	01054612 	tsteq	r5, r2, lsl r6
     574:	06060533 			@ <UNDEFINED> instruction: 0x06060533
     578:	052e7603 	streq	r7, [lr, #-1539]!	@ 0xfffff9fd
     57c:	0b051704 	bleq	146194 <_binary_assets_romhdr_bin_size+0x1460d5>
     580:	12050106 	andne	r0, r5, #-2147483647	@ 0x80000001
     584:	04052e2e 	streq	r2, [r5], #-3630	@ 0xfffff1d2
     588:	12052f06 	andne	r2, r5, #6, 30
     58c:	01051106 	tsteq	r5, r6, lsl #2
     590:	06190533 			@ <UNDEFINED> instruction: 0x06190533
     594:	13020585 	tstne	r2, #557842432	@ 0x21400000
     598:	01060514 	tsteq	r6, r4, lsl r5
     59c:	02001305 	andeq	r1, r0, #335544320	@ 0x14000000
     5a0:	05010104 	streq	r0, [r1, #-260]	@ 0xfffffefc
     5a4:	0c051303 	stceq	3, cr1, [r5], {3}
     5a8:	19050106 	stmdbne	r5, {r1, r2, r8}
     5ac:	320c057e 	andcc	r0, ip, #528482304	@ 0x1f800000
     5b0:	02001905 	andeq	r1, r0, #81920	@ 0x14000
     5b4:	65060304 	strvs	r0, [r6, #-772]	@ 0xfffffcfc
     5b8:	02001305 	andeq	r1, r0, #335544320	@ 0x14000000
     5bc:	05010104 	streq	r0, [r1, #-260]	@ 0xfffffefc
     5c0:	0c051303 	stceq	3, cr1, [r5], {3}
     5c4:	19050106 	stmdbne	r5, {r1, r2, r8}
     5c8:	03040200 	tsteq	r4, #0, 4
     5cc:	13052d06 	tstne	r5, #384	@ 0x180
     5d0:	01040200 	mrseq	r0, R12_usr
     5d4:	13030501 	tstne	r3, #4194304	@ 0x400000
     5d8:	01060c05 	tsteq	r6, r5, lsl #24
     5dc:	02001905 	andeq	r1, r0, #81920	@ 0x14000
     5e0:	b9060304 	stmdblt	r6, {r2, r8, r9}
     5e4:	02001305 	andeq	r1, r0, #335544320	@ 0x14000000
     5e8:	05010104 	streq	r0, [r1, #-260]	@ 0xfffffefc
     5ec:	19051303 	stmdbne	r5, {r0, r1, r8, r9, ip}
     5f0:	03040200 	tsteq	r4, #0, 4
     5f4:	00130511 	andseq	r0, r3, r1, lsl r5
     5f8:	01010402 	tsteq	r1, r2, lsl #8
     5fc:	05130305 	ldreq	r0, [r3, #-773]	@ 0xfffffcfb
     600:	04020019 	streq	r0, [r2], #-25	@ 0xffffffe7
     604:	13051103 	tstne	r5, #-1073741824	@ 0xc0000000
     608:	01040200 	mrseq	r0, R12_usr
     60c:	13030501 	tstne	r3, #4194304	@ 0x400000
     610:	01060c05 	tsteq	r6, r5, lsl #24
     614:	02001905 	andeq	r1, r0, #81920	@ 0x14000
     618:	2d060304 	stccs	3, cr0, [r6, #-16]
     61c:	02001305 	andeq	r1, r0, #335544320	@ 0x14000000
     620:	05010104 	streq	r0, [r1, #-260]	@ 0xfffffefc
     624:	0c051303 	stceq	3, cr1, [r5], {3}
     628:	19050106 	stmdbne	r5, {r1, r2, r8}
     62c:	03040200 	tsteq	r4, #0, 4
     630:	13052d06 	tstne	r5, #384	@ 0x180
     634:	01040200 	mrseq	r0, R12_usr
     638:	13030501 	tstne	r3, #4194304	@ 0x400000
     63c:	01060c05 	tsteq	r6, r5, lsl #24
     640:	02001905 	andeq	r1, r0, #81920	@ 0x14000
     644:	2d060304 	stccs	3, cr0, [r6, #-16]
     648:	02001305 	andeq	r1, r0, #335544320	@ 0x14000000
     64c:	05010104 	streq	r0, [r1, #-260]	@ 0xfffffefc
     650:	05150601 	ldreq	r0, [r5, #-1537]	@ 0xfffff9ff
     654:	054d0616 	strbeq	r0, [sp, #-1558]	@ 0xfffff9ea
     658:	0f051302 	svceq	0x00051302
     65c:	16050106 	strne	r0, [r5], -r6, lsl #2
     660:	2f0f052d 	svccs	0x000f052d
     664:	052f1005 	streq	r1, [pc, #-5]!	@ 667 <_binary_assets_romhdr_bin_size+0x5a8>
     668:	10052f02 	andne	r2, r5, r2, lsl #30
     66c:	490f052d 	stmdbmi	pc, {r0, r2, r3, r5, r8, sl}	@ <UNPREDICTABLE>
     670:	2f060205 	svccs	0x00060205
     674:	06010513 			@ <UNDEFINED> instruction: 0x06010513
     678:	0616052f 	ldreq	r0, [r6], -pc, lsr #10
     67c:	13020586 	tstne	r2, #562036736	@ 0x21800000
     680:	6e030605 	cdpvs	6, 0, cr0, cr3, cr5, {0}
     684:	13020501 	tstne	r2, #4194304	@ 0x400000
     688:	01060514 	tsteq	r6, r4, lsl r5
     68c:	02001305 	andeq	r1, r0, #335544320	@ 0x14000000
     690:	05010104 	streq	r0, [r1, #-260]	@ 0xfffffefc
     694:	0c051303 	stceq	3, cr1, [r5], {3}
     698:	16050106 	strne	r0, [r5], -r6, lsl #2
     69c:	054a0d03 	strbeq	r0, [sl, #-3331]	@ 0xfffff2fd
     6a0:	2e73030c 	cdpcs	3, 7, cr0, cr3, cr12, {0}
     6a4:	02001905 	andeq	r1, r0, #81920	@ 0x14000
     6a8:	d5060304 	strle	r0, [r6, #-772]	@ 0xfffffcfc
     6ac:	02001305 	andeq	r1, r0, #335544320	@ 0x14000000
     6b0:	05010104 	streq	r0, [r1, #-260]	@ 0xfffffefc
     6b4:	19051303 	stmdbne	r5, {r0, r1, r8, r9, ip}
     6b8:	03040200 	tsteq	r4, #0, 4
     6bc:	00130511 	andseq	r0, r3, r1, lsl r5
     6c0:	01010402 	tsteq	r1, r2, lsl #8
     6c4:	05130305 	ldreq	r0, [r3, #-773]	@ 0xfffffcfb
     6c8:	0501060c 	streq	r0, [r1, #-1548]	@ 0xfffff9f4
     6cc:	04020019 	streq	r0, [r2], #-25	@ 0xffffffe7
     6d0:	052d0603 	streq	r0, [sp, #-1539]!	@ 0xfffff9fd
     6d4:	04020013 	streq	r0, [r2], #-19	@ 0xffffffed
     6d8:	03050101 	tsteq	r5, #1073741824	@ 0x40000000
     6dc:	00190513 	andseq	r0, r9, r3, lsl r5
     6e0:	11030402 	tstne	r3, r2, lsl #8
     6e4:	02001305 	andeq	r1, r0, #335544320	@ 0x14000000
     6e8:	05010104 	streq	r0, [r1, #-260]	@ 0xfffffefc
     6ec:	0c051303 	stceq	3, cr1, [r5], {3}
     6f0:	19050106 	stmdbne	r5, {r1, r2, r8}
     6f4:	03040200 	tsteq	r4, #0, 4
     6f8:	13058106 	tstne	r5, #-2147483647	@ 0x80000001
     6fc:	01040200 	mrseq	r0, R12_usr
     700:	13030501 	tstne	r3, #4194304	@ 0x400000
     704:	03061105 	tsteq	r6, #1073741825	@ 0x40000001
     708:	0c05010f 	stceq	1, cr0, [r5], {15}
     70c:	054a7103 	strbeq	r7, [sl, #-259]	@ 0xfffffefd
     710:	04020019 	streq	r0, [r2], #-25	@ 0xffffffe7
     714:	05490603 	strbeq	r0, [r9, #-1539]	@ 0xfffff9fd
     718:	04020013 	streq	r0, [r2], #-19	@ 0xffffffed
     71c:	03050101 	tsteq	r5, #1073741824	@ 0x40000000
     720:	060c0513 			@ <UNDEFINED> instruction: 0x060c0513
     724:	00190501 	andseq	r0, r9, r1, lsl #10
     728:	06030402 	streq	r0, [r3], -r2, lsl #8
     72c:	0013052d 	andseq	r0, r3, sp, lsr #10
     730:	01010402 	tsteq	r1, r2, lsl #8
     734:	05130305 	ldreq	r0, [r3, #-773]	@ 0xfffffcfb
     738:	04020019 	streq	r0, [r2], #-25	@ 0xffffffe7
     73c:	13051103 	tstne	r5, #-1073741824	@ 0xc0000000
     740:	01040200 	mrseq	r0, R12_usr
     744:	04020001 	streq	r0, [r2], #-1
     748:	05010601 	streq	r0, [r1, #-1537]	@ 0xfffff9ff
     74c:	10030602 	andne	r0, r3, r2, lsl #12
     750:	060a0501 	streq	r0, [sl], -r1, lsl #10
     754:	2d110513 	ldccs	5, cr0, [r1, #-76]	@ 0xffffffb4
     758:	2f060205 	svccs	0x00060205
     75c:	01060a05 	tsteq	r6, r5, lsl #20
     760:	2f060205 	svccs	0x00060205
     764:	2f060105 	svccs	0x00060105
     768:	01000602 	tsteq	r0, r2, lsl #12
     76c:	000d0501 	andeq	r0, sp, r1, lsl #10
     770:	00c00205 	sbceq	r0, r0, r5, lsl #4
     774:	c0030800 	andgt	r0, r3, r0, lsl #16
     778:	02050100 	andeq	r0, r5, #0, 2
     77c:	060d0514 			@ <UNDEFINED> instruction: 0x060d0514
     780:	052a2f13 	streq	r2, [sl, #-3859]!	@ 0xfffff0ed
     784:	0d05300f 	stceq	0, cr3, [r5, #-60]	@ 0xffffffc4
     788:	2c0f054c 	stccs	5, cr0, [pc], {76}	@ 0x4c
     78c:	2f060205 	svccs	0x00060205
     790:	01060d05 	tsteq	r6, r5, lsl #26
     794:	2f060205 	svccs	0x00060205
     798:	01060d05 	tsteq	r6, r5, lsl #26
     79c:	2f060205 	svccs	0x00060205
     7a0:	01060f05 	tsteq	r6, r5, lsl #30
     7a4:	30060205 	andcc	r0, r6, r5, lsl #4
     7a8:	30302f2f 	eorscc	r2, r0, pc, lsr #30
     7ac:	0705302f 	streq	r3, [r5, -pc, lsr #32]
     7b0:	05050106 	streq	r0, [r5, #-262]	@ 0xfffffefa
     7b4:	0603052e 	streq	r0, [r3], -lr, lsr #10
     7b8:	06110567 	ldreq	r0, [r1], -r7, ror #10
     7bc:	06020501 	streq	r0, [r2], -r1, lsl #10
     7c0:	01053087 	tsteq	r5, r7, lsl #1
     7c4:	02051306 	andeq	r1, r5, #402653184	@ 0x18000000
     7c8:	000a022d 	andeq	r0, sl, sp, lsr #4
     7cc:	01ff0101 	mvnseq	r0, r1, lsl #2
     7d0:	00030000 	andeq	r0, r3, r0
     7d4:	00000076 	andeq	r0, r0, r6, ror r0
     7d8:	0efb0102 	cdpeq	1, 15, cr0, cr11, cr2, {0}
     7dc:	0101000d 	tsteq	r1, sp
     7e0:	00000101 	andeq	r0, r0, r1, lsl #2
     7e4:	00000100 	andeq	r0, r0, r0, lsl #2
     7e8:	63727301 	cmnvs	r2, #67108864	@ 0x4000000
     7ec:	6275732f 	rsbsvs	r7, r5, #-1140850688	@ 0xbc000000
     7f0:	00737973 	rsbseq	r7, r3, r3, ror r9
     7f4:	74706f2f 	ldrbtvc	r6, [r0], #-3887	@ 0xfffff0d1
     7f8:	7665642f 	strbtvc	r6, [r5], -pc, lsr #8
     7fc:	7074696b 	rsbsvc	r6, r4, fp, ror #18
     800:	642f6f72 	strtvs	r6, [pc], #-3954	@ 808 <_binary_assets_romhdr_bin_size+0x749>
     804:	696b7665 	stmdbvs	fp!, {r0, r2, r5, r6, r9, sl, ip, sp, lr}^
     808:	4d524174 	ldclmi	1, cr4, [r2, #-464]	@ 0xfffffe30
     80c:	62696c2f 	rsbvs	r6, r9, #12032	@ 0x2f00
     810:	6363672f 	cmnvs	r3, #12320768	@ 0xbc0000
     814:	6d72612f 	ldclvs	1, cr6, [r2, #-188]!	@ 0xffffff44
     818:	6e6f6e2d 	cdpvs	14, 6, cr6, cr15, cr13, {1}
     81c:	61652d65 	cmnvs	r5, r5, ror #26
     820:	312f6962 			@ <UNDEFINED> instruction: 0x312f6962
     824:	2e312e35 	mrccs	14, 1, r2, cr1, cr5, {1}
     828:	6e692f30 	mcrvs	15, 3, r2, cr9, cr0, {1}
     82c:	64756c63 	ldrbtvs	r6, [r5], #-3171	@ 0xfffff39d
     830:	72000065 	andvc	r0, r0, #101	@ 0x65
     834:	2e646e61 	cdpcs	14, 6, cr6, cr4, cr1, {3}
     838:	00010063 	andeq	r0, r1, r3, rrx
     83c:	64747300 	ldrbtvs	r7, [r4], #-768	@ 0xfffffd00
     840:	2d746e69 	ldclcs	14, cr6, [r4, #-420]!	@ 0xfffffe5c
     844:	2e636367 	cdpcs	3, 6, cr6, cr3, cr7, {3}
     848:	00020068 	andeq	r0, r2, r8, rrx
     84c:	1f050000 	svcne	0x00050000
     850:	90020500 	andls	r0, r2, r0, lsl #10
     854:	03080004 	tsteq	r8, #4
     858:	0505010d 	streq	r0, [r5, #-269]	@ 0xfffffef3
     85c:	09051413 	stmdbeq	r5, {r0, r1, r4, sl, ip}
     860:	05010601 	streq	r0, [r1, #-1537]	@ 0xfffff9ff
     864:	16052b1f 			@ <UNDEFINED> instruction: 0x16052b1f
     868:	2f200532 	svccs	0x00200532
     86c:	02001605 	andeq	r1, r0, #5242880	@ 0x500000
     870:	48060104 	stmdami	r6, {r2, r8}
     874:	05130905 	ldreq	r0, [r3, #-2309]	@ 0xfffff6fb
     878:	05010616 	streq	r0, [r1, #-1558]	@ 0xfffff9ea
     87c:	09052e0e 	stmdbeq	r5, {r1, r2, r3, r9, sl, fp, sp}
     880:	16052f06 	strne	r2, [r5], -r6, lsl #30
     884:	20051306 	andcs	r1, r5, r6, lsl #6
     888:	2e2e052d 	cdpcs	5, 2, cr0, cr14, cr13, {1}
     88c:	052e1705 	streq	r1, [lr, #-1797]!	@ 0xfffff8fb
     890:	052f0609 	streq	r0, [pc, #-1545]!	@ 28f <_binary_assets_romhdr_bin_size+0x1d0>
     894:	04020016 	streq	r0, [r2], #-22	@ 0xffffffea
     898:	050f0601 	streq	r0, [pc, #-1537]	@ 29f <_binary_assets_romhdr_bin_size+0x1e0>
     89c:	1e05310f 	cdpne	1, 0, cr3, cr5, cr15, {0}
     8a0:	03040200 	tsteq	r4, #0, 4
     8a4:	16052b06 	strne	r2, [r5], -r6, lsl #22
     8a8:	01040200 	mrseq	r0, R12_usr
     8ac:	33050501 	tstcc	r5, #4194304	@ 0x400000
     8b0:	01061405 	tsteq	r6, r5, lsl #8
     8b4:	054b0105 	strbeq	r0, [fp, #-261]	@ 0xfffffefb
     8b8:	01052d14 	tsteq	r5, r4, lsl sp
     8bc:	0614052f 	ldreq	r0, [r4], -pc, lsr #10
     8c0:	130505a1 	tstne	r5, #675282944	@ 0x28400000
     8c4:	14051313 	strne	r1, [r5], #-787	@ 0xfffffced
     8c8:	18050f06 	stmdane	r5, {r1, r2, r8, r9, sl, fp}
     8cc:	4a080531 	bmi	201d98 <_binary_assets_romhdr_bin_size+0x201cd9>
     8d0:	19031305 	stmdbne	r3, {r0, r2, r8, r9, ip}
     8d4:	0308052e 	tsteq	r8, #192937984	@ 0xb800000
     8d8:	09052e67 	stmdbeq	r5, {r0, r1, r2, r5, r6, r9, sl, fp, sp}
     8dc:	0b052f06 	bleq	14c4fc <_binary_assets_romhdr_bin_size+0x14c43d>
     8e0:	11050106 	tstne	r5, r6, lsl #2
     8e4:	0b058706 	bleq	162504 <_binary_assets_romhdr_bin_size+0x162445>
     8e8:	0d052906 			@ <UNDEFINED> instruction: 0x0d052906
     8ec:	2f058806 	svccs	0x00058806
     8f0:	41050106 	tstmi	r5, r6, lsl #2
     8f4:	2e59052e 	cdpcs	5, 5, cr0, cr9, cr14, {1}
     8f8:	054a4505 	strbeq	r4, [sl, #-1285]	@ 0xfffffafb
     8fc:	59052e3d 	stmdbpl	r5, {r0, r2, r3, r4, r5, r9, sl, fp, sp}
     900:	4a10052e 	bmi	401dc0 <_binary_assets_romhdr_bin_size+0x401d01>
     904:	2f060d05 	svccs	0x00060d05
     908:	0f110513 	svceq	0x00110513
     90c:	03061605 	tsteq	r6, #5242880	@ 0x500000
     910:	18054a09 	stmdane	r5, {r0, r3, r9, fp, lr}
     914:	01040200 	mrseq	r0, R12_usr
     918:	2a16054e 	bcs	581e58 <_binary_assets_romhdr_bin_size+0x581d99>
     91c:	2d060d05 	stccs	13, cr0, [r6, #-20]	@ 0xffffffec
     920:	05131105 	ldreq	r1, [r3, #-261]	@ 0xfffffefb
     924:	052e0623 	streq	r0, [lr, #-1571]!	@ 0xfffff9dd
     928:	4d052e35 	stcmi	14, cr2, [r5, #-212]	@ 0xffffff2c
     92c:	2e39052e 	cdpcs	5, 3, cr0, cr9, cr14, {1}
     930:	052e3105 	streq	r3, [lr, #-261]!	@ 0xfffffefb
     934:	14052e4d 	strne	r2, [r5], #-3661	@ 0xfffff1b3
     938:	06110566 	ldreq	r0, [r1], -r6, ror #10
     93c:	0513132f 	ldreq	r1, [r3, #-815]	@ 0xfffffcd1
     940:	04020018 	streq	r0, [r2], #-24	@ 0xffffffe8
     944:	02001301 	andeq	r1, r0, #67108864	@ 0x4000000
     948:	82060104 	andhi	r0, r6, #4, 2
     94c:	17060505 	strne	r0, [r6, -r5, lsl #10]
     950:	06120513 			@ <UNDEFINED> instruction: 0x06120513
     954:	2f1d0513 	svccs	0x001d0513
     958:	052d0e05 	streq	r0, [sp, #-3589]!	@ 0xfffff1fb
     95c:	1d05301b 	stcne	0, cr3, [r5, #-108]	@ 0xffffff94
     960:	2e07052d 	cdpcs	5, 0, cr0, cr7, cr13, {1}
     964:	052f1b05 	streq	r1, [pc, #-2821]!	@ fffffe67 <IntrRet+0xf7ffd77f>
     968:	13052e07 	tstne	r5, #7, 28	@ 0x70
     96c:	0605052b 	streq	r0, [r5], -fp, lsr #10
     970:	1313132f 	tstne	r3, #-1140850688	@ 0xbc000000
     974:	13060105 	tstne	r6, #1073741825	@ 0x40000001
     978:	0b054a2e 	bleq	153238 <_binary_assets_romhdr_bin_size+0x153179>
     97c:	052e6303 	streq	r6, [lr, #-771]!	@ 0xfffffcfd
     980:	2e740316 	mrccs	3, 3, r0, cr4, cr6, {0}
     984:	052f2005 	streq	r2, [pc, #-5]!	@ 987 <_binary_assets_romhdr_bin_size+0x8c8>
     988:	05650609 	strbeq	r0, [r5, #-1545]!	@ 0xfffff9f7
     98c:	05010616 	streq	r0, [r1, #-1558]	@ 0xfffff9ea
     990:	09052e0e 	stmdbeq	r5, {r1, r2, r3, r9, sl, fp, sp}
     994:	16052f06 	strne	r2, [r5], -r6, lsl #30
     998:	20051306 	andcs	r1, r5, r6, lsl #6
     99c:	2e2e052d 	cdpcs	5, 2, cr0, cr14, cr13, {1}
     9a0:	052e1705 	streq	r1, [lr, #-1797]!	@ 0xfffff8fb
     9a4:	052f0609 	streq	r0, [pc, #-1545]!	@ 3a3 <_binary_assets_romhdr_bin_size+0x2e4>
     9a8:	04020016 	streq	r0, [r2], #-22	@ 0xffffffea
     9ac:	050f0601 	streq	r0, [pc, #-1537]	@ 3b3 <_binary_assets_romhdr_bin_size+0x2f4>
     9b0:	1e05310f 	cdpne	1, 0, cr3, cr5, cr15, {0}
     9b4:	03040200 	tsteq	r4, #0, 4
     9b8:	16052b06 	strne	r2, [r5], -r6, lsl #22
     9bc:	01040200 	mrseq	r0, R12_usr
     9c0:	33050501 	tstcc	r5, #4194304	@ 0x400000
     9c4:	01061405 	tsteq	r6, r5, lsl #8
     9c8:	2f01052e 	svccs	0x0001052e
     9cc:	01001402 	tsteq	r0, r2, lsl #8
     9d0:	00009b01 	andeq	r9, r0, r1, lsl #22
     9d4:	78000300 	stmdavc	r0, {r8, r9}
     9d8:	02000000 	andeq	r0, r0, #0
     9dc:	0d0efb01 	vstreq	d15, [lr, #-4]
     9e0:	01010100 	mrseq	r0, (UNDEF: 17)
     9e4:	00000001 	andeq	r0, r0, r1
     9e8:	01000001 	tsteq	r0, r1
     9ec:	2f637273 	svccs	0x00637273
     9f0:	73627573 	cmnvc	r2, #482344960	@ 0x1cc00000
     9f4:	2f007379 	svccs	0x00007379
     9f8:	2f74706f 	svccs	0x0074706f
     9fc:	6b766564 	blvs	1d99f94 <_binary_assets_romhdr_bin_size+0x1d99ed5>
     a00:	72707469 	rsbsvc	r7, r0, #1761607680	@ 0x69000000
     a04:	65642f6f 	strbvs	r2, [r4, #-3951]!	@ 0xfffff091
     a08:	74696b76 	strbtvc	r6, [r9], #-2934	@ 0xfffff48a
     a0c:	2f4d5241 	svccs	0x004d5241
     a10:	2f62696c 	svccs	0x0062696c
     a14:	2f636367 	svccs	0x00636367
     a18:	2d6d7261 	stclcs	2, cr7, [sp, #-388]!	@ 0xfffffe7c
     a1c:	656e6f6e 	strbvs	r6, [lr, #-3950]!	@ 0xfffff092
     a20:	6261652d 	rsbvs	r6, r1, #188743680	@ 0xb400000
     a24:	35312f69 	ldrcc	r2, [r1, #-3945]!	@ 0xfffff097
     a28:	302e312e 	eorcc	r3, lr, lr, lsr #2
     a2c:	636e692f 	cmnvs	lr, #770048	@ 0xbc000
     a30:	6564756c 	strbvs	r7, [r4, #-1388]!	@ 0xfffffa94
     a34:	73610000 	cmnvc	r1, #0
     a38:	73746573 	cmnvc	r4, #482344960	@ 0x1cc00000
     a3c:	0100632e 	tsteq	r0, lr, lsr #6
     a40:	74730000 	ldrbtvc	r0, [r3], #-0
     a44:	746e6964 	strbtvc	r6, [lr], #-2404	@ 0xfffff69c
     a48:	6363672d 	cmnvs	r3, #11796480	@ 0xb40000
     a4c:	0200682e 	andeq	r6, r0, #3014656	@ 0x2e0000
     a50:	05000000 	streq	r0, [r0, #-0]
     a54:	0205002f 	andeq	r0, r5, #47	@ 0x2f
     a58:	08000638 	stmdaeq	r0, {r3, r4, r5, r9, sl}
     a5c:	14050515 	strne	r0, [r5], #-1301	@ 0xfffffaeb
     a60:	01062205 	tsteq	r6, r5, lsl #4
     a64:	052e1005 	streq	r1, [lr, #-5]!
     a68:	022e2f01 	eoreq	r2, lr, #1, 30
     a6c:	01010002 	tsteq	r1, r2
     a70:	000000db 			@ <UNDEFINED> instruction: 0x000000db
     a74:	00820003 	addeq	r0, r2, r3
     a78:	01020000 	mrseq	r0, (UNDEF: 2)
     a7c:	000d0efb 			@ <UNDEFINED> instruction: 0x000d0efb
     a80:	01010101 	tsteq	r1, r1, lsl #2
     a84:	01000000 	mrseq	r0, (UNDEF: 0)
     a88:	73010000 	tstvc	r1, #0
     a8c:	732f6372 			@ <UNDEFINED> instruction: 0x732f6372
     a90:	79736275 	ldmdbvc	r3!, {r0, r2, r4, r5, r6, r9, sp, lr}^
     a94:	6f2f0073 	svcvs	0x002f0073
     a98:	642f7470 	strtvs	r7, [pc], #-1136	@ aa0 <_binary_assets_romhdr_bin_size+0x9e1>
     a9c:	696b7665 	stmdbvs	fp!, {r0, r2, r5, r6, r9, sl, ip, sp, lr}^
     aa0:	6f727074 	svcvs	0x00727074
     aa4:	7665642f 	strbtvc	r6, [r5], -pc, lsr #8
     aa8:	4174696b 	cmnmi	r4, fp, ror #18
     aac:	6c2f4d52 	stcvs	13, cr4, [pc], #-328	@ 96c <_binary_assets_romhdr_bin_size+0x8ad>
     ab0:	672f6269 	strvs	r6, [pc, -r9, ror #4]!
     ab4:	612f6363 			@ <UNDEFINED> instruction: 0x612f6363
     ab8:	6e2d6d72 	mcrvs	13, 1, r6, cr13, cr2, {3}
     abc:	2d656e6f 	stclcs	14, cr6, [r5, #-444]!	@ 0xfffffe44
     ac0:	69626165 	stmdbvs	r2!, {r0, r2, r5, r6, r8, sp, lr}^
     ac4:	2e35312f 	cdpcs	1, 3, cr3, cr5, cr15, {1}
     ac8:	2f302e31 	svccs	0x00302e31
     acc:	6c636e69 	stclvs	14, cr6, [r3], #-420	@ 0xfffffe5c
     ad0:	00656475 	rsbeq	r6, r5, r5, ror r4
     ad4:	706e6900 	rsbvc	r6, lr, r0, lsl #18
     ad8:	632e7475 			@ <UNDEFINED> instruction: 0x632e7475
     adc:	00000100 	andeq	r0, r0, r0, lsl #2
     ae0:	69647473 	stmdbvs	r4!, {r0, r1, r4, r5, r6, sl, ip, sp, lr}^
     ae4:	672d746e 	strvs	r7, [sp, -lr, ror #8]!
     ae8:	682e6363 	stmdavs	lr!, {r0, r1, r5, r6, r8, r9, sp, lr}
     aec:	00000200 	andeq	r0, r0, r0, lsl #4
     af0:	75706e69 	ldrbvc	r6, [r0, #-3689]!	@ 0xfffff197
     af4:	00682e74 	rsbeq	r2, r8, r4, ror lr
     af8:	00000001 	andeq	r0, r0, r1
     afc:	05003605 	streq	r3, [r0, #-1541]	@ 0xfffff9fb
     b00:	00064802 	andeq	r4, r6, r2, lsl #16
     b04:	05051608 	streq	r1, [r5, #-1544]	@ 0xfffff9f8
     b08:	06220513 			@ <UNDEFINED> instruction: 0x06220513
     b0c:	2d210513 	stccs	5, cr0, [r1, #-76]!	@ 0xffffffb4
     b10:	054b2205 	strbeq	r2, [fp, #-517]	@ 0xfffffdfb
     b14:	05052d21 	streq	r2, [r5, #-3361]	@ 0xfffff2df
     b18:	05132f06 	ldreq	r2, [r3, #-3846]	@ 0xfffff0fa
     b1c:	05010622 	streq	r0, [r1, #-1570]	@ 0xfffff9de
     b20:	052f0605 	streq	r0, [pc, #-1541]!	@ 523 <_binary_assets_romhdr_bin_size+0x464>
     b24:	05010622 	streq	r0, [r1, #-1570]	@ 0xfffff9de
     b28:	052f0605 	streq	r0, [pc, #-1541]!	@ 52b <_binary_assets_romhdr_bin_size+0x46c>
     b2c:	05010622 	streq	r0, [r1, #-1570]	@ 0xfffff9de
     b30:	052f0605 	streq	r0, [pc, #-1541]!	@ 533 <_binary_assets_romhdr_bin_size+0x474>
     b34:	05010622 	streq	r0, [r1, #-1570]	@ 0xfffff9de
     b38:	052f0605 	streq	r0, [pc, #-1541]!	@ 53b <_binary_assets_romhdr_bin_size+0x47c>
     b3c:	05010622 	streq	r0, [r1, #-1570]	@ 0xfffff9de
     b40:	052f0605 	streq	r0, [pc, #-1541]!	@ 543 <_binary_assets_romhdr_bin_size+0x484>
     b44:	05010622 	streq	r0, [r1, #-1570]	@ 0xfffff9de
     b48:	02022f01 	andeq	r2, r2, #1, 30
     b4c:	88010100 	stmdahi	r1, {r8}
     b50:	03000001 	tsteq	r0, #1
     b54:	00009500 	andeq	r9, r0, r0, lsl #10
     b58:	fb010200 			@ <UNDEFINED> instruction: 0xfb010200
     b5c:	01000d0e 	tsteq	r0, lr, lsl #26
     b60:	00010101 	andeq	r0, r1, r1, lsl #2
     b64:	00010000 	andeq	r0, r1, r0
     b68:	72730100 	rsbsvc	r0, r3, #0, 2
     b6c:	75732f63 	ldrbvc	r2, [r3, #-3939]!	@ 0xfffff09d
     b70:	73797362 	cmnvc	r9, #-2013265919	@ 0x88000001
     b74:	706f2f00 	rsbvc	r2, pc, r0, lsl #30
     b78:	65642f74 	strbvs	r2, [r4, #-3956]!	@ 0xfffff08c
     b7c:	74696b76 	strbtvc	r6, [r9], #-2934	@ 0xfffff48a
     b80:	2f6f7270 	svccs	0x006f7270
     b84:	6b766564 	blvs	1d9a11c <_binary_assets_romhdr_bin_size+0x1d9a05d>
     b88:	52417469 	subpl	r7, r1, #1761607680	@ 0x69000000
     b8c:	696c2f4d 	stmdbvs	ip!, {r0, r2, r3, r6, r8, r9, sl, fp, sp}^
     b90:	63672f62 	cmnvs	r7, #392	@ 0x188
     b94:	72612f63 	rsbvc	r2, r1, #396	@ 0x18c
     b98:	6f6e2d6d 	svcvs	0x006e2d6d
     b9c:	652d656e 	strvs	r6, [sp, #-1390]!	@ 0xfffffa92
     ba0:	2f696261 	svccs	0x00696261
     ba4:	312e3531 			@ <UNDEFINED> instruction: 0x312e3531
     ba8:	692f302e 	stmdbvs	pc!, {r1, r2, r3, r5, ip, sp}	@ <UNPREDICTABLE>
     bac:	756c636e 	strbvc	r6, [ip, #-878]!	@ 0xfffffc92
     bb0:	73006564 	tstvc	r0, #100, 10	@ 0x19000000
     bb4:	752f6372 	strvc	r6, [pc, #-882]!	@ 84a <_binary_assets_romhdr_bin_size+0x78b>
     bb8:	006c6974 	rsbeq	r6, ip, r4, ror r9
     bbc:	78666700 	stmdavc	r6!, {r8, r9, sl, sp, lr}^
     bc0:	0100632e 	tsteq	r0, lr, lsr #6
     bc4:	74730000 	ldrbtvc	r0, [r3], #-0
     bc8:	746e6964 	strbtvc	r6, [lr], #-2404	@ 0xfffff69c
     bcc:	6363672d 	cmnvs	r3, #11796480	@ 0xb40000
     bd0:	0200682e 	andeq	r6, r0, #3014656	@ 0x2e0000
     bd4:	66670000 	strbtvs	r0, [r7], -r0
     bd8:	00682e78 	rsbeq	r2, r8, r8, ror lr
     bdc:	6c000001 	stcvs	0, cr0, [r0], {1}
     be0:	656c776f 	strbvs	r7, [ip, #-1903]!	@ 0xfffff891
     be4:	2e6c6576 	mcrcs	5, 3, r6, cr12, cr6, {3}
     be8:	00030068 	andeq	r0, r3, r8, rrx
     bec:	25050000 	strcs	r0, [r5, #-0]
     bf0:	78020500 	stmdavc	r2, {r8, sl}
     bf4:	1a080006 	bne	200c14 <_binary_assets_romhdr_bin_size+0x200b55>
     bf8:	05140505 	ldreq	r0, [r4, #-1285]	@ 0xfffffafb
     bfc:	05010613 	streq	r0, [r1, #-1555]	@ 0xfffff9ed
     c00:	054d0605 	strbeq	r0, [sp, #-1541]	@ 0xfffff9fb
     c04:	16050109 	strne	r0, [r5], -r9, lsl #2
     c08:	01040200 	mrseq	r0, R12_usr
     c0c:	13090501 	tstne	r9, #4194304	@ 0x400000
     c10:	01061c05 	tsteq	r6, r5, lsl #24
     c14:	02001b05 	andeq	r1, r0, #5120	@ 0x1400
     c18:	2d060304 	stccs	3, cr0, [r6, #-16]
     c1c:	02001605 	andeq	r1, r0, #5242880	@ 0x500000
     c20:	05010104 	streq	r0, [r1, #-260]	@ 0xfffffefc
     c24:	1c051309 	stcne	3, cr1, [r5], {9}
     c28:	1b050106 	blne	141048 <_binary_assets_romhdr_bin_size+0x140f89>
     c2c:	03040200 	tsteq	r4, #0, 4
     c30:	16052d06 	strne	r2, [r5], -r6, lsl #26
     c34:	01040200 	mrseq	r0, R12_usr
     c38:	13090501 	tstne	r9, #4194304	@ 0x400000
     c3c:	01061c05 	tsteq	r6, r5, lsl #24
     c40:	02001b05 	andeq	r1, r0, #5120	@ 0x1400
     c44:	2d060304 	stccs	3, cr0, [r6, #-16]
     c48:	02001605 	andeq	r1, r0, #5242880	@ 0x500000
     c4c:	05010104 	streq	r0, [r1, #-260]	@ 0xfffffefc
     c50:	1c051309 	stcne	3, cr1, [r5], {9}
     c54:	1b050106 	blne	141074 <_binary_assets_romhdr_bin_size+0x140fb5>
     c58:	03040200 	tsteq	r4, #0, 4
     c5c:	16052d06 	strne	r2, [r5], -r6, lsl #26
     c60:	01040200 	mrseq	r0, R12_usr
     c64:	06010501 	streq	r0, [r1], -r1, lsl #10
     c68:	06260515 			@ <UNDEFINED> instruction: 0x06260515
     c6c:	13030530 	tstne	r3, #48, 10	@ 0xc000000
     c70:	11062605 	tstne	r6, r5, lsl #12
     c74:	052f2305 	streq	r2, [pc, #-773]!	@ 977 <_binary_assets_romhdr_bin_size+0x8b8>
     c78:	23054e03 	tstcs	r5, #3, 28	@ 0x30
     c7c:	0603052a 	streq	r0, [r3], -sl, lsr #10
     c80:	0623052f 	strteq	r0, [r3], -pc, lsr #10
     c84:	06030501 	streq	r0, [r3], -r1, lsl #10
     c88:	0623052f 	strteq	r0, [r3], -pc, lsr #10
     c8c:	06030501 	streq	r0, [r3], -r1, lsl #10
     c90:	0623052f 	strteq	r0, [r3], -pc, lsr #10
     c94:	06030501 	streq	r0, [r3], -r1, lsl #10
     c98:	0626052f 	strteq	r0, [r6], -pc, lsr #10
     c9c:	2f23050d 	svccs	0x0023050d
     ca0:	06320305 	ldrteq	r0, [r2], -r5, lsl #6
     ca4:	0667672f 	strbteq	r6, [r7], -pc, lsr #14
     ca8:	2f062d4b 	svccs	0x00062d4b
     cac:	06230567 	strteq	r0, [r3], -r7, ror #10
     cb0:	06030501 	streq	r0, [r3], -r1, lsl #10
     cb4:	0623052f 	strteq	r0, [r3], -pc, lsr #10
     cb8:	06030501 	streq	r0, [r3], -r1, lsl #10
     cbc:	2705132f 	strcs	r1, [r5, -pc, lsr #6]
     cc0:	03051106 	tsteq	r5, #-2147483647	@ 0x80000001
     cc4:	27053006 	strcs	r3, [r5, -r6]
     cc8:	03050106 	tsteq	r5, #-2147483647	@ 0x80000001
     ccc:	28052f06 	stmdacs	r5, {r1, r2, r8, r9, sl, fp, sp}
     cd0:	01050106 	tsteq	r5, r6, lsl #2
     cd4:	02022e31 	andeq	r2, r2, #784	@ 0x310
     cd8:	b2010100 	andlt	r0, r1, #0, 2
     cdc:	03000000 	tsteq	r0, #0
     ce0:	00008c00 	andeq	r8, r0, r0, lsl #24
     ce4:	fb010200 			@ <UNDEFINED> instruction: 0xfb010200
     ce8:	01000d0e 	tsteq	r0, lr, lsl #26
     cec:	00010101 	andeq	r0, r1, r1, lsl #2
     cf0:	00010000 	andeq	r0, r1, r0
     cf4:	72730100 	rsbsvc	r0, r3, #0, 2
     cf8:	75732f63 	ldrbvc	r2, [r3, #-3939]!	@ 0xfffff09d
     cfc:	73797362 	cmnvc	r9, #-2013265919	@ 0x88000001
     d00:	706f2f00 	rsbvc	r2, pc, r0, lsl #30
     d04:	65642f74 	strbvs	r2, [r4, #-3956]!	@ 0xfffff08c
     d08:	74696b76 	strbtvc	r6, [r9], #-2934	@ 0xfffff48a
     d0c:	2f6f7270 	svccs	0x006f7270
     d10:	6b766564 	blvs	1d9a2a8 <_binary_assets_romhdr_bin_size+0x1d9a1e9>
     d14:	52417469 	subpl	r7, r1, #1761607680	@ 0x69000000
     d18:	696c2f4d 	stmdbvs	ip!, {r0, r2, r3, r6, r8, r9, sl, fp, sp}^
     d1c:	63672f62 	cmnvs	r7, #392	@ 0x188
     d20:	72612f63 	rsbvc	r2, r1, #396	@ 0x18c
     d24:	6f6e2d6d 	svcvs	0x006e2d6d
     d28:	652d656e 	strvs	r6, [sp, #-1390]!	@ 0xfffffa92
     d2c:	2f696261 	svccs	0x00696261
     d30:	312e3531 			@ <UNDEFINED> instruction: 0x312e3531
     d34:	692f302e 	stmdbvs	pc!, {r1, r2, r3, r5, ip, sp}	@ <UNPREDICTABLE>
     d38:	756c636e 	strbvc	r6, [ip, #-878]!	@ 0xfffffc92
     d3c:	00006564 	andeq	r6, r0, r4, ror #10
     d40:	73627573 	cmnvc	r2, #482344960	@ 0x1cc00000
     d44:	632e7379 			@ <UNDEFINED> instruction: 0x632e7379
     d48:	00000100 	andeq	r0, r0, r0, lsl #2
     d4c:	69647473 	stmdbvs	r4!, {r0, r1, r4, r5, r6, sl, ip, sp, lr}^
     d50:	672d746e 	strvs	r7, [sp, -lr, ror #8]!
     d54:	682e6363 	stmdavs	lr!, {r0, r1, r5, r6, r8, r9, sp, lr}
     d58:	00000200 	andeq	r0, r0, r0, lsl #4
     d5c:	2e786667 	cdpcs	6, 7, cr6, cr8, cr7, {3}
     d60:	00010068 	andeq	r0, r1, r8, rrx
     d64:	706e6900 	rsbvc	r6, lr, r0, lsl #18
     d68:	682e7475 	stmdavs	lr!, {r0, r2, r4, r5, r6, sl, ip, sp, lr}
     d6c:	00000100 	andeq	r0, r0, r0, lsl #2
     d70:	00170500 	andseq	r0, r7, r0, lsl #10
     d74:	07100205 	ldreq	r0, [r0, -r5, lsl #4]
     d78:	05170800 	ldreq	r0, [r7, #-2048]	@ 0xfffff800
     d7c:	17051505 	strne	r1, [r5, -r5, lsl #10]
     d80:	05050f06 	streq	r0, [r5, #-3846]	@ 0xfffff0fa
     d84:	4b4b0631 	blmi	12c2650 <_binary_assets_romhdr_bin_size+0x12c2591>
     d88:	67060105 	strvs	r0, [r6, -r5, lsl #2]
     d8c:	01000a02 	tsteq	r0, r2, lsl #20
     d90:	00004601 	andeq	r4, r0, r1, lsl #12
     d94:	24000300 	strcs	r0, [r0], #-768	@ 0xfffffd00
     d98:	02000000 	andeq	r0, r0, #0
     d9c:	0d0efb01 	vstreq	d15, [lr, #-4]
     da0:	01010100 	mrseq	r0, (UNDEF: 17)
     da4:	00000001 	andeq	r0, r0, r1
     da8:	01000001 	tsteq	r0, r1
     dac:	00637273 	rsbeq	r7, r3, r3, ror r2
     db0:	61747300 	cmnvs	r4, r0, lsl #6
     db4:	70757472 	rsbsvc	r7, r5, r2, ror r4
     db8:	0100632e 	tsteq	r0, lr, lsr #6
     dbc:	05000000 	streq	r0, [r0, #-0]
     dc0:	02050001 	andeq	r0, r5, #1
     dc4:	0800013c 	stmdaeq	r0, {r2, r3, r4, r5, r8}
     dc8:	13020518 	tstne	r2, #24, 10	@ 0x6000000
     dcc:	02000305 	andeq	r0, r0, #335544320	@ 0x14000000
     dd0:	05130204 	ldreq	r0, [r3, #-516]	@ 0xfffffdfc
     dd4:	02022d07 	andeq	r2, r2, #448	@ 0x1c0
     dd8:	66010100 	strvs	r0, [r1], -r0, lsl #2
     ddc:	03000000 	tsteq	r0, #0
     de0:	00004400 	andeq	r4, r0, r0, lsl #8
     de4:	fb010200 			@ <UNDEFINED> instruction: 0xfb010200
     de8:	01000d0e 	tsteq	r0, lr, lsl #26
     dec:	00010101 	andeq	r0, r1, r1, lsl #2
     df0:	00010000 	andeq	r0, r1, r0
     df4:	72730100 	rsbsvc	r0, r3, #0, 2
     df8:	75722f63 	ldrbvc	r2, [r2, #-3939]!	@ 0xfffff09d
     dfc:	6d69746e 	stclvs	4, cr7, [r9, #-440]!	@ 0xfffffe48
     e00:	72730065 	rsbsvc	r0, r3, #101	@ 0x65
     e04:	6f6e2f63 	svcvs	0x006e2f63
     e08:	61635f6e 	cmnvs	r3, lr, ror #30
     e0c:	006e6f6e 	rsbeq	r6, lr, lr, ror #30
     e10:	6d616700 	stclvs	7, cr6, [r1, #-0]
     e14:	616c7065 	cmnvs	ip, r5, rrx
     e18:	00632e79 	rsbeq	r2, r3, r9, ror lr
     e1c:	65000001 	strvs	r0, [r0, #-1]
     e20:	682e7272 	stmdavs	lr!, {r1, r4, r5, r6, r9, ip, sp, lr}
     e24:	00000200 	andeq	r0, r0, r0, lsl #4
     e28:	00180500 	andseq	r0, r8, r0, lsl #10
     e2c:	1c180205 	ldcne	2, cr0, [r8], {5}
     e30:	05160800 	ldreq	r0, [r6, #-2048]	@ 0xfffff800
     e34:	18051305 	stmdane	r5, {r0, r2, r8, r9, ip}
     e38:	05051106 	streq	r1, [r5, #-262]	@ 0xfffffefa
     e3c:	4b01052f 	blmi	42300 <_binary_assets_romhdr_bin_size+0x42241>
     e40:	01000402 	tsteq	r0, r2, lsl #8
     e44:	00006401 	andeq	r6, r0, r1, lsl #8
     e48:	42000300 	andmi	r0, r0, #0, 6
     e4c:	02000000 	andeq	r0, r0, #0
     e50:	0d0efb01 	vstreq	d15, [lr, #-4]
     e54:	01010100 	mrseq	r0, (UNDEF: 17)
     e58:	00000001 	andeq	r0, r0, r1
     e5c:	01000001 	tsteq	r0, r1
     e60:	2f637273 	svccs	0x00637273
     e64:	746e7572 	strbtvc	r7, [lr], #-1394	@ 0xfffffa8e
     e68:	00656d69 	rsbeq	r6, r5, r9, ror #26
     e6c:	2f637273 	svccs	0x00637273
     e70:	5f6e6f6e 	svcpl	0x006e6f6e
     e74:	6f6e6163 	svcvs	0x006e6163
     e78:	7500006e 	strvc	r0, [r0, #-110]	@ 0xffffff92
     e7c:	6573756e 	ldrbvs	r7, [r3, #-1390]!	@ 0xfffffa92
     e80:	00632e64 	rsbeq	r2, r3, r4, ror #28
     e84:	65000001 	strvs	r0, [r0, #-1]
     e88:	682e7272 	stmdavs	lr!, {r1, r4, r5, r6, r9, ip, sp, lr}
     e8c:	00000200 	andeq	r0, r0, r0, lsl #4
     e90:	00160500 	andseq	r0, r6, r0, lsl #10
     e94:	1c2c0205 	stcne	2, cr0, [ip], #-20	@ 0xffffffec
     e98:	05160800 	ldreq	r0, [r6, #-2048]	@ 0xfffff800
     e9c:	16051305 	strne	r1, [r5], -r5, lsl #6
     ea0:	05051106 	streq	r1, [r5, #-262]	@ 0xfffffefa
     ea4:	4b01052f 	blmi	42368 <_binary_assets_romhdr_bin_size+0x422a9>
     ea8:	01000402 	tsteq	r0, r2, lsl #8
     eac:	00016201 	andeq	r6, r1, r1, lsl #4
     eb0:	bd000300 	stclt	3, cr0, [r0, #-0]
     eb4:	02000000 	andeq	r0, r0, #0
     eb8:	0d0efb01 	vstreq	d15, [lr, #-4]
     ebc:	01010100 	mrseq	r0, (UNDEF: 17)
     ec0:	00000001 	andeq	r0, r0, r1
     ec4:	01000001 	tsteq	r0, r1
     ec8:	2f637273 	svccs	0x00637273
     ecc:	746e7572 	strbtvc	r7, [lr], #-1394	@ 0xfffffa8e
     ed0:	00656d69 	rsbeq	r6, r5, r9, ror #26
     ed4:	74706f2f 	ldrbtvc	r6, [r0], #-3887	@ 0xfffff0d1
     ed8:	7665642f 	strbtvc	r6, [r5], -pc, lsr #8
     edc:	7074696b 	rsbsvc	r6, r4, fp, ror #18
     ee0:	642f6f72 	strtvs	r6, [pc], #-3954	@ ee8 <_binary_assets_romhdr_bin_size+0xe29>
     ee4:	696b7665 	stmdbvs	fp!, {r0, r2, r5, r6, r9, sl, ip, sp, lr}^
     ee8:	4d524174 	ldclmi	1, cr4, [r2, #-464]	@ 0xfffffe30
     eec:	62696c2f 	rsbvs	r6, r9, #12032	@ 0x2f00
     ef0:	6363672f 	cmnvs	r3, #12320768	@ 0xbc0000
     ef4:	6d72612f 	ldclvs	1, cr6, [r2, #-188]!	@ 0xffffff44
     ef8:	6e6f6e2d 	cdpvs	14, 6, cr6, cr15, cr13, {1}
     efc:	61652d65 	cmnvs	r5, r5, ror #26
     f00:	312f6962 			@ <UNDEFINED> instruction: 0x312f6962
     f04:	2e312e35 	mrccs	14, 1, r2, cr1, cr5, {1}
     f08:	6e692f30 	mcrvs	15, 3, r2, cr9, cr0, {1}
     f0c:	64756c63 	ldrbtvs	r6, [r5], #-3171	@ 0xfffff39d
     f10:	72730065 	rsbsvc	r0, r3, #101	@ 0x65
     f14:	75732f63 	ldrbvc	r2, [r3, #-3939]!	@ 0xfffff09d
     f18:	73797362 	cmnvc	r9, #-2013265919	@ 0x88000001
     f1c:	63727300 	cmnvs	r2, #0, 6
     f20:	6974752f 	ldmdbvs	r4!, {r0, r1, r2, r3, r5, r8, sl, ip, sp, lr}^
     f24:	6800006c 	stmdavs	r0, {r2, r3, r5, r6}
     f28:	632e736e 			@ <UNDEFINED> instruction: 0x632e736e
     f2c:	00000100 	andeq	r0, r0, r0, lsl #2
     f30:	69647473 	stmdbvs	r4!, {r0, r1, r4, r5, r6, sl, ip, sp, lr}^
     f34:	672d746e 	strvs	r7, [sp, -lr, ror #8]!
     f38:	682e6363 	stmdavs	lr!, {r0, r1, r5, r6, r8, r9, sp, lr}
     f3c:	00000200 	andeq	r0, r0, r0, lsl #4
     f40:	746e7572 	strbtvc	r7, [lr], #-1394	@ 0xfffffa8e
     f44:	2e656d69 	cdpcs	13, 6, cr6, cr5, cr9, {3}
     f48:	00010068 	andeq	r0, r1, r8, rrx
     f4c:	62757300 	rsbsvs	r7, r5, #0, 6
     f50:	2e737973 			@ <UNDEFINED> instruction: 0x2e737973
     f54:	00030068 	andeq	r0, r3, r8, rrx
     f58:	776f6c00 	strbvc	r6, [pc, -r0, lsl #24]!
     f5c:	6576656c 	ldrbvs	r6, [r6, #-1388]!	@ 0xfffffa94
     f60:	00682e6c 	rsbeq	r2, r8, ip, ror #28
     f64:	61000004 	tstvs	r0, r4
     f68:	74657373 	strbtvc	r7, [r5], #-883	@ 0xfffffc8d
     f6c:	00682e73 	rsbeq	r2, r8, r3, ror lr
     f70:	00000003 	andeq	r0, r0, r3
     f74:	05001905 	streq	r1, [r0, #-2309]	@ 0xfffff6fb
     f78:	001c4002 	andseq	r4, ip, r2
     f7c:	010c0308 	tsteq	ip, r8, lsl #6
     f80:	14130505 	ldrne	r0, [r3], #-1285	@ 0xfffffafb
     f84:	0f061905 	svceq	0x00061905
     f88:	05310e05 	ldreq	r0, [r1, #-3589]!	@ 0xfffff1fb
     f8c:	4b670605 	blmi	19c27a8 <_binary_assets_romhdr_bin_size+0x19c26e9>
     f90:	01060e05 	tsteq	r6, r5, lsl #28
     f94:	67060505 	strvs	r0, [r6, -r5, lsl #10]
     f98:	060e054b 	streq	r0, [lr], -fp, asr #10
     f9c:	06050501 	streq	r0, [r5], -r1, lsl #10
     fa0:	2a054c67 	bcs	154144 <_binary_assets_romhdr_bin_size+0x154085>
     fa4:	1e050106 	cdpne	1, 0, cr0, cr5, cr6, {0}
     fa8:	01040200 	mrseq	r0, R12_usr
     fac:	301a0566 	andscc	r0, sl, r6, ror #10
     fb0:	02001e05 	andeq	r1, r0, #5, 28	@ 0x50
     fb4:	052c0104 	streq	r0, [ip, #-260]!	@ 0xfffffefc
     fb8:	0505301a 	streq	r3, [r5, #-26]	@ 0xffffffe6
     fbc:	1a052e06 	bne	14c7dc <_binary_assets_romhdr_bin_size+0x14c71d>
     fc0:	01050106 	tsteq	r5, r6, lsl #2
     fc4:	06100530 			@ <UNDEFINED> instruction: 0x06100530
     fc8:	130505bd 	tstne	r5, #792723456	@ 0x2f400000
     fcc:	11061005 	tstne	r6, r5
     fd0:	062f0505 	strteq	r0, [pc], -r5, lsl #10
     fd4:	010a0530 	tsteq	sl, r0, lsr r5
     fd8:	05010505 	streq	r0, [r1, #-1285]	@ 0xfffffafb
     fdc:	1005010a 	andne	r0, r5, sl, lsl #2
     fe0:	14050532 	strne	r0, [r5], #-1330	@ 0xffffface
     fe4:	10061005 	andne	r1, r6, r5
     fe8:	06300505 	ldrteq	r0, [r0], -r5, lsl #10
     fec:	03060530 	tsteq	r6, #48, 10	@ 0xc000000
     ff0:	05050175 	streq	r0, [r5, #-373]	@ 0xfffffe8b
     ff4:	0a053013 	beq	14d048 <_binary_assets_romhdr_bin_size+0x14cf89>
     ff8:	01050501 	tsteq	r5, r1, lsl #10
     ffc:	05010a05 	streq	r0, [r1, #-2565]	@ 0xfffff5fb
    1000:	2e0c0313 	mcrcs	3, 0, r0, cr12, cr3, {0}
    1004:	05140505 	ldreq	r0, [r4, #-1285]	@ 0xfffffafb
    1008:	05100613 	ldreq	r0, [r0, #-1555]	@ 0xfffff9ed
    100c:	02023005 	andeq	r3, r2, #5
    1010:	19010100 	stmdbne	r1, {r8}
    1014:	03000001 	tsteq	r0, #1
    1018:	00009e00 	andeq	r9, r0, r0, lsl #28
    101c:	fb010200 			@ <UNDEFINED> instruction: 0xfb010200
    1020:	01000d0e 	tsteq	r0, lr, lsl #26
    1024:	00010101 	andeq	r0, r1, r1, lsl #2
    1028:	00010000 	andeq	r0, r1, r0
    102c:	72730100 	rsbsvc	r0, r3, #0, 2
    1030:	75722f63 	ldrbvc	r2, [r2, #-3939]!	@ 0xfffff09d
    1034:	6d69746e 	stclvs	4, cr7, [r9, #-440]!	@ 0xfffffe48
    1038:	6f2f0065 	svcvs	0x002f0065
    103c:	642f7470 	strtvs	r7, [pc], #-1136	@ 1044 <_binary_assets_romhdr_bin_size+0xf85>
    1040:	696b7665 	stmdbvs	fp!, {r0, r2, r5, r6, r9, sl, ip, sp, lr}^
    1044:	6f727074 	svcvs	0x00727074
    1048:	7665642f 	strbtvc	r6, [r5], -pc, lsr #8
    104c:	4174696b 	cmnmi	r4, fp, ror #18
    1050:	6c2f4d52 	stcvs	13, cr4, [pc], #-328	@ f10 <_binary_assets_romhdr_bin_size+0xe51>
    1054:	672f6269 	strvs	r6, [pc, -r9, ror #4]!
    1058:	612f6363 			@ <UNDEFINED> instruction: 0x612f6363
    105c:	6e2d6d72 	mcrvs	13, 1, r6, cr13, cr2, {3}
    1060:	2d656e6f 	stclcs	14, cr6, [r5, #-444]!	@ 0xfffffe44
    1064:	69626165 	stmdbvs	r2!, {r0, r2, r5, r6, r8, sp, lr}^
    1068:	2e35312f 	cdpcs	1, 3, cr3, cr5, cr15, {1}
    106c:	2f302e31 	svccs	0x00302e31
    1070:	6c636e69 	stclvs	14, cr6, [r3], #-420	@ 0xfffffe5c
    1074:	00656475 	rsbeq	r6, r5, r5, ror r4
    1078:	2f637273 	svccs	0x00637273
    107c:	5f6e6f6e 	svcpl	0x006e6f6e
    1080:	6f6e6163 	svcvs	0x006e6163
    1084:	7200006e 	andvc	r0, r0, #110	@ 0x6e
    1088:	69746e75 	ldmdbvs	r4!, {r0, r2, r4, r5, r6, r9, sl, fp, sp, lr}^
    108c:	632e656d 			@ <UNDEFINED> instruction: 0x632e656d
    1090:	00000100 	andeq	r0, r0, r0, lsl #2
    1094:	69647473 	stmdbvs	r4!, {r0, r1, r4, r5, r6, sl, ip, sp, lr}^
    1098:	672d746e 	strvs	r7, [sp, -lr, ror #8]!
    109c:	682e6363 	stmdavs	lr!, {r0, r1, r5, r6, r8, r9, sp, lr}
    10a0:	00000200 	andeq	r0, r0, r0, lsl #4
    10a4:	746e7572 	strbtvc	r7, [lr], #-1394	@ 0xfffffa8e
    10a8:	2e656d69 	cdpcs	13, 6, cr6, cr5, cr9, {3}
    10ac:	00010068 	andeq	r0, r1, r8, rrx
    10b0:	746e6900 	strbtvc	r6, [lr], #-2304	@ 0xfffff700
    10b4:	0300682e 	tsteq	r0, #3014656	@ 0x2e0000
    10b8:	05000000 	streq	r0, [r0, #-0]
    10bc:	02050018 	andeq	r0, r5, #24
    10c0:	08001cdc 	stmdaeq	r0, {r2, r3, r4, r6, r7, sl, fp, ip}
    10c4:	05010903 	streq	r0, [r1, #-2307]	@ 0xfffff6fd
    10c8:	0c03061e 	stceq	6, cr0, [r3], {30}
    10cc:	03180501 	tsteq	r8, #4194304	@ 0x400000
    10d0:	02052e74 	andeq	r2, r5, #116, 28	@ 0x740
    10d4:	03056706 	tsteq	r5, #1572864	@ 0x180000
    10d8:	03050513 	tsteq	r5, #79691776	@ 0x4c00000
    10dc:	1105ba13 	tstne	r5, r3, lsl sl
    10e0:	0303052f 	tsteq	r3, #197132288	@ 0xbc00000
    10e4:	05050119 	streq	r0, [r5, #-281]	@ 0xfffffee7
    10e8:	052e5203 	streq	r5, [lr, #-515]!	@ 0xfffffdfd
    10ec:	05130603 	ldreq	r0, [r3, #-1539]	@ 0xfffff9fd
    10f0:	05350605 	ldreq	r0, [r5, #-1541]!	@ 0xfffff9fb
    10f4:	05302f11 	ldreq	r2, [r0, #-3857]!	@ 0xfffff0ef
    10f8:	0501061e 	streq	r0, [r1, #-1566]	@ 0xfffff9e2
    10fc:	03300611 	teqeq	r0, #17825792	@ 0x1100000
    1100:	302f2e76 	eorcc	r2, pc, r6, ror lr	@ <UNPREDICTABLE>
    1104:	23030505 	tstcs	r3, #20971520	@ 0x1400000
    1108:	1105472e 	tstne	r5, lr, lsr #14
    110c:	2a05052f 	bcs	1425d0 <_binary_assets_romhdr_bin_size+0x142511>
    1110:	052f1105 	streq	r1, [pc, #-261]!	@ 1013 <_binary_assets_romhdr_bin_size+0xf54>
    1114:	11052a05 	tstne	r5, r5, lsl #20
    1118:	2a05052f 	bcs	1425dc <_binary_assets_romhdr_bin_size+0x14251d>
    111c:	052f1105 	streq	r1, [pc, #-261]!	@ 101f <_binary_assets_romhdr_bin_size+0xf60>
    1120:	11052a05 	tstne	r5, r5, lsl #20
    1124:	2a05052f 	bcs	1425e8 <_binary_assets_romhdr_bin_size+0x142529>
    1128:	022f1105 	eoreq	r1, pc, #1073741825	@ 0x40000001
    112c:	01010006 	tsteq	r1, r6
    1130:	00000064 	andeq	r0, r0, r4, rrx
    1134:	00420003 	subeq	r0, r2, r3
    1138:	01020000 	mrseq	r0, (UNDEF: 2)
    113c:	000d0efb 			@ <UNDEFINED> instruction: 0x000d0efb
    1140:	01010101 	tsteq	r1, r1, lsl #2
    1144:	01000000 	mrseq	r0, (UNDEF: 0)
    1148:	73010000 	tstvc	r1, #0
    114c:	722f6372 	eorvc	r6, pc, #-939524095	@ 0xc8000001
    1150:	69746e75 	ldmdbvs	r4!, {r0, r2, r4, r5, r6, r9, sl, fp, sp, lr}^
    1154:	7300656d 	tstvc	r0, #457179136	@ 0x1b400000
    1158:	6e2f6372 	mcrvs	3, 1, r6, cr15, cr2, {3}
    115c:	635f6e6f 	cmpvs	pc, #1776	@ 0x6f0
    1160:	6e6f6e61 	cdpvs	14, 6, cr6, cr15, cr1, {3}
    1164:	61620000 	cmnvs	r2, r0
    1168:	656c7474 	strbvs	r7, [ip, #-1140]!	@ 0xfffffb8c
    116c:	0100632e 	tsteq	r0, lr, lsr #6
    1170:	72650000 	rsbvc	r0, r5, #0
    1174:	00682e72 	rsbeq	r2, r8, r2, ror lr
    1178:	00000002 	andeq	r0, r0, r2
    117c:	05001605 	streq	r1, [r0, #-1541]	@ 0xfffff9fb
    1180:	001d6c02 	andseq	r6, sp, r2, lsl #24
    1184:	05051708 	streq	r1, [r5, #-1800]	@ 0xfffff8f8
    1188:	06160513 			@ <UNDEFINED> instruction: 0x06160513
    118c:	2f050511 	svccs	0x00050511
    1190:	024b0105 	subeq	r0, fp, #1073741825	@ 0x40000001
    1194:	01010004 	tsteq	r1, r4
    1198:	00000064 	andeq	r0, r0, r4, rrx
    119c:	00420003 	subeq	r0, r2, r3
    11a0:	01020000 	mrseq	r0, (UNDEF: 2)
    11a4:	000d0efb 			@ <UNDEFINED> instruction: 0x000d0efb
    11a8:	01010101 	tsteq	r1, r1, lsl #2
    11ac:	01000000 	mrseq	r0, (UNDEF: 0)
    11b0:	73010000 	tstvc	r1, #0
    11b4:	722f6372 	eorvc	r6, pc, #-939524095	@ 0xc8000001
    11b8:	69746e75 	ldmdbvs	r4!, {r0, r2, r4, r5, r6, r9, sl, fp, sp, lr}^
    11bc:	7300656d 	tstvc	r0, #457179136	@ 0x1b400000
    11c0:	6e2f6372 	mcrvs	3, 1, r6, cr15, cr2, {3}
    11c4:	635f6e6f 	cmpvs	pc, #1776	@ 0x6f0
    11c8:	6e6f6e61 	cdpvs	14, 6, cr6, cr15, cr1, {3}
    11cc:	616e0000 	cmnvs	lr, r0
    11d0:	676e696d 	strbvs	r6, [lr, -sp, ror #18]!
    11d4:	0100632e 	tsteq	r0, lr, lsr #6
    11d8:	72650000 	rsbvc	r0, r5, #0
    11dc:	00682e72 	rsbeq	r2, r8, r2, ror lr
    11e0:	00000002 	andeq	r0, r0, r2
    11e4:	05001605 	streq	r1, [r0, #-1541]	@ 0xfffff9fb
    11e8:	001d8002 	andseq	r8, sp, r2
    11ec:	05051608 	streq	r1, [r5, #-1544]	@ 0xfffff9f8
    11f0:	06160513 			@ <UNDEFINED> instruction: 0x06160513
    11f4:	2f050511 	svccs	0x00050511
    11f8:	024b0105 	subeq	r0, fp, #1073741825	@ 0x40000001
    11fc:	01010004 	tsteq	r1, r4
    1200:	00000065 	andeq	r0, r0, r5, rrx
    1204:	00430003 	subeq	r0, r3, r3
    1208:	01020000 	mrseq	r0, (UNDEF: 2)
    120c:	000d0efb 			@ <UNDEFINED> instruction: 0x000d0efb
    1210:	01010101 	tsteq	r1, r1, lsl #2
    1214:	01000000 	mrseq	r0, (UNDEF: 0)
    1218:	73010000 	tstvc	r1, #0
    121c:	722f6372 	eorvc	r6, pc, #-939524095	@ 0xc8000001
    1220:	69746e75 	ldmdbvs	r4!, {r0, r2, r4, r5, r6, r9, sl, fp, sp, lr}^
    1224:	7300656d 	tstvc	r0, #457179136	@ 0x1b400000
    1228:	6e2f6372 	mcrvs	3, 1, r6, cr15, cr2, {3}
    122c:	635f6e6f 	cmpvs	pc, #1776	@ 0x6f0
    1230:	6e6f6e61 	cdpvs	14, 6, cr6, cr15, cr1, {3}
    1234:	6e730000 	cdpvs	0, 7, cr0, cr3, cr0, {0}
    1238:	796c7064 	stmdbvc	ip!, {r2, r5, r6, ip, sp, lr}^
    123c:	00632e72 	rsbeq	r2, r3, r2, ror lr
    1240:	65000001 	strvs	r0, [r0, #-1]
    1244:	682e7272 	stmdavs	lr!, {r1, r4, r5, r6, r9, ip, sp, lr}
    1248:	00000200 	andeq	r0, r0, r0, lsl #4
    124c:	00170500 	andseq	r0, r7, r0, lsl #10
    1250:	1d940205 	ldcne	2, cr0, [r4, #20]
    1254:	05160800 	ldreq	r0, [r6, #-2048]	@ 0xfffff800
    1258:	17051305 	strne	r1, [r5, -r5, lsl #6]
    125c:	05051106 	streq	r1, [r5, #-262]	@ 0xfffffefa
    1260:	4b01052f 	blmi	42724 <_binary_assets_romhdr_bin_size+0x42665>
    1264:	01000402 	tsteq	r0, r2, lsl #8
    1268:	00006b01 	andeq	r6, r0, r1, lsl #22
    126c:	49000300 	stmdbmi	r0, {r8, r9}
    1270:	02000000 	andeq	r0, r0, #0
    1274:	0d0efb01 	vstreq	d15, [lr, #-4]
    1278:	01010100 	mrseq	r0, (UNDEF: 17)
    127c:	00000001 	andeq	r0, r0, r1
    1280:	01000001 	tsteq	r0, r1
    1284:	2f637273 	svccs	0x00637273
    1288:	746e7572 	strbtvc	r7, [lr], #-1394	@ 0xfffffa8e
    128c:	00656d69 	rsbeq	r6, r5, r9, ror #26
    1290:	2f637273 	svccs	0x00637273
    1294:	5f6e6f6e 	svcpl	0x006e6f6e
    1298:	6f6e6163 	svcvs	0x006e6163
    129c:	6600006e 	strvs	r0, [r0], -lr, rrx
    12a0:	69645f74 	stmdbvs	r4!, {r2, r4, r5, r6, r8, r9, sl, fp, ip, lr}^
    12a4:	616c6373 	cmnvs	ip, r3, ror r3
    12a8:	72656d69 	rsbvc	r6, r5, #6720	@ 0x1a40
    12ac:	0100632e 	tsteq	r0, lr, lsr #6
    12b0:	72650000 	rsbvc	r0, r5, #0
    12b4:	00682e72 	rsbeq	r2, r8, r2, ror lr
    12b8:	00000002 	andeq	r0, r0, r2
    12bc:	05001d05 	streq	r1, [r0, #-3333]	@ 0xfffff2fb
    12c0:	001da802 	andseq	sl, sp, r2, lsl #16
    12c4:	05051608 	streq	r1, [r5, #-1544]	@ 0xfffff9f8
    12c8:	061d0513 			@ <UNDEFINED> instruction: 0x061d0513
    12cc:	2f050511 	svccs	0x00050511
    12d0:	024b0105 	subeq	r0, fp, #1073741825	@ 0x40000001
    12d4:	01010004 	tsteq	r1, r4
    12d8:	00000067 	andeq	r0, r0, r7, rrx
    12dc:	00450003 	subeq	r0, r5, r3
    12e0:	01020000 	mrseq	r0, (UNDEF: 2)
    12e4:	000d0efb 			@ <UNDEFINED> instruction: 0x000d0efb
    12e8:	01010101 	tsteq	r1, r1, lsl #2
    12ec:	01000000 	mrseq	r0, (UNDEF: 0)
    12f0:	73010000 	tstvc	r1, #0
    12f4:	722f6372 	eorvc	r6, pc, #-939524095	@ 0xc8000001
    12f8:	69746e75 	ldmdbvs	r4!, {r0, r2, r4, r5, r6, r9, sl, fp, sp, lr}^
    12fc:	7300656d 	tstvc	r0, #457179136	@ 0x1b400000
    1300:	6e2f6372 	mcrvs	3, 1, r6, cr15, cr2, {3}
    1304:	635f6e6f 	cmpvs	pc, #1776	@ 0x6f0
    1308:	6e6f6e61 	cdpvs	14, 6, cr6, cr15, cr1, {3}
    130c:	616d0000 	cmnvs	sp, r0
    1310:	6d5f6e69 	ldclvs	14, cr6, [pc, #-420]	@ 1174 <_binary_assets_romhdr_bin_size+0x10b5>
    1314:	2e756e65 	cdpcs	14, 7, cr6, cr5, cr5, {3}
    1318:	00010063 	andeq	r0, r1, r3, rrx
    131c:	72726500 	rsbsvc	r6, r2, #0, 10
    1320:	0200682e 	andeq	r6, r0, #3014656	@ 0x2e0000
    1324:	05000000 	streq	r0, [r0, #-0]
    1328:	02050019 	andeq	r0, r5, #25
    132c:	08001dbc 	stmdaeq	r0, {r2, r3, r4, r5, r7, r8, sl, fp, ip}
    1330:	13050516 	tstne	r5, #92274688	@ 0x5800000
    1334:	11061905 	tstne	r6, r5, lsl #18
    1338:	052f0505 	streq	r0, [pc, #-1285]!	@ e3b <_binary_assets_romhdr_bin_size+0xd7c>
    133c:	04024b01 	streq	r4, [r2], #-2817	@ 0xfffff4ff
    1340:	62010100 	andvs	r0, r1, #0, 2
    1344:	03000000 	tsteq	r0, #0
    1348:	00004000 	andeq	r4, r0, r0
    134c:	fb010200 			@ <UNDEFINED> instruction: 0xfb010200
    1350:	01000d0e 	tsteq	r0, lr, lsl #26
    1354:	00010101 	andeq	r0, r1, r1, lsl #2
    1358:	00010000 	andeq	r0, r1, r0
    135c:	72730100 	rsbsvc	r0, r3, #0, 2
    1360:	75722f63 	ldrbvc	r2, [r2, #-3939]!	@ 0xfffff09d
    1364:	6d69746e 	stclvs	4, cr7, [r9, #-440]!	@ 0xfffffe48
    1368:	72730065 	rsbsvc	r0, r3, #101	@ 0x65
    136c:	6f6e2f63 	svcvs	0x006e2f63
    1370:	61635f6e 	cmnvs	r3, lr, ror #30
    1374:	006e6f6e 	rsbeq	r6, lr, lr, ror #30
    1378:	6e656d00 	cdpvs	13, 6, cr6, cr5, cr0, {0}
    137c:	00632e75 	rsbeq	r2, r3, r5, ror lr
    1380:	65000001 	strvs	r0, [r0, #-1]
    1384:	682e7272 	stmdavs	lr!, {r1, r4, r5, r6, r9, ip, sp, lr}
    1388:	00000200 	andeq	r0, r0, r0, lsl #4
    138c:	00140500 	andseq	r0, r4, r0, lsl #10
    1390:	1dd00205 	ldclne	2, cr0, [r0, #20]
    1394:	05160800 	ldreq	r0, [r6, #-2048]	@ 0xfffff800
    1398:	14051305 	strne	r1, [r5], #-773	@ 0xfffffcfb
    139c:	05051106 	streq	r1, [r5, #-262]	@ 0xfffffefa
    13a0:	4b01052f 	blmi	42864 <_binary_assets_romhdr_bin_size+0x427a5>
    13a4:	01000402 	tsteq	r0, r2, lsl #8
    13a8:	00006501 	andeq	r6, r0, r1, lsl #10
    13ac:	43000300 	tstmi	r0, #0, 6
    13b0:	02000000 	andeq	r0, r0, #0
    13b4:	0d0efb01 	vstreq	d15, [lr, #-4]
    13b8:	01010100 	mrseq	r0, (UNDEF: 17)
    13bc:	00000001 	andeq	r0, r0, r1
    13c0:	01000001 	tsteq	r0, r1
    13c4:	2f637273 	svccs	0x00637273
    13c8:	746e7572 	strbtvc	r7, [lr], #-1394	@ 0xfffffa8e
    13cc:	00656d69 	rsbeq	r6, r5, r9, ror #26
    13d0:	2f637273 	svccs	0x00637273
    13d4:	5f6e6f6e 	svcpl	0x006e6f6e
    13d8:	6f6e6163 	svcvs	0x006e6163
    13dc:	6300006e 	tstvs	r0, #110	@ 0x6e
    13e0:	69646572 	stmdbvs	r4!, {r1, r4, r5, r6, r8, sl, sp, lr}^
    13e4:	632e7374 			@ <UNDEFINED> instruction: 0x632e7374
    13e8:	00000100 	andeq	r0, r0, r0, lsl #2
    13ec:	2e727265 	cdpcs	2, 7, cr7, cr2, cr5, {3}
    13f0:	00020068 	andeq	r0, r2, r8, rrx
    13f4:	17050000 	strne	r0, [r5, -r0]
    13f8:	e4020500 	str	r0, [r2], #-1280	@ 0xfffffb00
    13fc:	1608001d 			@ <UNDEFINED> instruction: 0x1608001d
    1400:	05130505 	ldreq	r0, [r3, #-1285]	@ 0xfffffafb
    1404:	05110617 	ldreq	r0, [r1, #-1559]	@ 0xfffff9e9
    1408:	01052f05 	tsteq	r5, r5, lsl #30
    140c:	0004024b 	andeq	r0, r4, fp, asr #4
    1410:	017a0101 	cmneq	sl, r1, lsl #2
    1414:	00030000 	andeq	r0, r3, r0
    1418:	00000153 	andeq	r0, r0, r3, asr r1
    141c:	0efb0102 	cdpeq	1, 15, cr0, cr11, cr2, {0}
    1420:	0101000d 	tsteq	r1, sp
    1424:	00000101 	andeq	r0, r0, r1, lsl #2
    1428:	00000100 	andeq	r0, r0, r0, lsl #2
    142c:	6f682f01 	svcvs	0x00682f01
    1430:	642f656d 	strtvs	r6, [pc], #-1389	@ 1438 <_binary_assets_romhdr_bin_size+0x1379>
    1434:	6d657661 	stclvs	6, cr7, [r5, #-388]!	@ 0xfffffe7c
    1438:	6f72702f 	svcvs	0x0072702f
    143c:	7463656a 	strbtvc	r6, [r3], #-1386	@ 0xfffffa96
    1440:	65642f73 	strbvs	r2, [r4, #-3955]!	@ 0xfffff08d
    1444:	74696b76 	strbtvc	r6, [r9], #-2934	@ 0xfffff48a
    1448:	2f6f7270 	svccs	0x006f7270
    144c:	6d636170 	stclvs	1, cr6, [r3, #-448]!	@ 0xfffffe40
    1450:	702d6e61 	eorvc	r6, sp, r1, ror #28
    1454:	616b6361 	cmnvs	fp, r1, ror #6
    1458:	2f736567 	svccs	0x00736567
    145c:	6762696c 	strbvs	r6, [r2, -ip, ror #18]!
    1460:	732f6162 			@ <UNDEFINED> instruction: 0x732f6162
    1464:	6c2f6372 	stcvs	3, cr6, [pc], #-456	@ 12a4 <_binary_assets_romhdr_bin_size+0x11e5>
    1468:	62676269 	rsbvs	r6, r7, #-1879048186	@ 0x90000006
    146c:	2e302d61 	cdpcs	13, 3, cr2, cr0, cr1, {3}
    1470:	2f342e35 	svccs	0x00342e35
    1474:	00637273 	rsbeq	r7, r3, r3, ror r2
    1478:	74706f2f 	ldrbtvc	r6, [r0], #-3887	@ 0xfffff0d1
    147c:	7665642f 	strbtvc	r6, [r5], -pc, lsr #8
    1480:	7074696b 	rsbsvc	r6, r4, fp, ror #18
    1484:	642f6f72 	strtvs	r6, [pc], #-3954	@ 148c <_binary_assets_romhdr_bin_size+0x13cd>
    1488:	696b7665 	stmdbvs	fp!, {r0, r2, r5, r6, r9, sl, ip, sp, lr}^
    148c:	4d524174 	ldclmi	1, cr4, [r2, #-464]	@ 0xfffffe30
    1490:	6d72612f 	ldclvs	1, cr6, [r2, #-188]!	@ 0xffffff44
    1494:	6e6f6e2d 	cdpvs	14, 6, cr6, cr15, cr13, {1}
    1498:	61652d65 	cmnvs	r5, r5, ror #26
    149c:	692f6962 	stmdbvs	pc!, {r1, r5, r6, r8, fp, sp, lr}	@ <UNPREDICTABLE>
    14a0:	756c636e 	strbvc	r6, [ip, #-878]!	@ 0xfffffc92
    14a4:	6d2f6564 	stcvs	5, cr6, [pc, #-400]!	@ 131c <_binary_assets_romhdr_bin_size+0x125d>
    14a8:	69686361 	stmdbvs	r8!, {r0, r5, r6, r8, r9, sp, lr}^
    14ac:	2f00656e 	svccs	0x0000656e
    14b0:	2f74706f 	svccs	0x0074706f
    14b4:	6b766564 	blvs	1d9aa4c <_binary_assets_romhdr_bin_size+0x1d9a98d>
    14b8:	72707469 	rsbsvc	r7, r0, #1761607680	@ 0x69000000
    14bc:	65642f6f 	strbvs	r2, [r4, #-3951]!	@ 0xfffff091
    14c0:	74696b76 	strbtvc	r6, [r9], #-2934	@ 0xfffff48a
    14c4:	2f4d5241 	svccs	0x004d5241
    14c8:	2d6d7261 	stclcs	2, cr7, [sp, #-388]!	@ 0xfffffe7c
    14cc:	656e6f6e 	strbvs	r6, [lr, #-3950]!	@ 0xfffff092
    14d0:	6261652d 	rsbvs	r6, r1, #188743680	@ 0xb400000
    14d4:	6e692f69 	cdpvs	15, 6, cr2, cr9, cr9, {3}
    14d8:	64756c63 	ldrbtvs	r6, [r5], #-3171	@ 0xfffff39d
    14dc:	79732f65 	ldmdbvc	r3!, {r0, r2, r5, r6, r8, r9, sl, fp, sp}^
    14e0:	682f0073 	stmdavs	pc!, {r0, r1, r4, r5, r6}	@ <UNPREDICTABLE>
    14e4:	2f656d6f 	svccs	0x00656d6f
    14e8:	65766164 	ldrbvs	r6, [r6, #-356]!	@ 0xfffffe9c
    14ec:	72702f6d 	rsbsvc	r2, r0, #436	@ 0x1b4
    14f0:	63656a6f 	cmnvs	r5, #454656	@ 0x6f000
    14f4:	642f7374 	strtvs	r7, [pc], #-884	@ 14fc <_binary_assets_romhdr_bin_size+0x143d>
    14f8:	696b7665 	stmdbvs	fp!, {r0, r2, r5, r6, r9, sl, ip, sp, lr}^
    14fc:	6f727074 	svcvs	0x00727074
    1500:	6361702f 	cmnvs	r1, #47	@ 0x2f
    1504:	2d6e616d 	stclcs	1, cr6, [lr, #-436]!	@ 0xfffffe4c
    1508:	6b636170 	blvs	18d9ad0 <_binary_assets_romhdr_bin_size+0x18d9a11>
    150c:	73656761 	cmnvc	r5, #25427968	@ 0x1840000
    1510:	62696c2f 	rsbvs	r6, r9, #12032	@ 0x2f00
    1514:	2f616267 	svccs	0x00616267
    1518:	2f637273 	svccs	0x00637273
    151c:	6762696c 	strbvs	r6, [r2, -ip, ror #18]!
    1520:	302d6162 	eorcc	r6, sp, r2, ror #2
    1524:	342e352e 	strtcc	r3, [lr], #-1326	@ 0xfffffad2
    1528:	636e692f 	cmnvs	lr, #770048	@ 0xbc000
    152c:	6564756c 	strbvs	r7, [r4, #-1388]!	@ 0xfffffa94
    1530:	70430000 	subvc	r0, r3, r0
    1534:	74655375 	strbtvc	r5, [r5], #-885	@ 0xfffffc8b
    1538:	0100632e 	tsteq	r0, lr, lsr #6
    153c:	645f0000 	ldrbvs	r0, [pc], #-0	@ 1544 <_binary_assets_romhdr_bin_size+0x1485>
    1540:	75616665 	strbvc	r6, [r1, #-1637]!	@ 0xfffff99b
    1544:	745f746c 	ldrbvc	r7, [pc], #-1132	@ 154c <_binary_assets_romhdr_bin_size+0x148d>
    1548:	73657079 	cmnvc	r5, #121	@ 0x79
    154c:	0200682e 	andeq	r6, r0, #3014656	@ 0x2e0000
    1550:	735f0000 	cmpvc	pc, #0
    1554:	6e696474 	mcrvs	4, 3, r6, cr9, cr4, {3}
    1558:	00682e74 	rsbeq	r2, r8, r4, ror lr
    155c:	67000003 	strvs	r0, [r0, -r3]
    1560:	745f6162 	ldrbvc	r6, [pc], #-354	@ 1568 <_binary_assets_romhdr_bin_size+0x14a9>
    1564:	73657079 	cmnvc	r5, #121	@ 0x79
    1568:	0400682e 	streq	r6, [r0], #-2094	@ 0xfffff7d2
    156c:	05000000 	streq	r0, [r0, #-0]
    1570:	02050001 	andeq	r0, r5, #1
    1574:	08001df8 	stmdaeq	r0, {r3, r4, r5, r6, r7, r8, sl, fp, ip}
    1578:	05011f03 	streq	r1, [r1, #-3843]	@ 0xfffff0fd
    157c:	01051302 	tsteq	r5, r2, lsl #6
    1580:	25062106 	strcs	r2, [r6, #-262]	@ 0xfffffefa
    1584:	05130205 	ldreq	r0, [r3, #-517]	@ 0xfffffdfb
    1588:	02210601 	eoreq	r0, r1, #1048576	@ 0x100000
    158c:	01010001 	tsteq	r1, r1
    1590:	0000094c 	andeq	r0, r0, ip, asr #18
    1594:	01780003 	cmneq	r8, r3
    1598:	01020000 	mrseq	r0, (UNDEF: 2)
    159c:	000d0efb 			@ <UNDEFINED> instruction: 0x000d0efb
    15a0:	01010101 	tsteq	r1, r1, lsl #2
    15a4:	01000000 	mrseq	r0, (UNDEF: 0)
    15a8:	2f010000 	svccs	0x00010000
    15ac:	656d6f68 	strbvs	r6, [sp, #-3944]!	@ 0xfffff098
    15b0:	7661642f 	strbtvc	r6, [r1], -pc, lsr #8
    15b4:	702f6d65 	eorvc	r6, pc, r5, ror #26
    15b8:	656a6f72 	strbvs	r6, [sl, #-3954]!	@ 0xfffff08e
    15bc:	2f737463 	svccs	0x00737463
    15c0:	6b766564 	blvs	1d9ab58 <_binary_assets_romhdr_bin_size+0x1d9aa99>
    15c4:	72707469 	rsbsvc	r7, r0, #1761607680	@ 0x69000000
    15c8:	61702f6f 	cmnvs	r0, pc, ror #30
    15cc:	6e616d63 	cdpvs	13, 6, cr6, cr1, cr3, {3}
    15d0:	6361702d 	cmnvs	r1, #45	@ 0x2d
    15d4:	6567616b 	strbvs	r6, [r7, #-363]!	@ 0xfffffe95
    15d8:	696c2f73 	stmdbvs	ip!, {r0, r1, r4, r5, r6, r8, r9, sl, fp, sp}^
    15dc:	61626762 	cmnvs	r2, r2, ror #14
    15e0:	6372732f 	cmnvs	r2, #-1140850688	@ 0xbc000000
    15e4:	62696c2f 	rsbvs	r6, r9, #12032	@ 0x2f00
    15e8:	2d616267 	stclcs	2, cr6, [r1, #-412]!	@ 0xfffffe64
    15ec:	2e352e30 	mrccs	14, 1, r2, cr5, cr0, {1}
    15f0:	72732f34 	rsbsvc	r2, r3, #52, 30	@ 0xd0
    15f4:	6f2f0063 	svcvs	0x002f0063
    15f8:	642f7470 	strtvs	r7, [pc], #-1136	@ 1600 <_binary_assets_romhdr_bin_size+0x1541>
    15fc:	696b7665 	stmdbvs	fp!, {r0, r2, r5, r6, r9, sl, ip, sp, lr}^
    1600:	6f727074 	svcvs	0x00727074
    1604:	7665642f 	strbtvc	r6, [r5], -pc, lsr #8
    1608:	4174696b 	cmnmi	r4, fp, ror #18
    160c:	612f4d52 			@ <UNDEFINED> instruction: 0x612f4d52
    1610:	6e2d6d72 	mcrvs	13, 1, r6, cr13, cr2, {3}
    1614:	2d656e6f 	stclcs	14, cr6, [r5, #-444]!	@ 0xfffffe44
    1618:	69626165 	stmdbvs	r2!, {r0, r2, r5, r6, r8, sp, lr}^
    161c:	636e692f 	cmnvs	lr, #770048	@ 0xbc000
    1620:	6564756c 	strbvs	r7, [r4, #-1388]!	@ 0xfffffa94
    1624:	63616d2f 	cmnvs	r1, #3008	@ 0xbc0
    1628:	656e6968 	strbvs	r6, [lr, #-2408]!	@ 0xfffff698
    162c:	706f2f00 	rsbvc	r2, pc, r0, lsl #30
    1630:	65642f74 	strbvs	r2, [r4, #-3956]!	@ 0xfffff08c
    1634:	74696b76 	strbtvc	r6, [r9], #-2934	@ 0xfffff48a
    1638:	2f6f7270 	svccs	0x006f7270
    163c:	6b766564 	blvs	1d9abd4 <_binary_assets_romhdr_bin_size+0x1d9ab15>
    1640:	52417469 	subpl	r7, r1, #1761607680	@ 0x69000000
    1644:	72612f4d 	rsbvc	r2, r1, #308	@ 0x134
    1648:	6f6e2d6d 	svcvs	0x006e2d6d
    164c:	652d656e 	strvs	r6, [sp, #-1390]!	@ 0xfffffa92
    1650:	2f696261 	svccs	0x00696261
    1654:	6c636e69 	stclvs	14, cr6, [r3], #-420	@ 0xfffffe5c
    1658:	2f656475 	svccs	0x00656475
    165c:	00737973 	rsbseq	r7, r3, r3, ror r9
    1660:	6d6f682f 	stclvs	8, cr6, [pc, #-188]!	@ 15ac <_binary_assets_romhdr_bin_size+0x14ed>
    1664:	61642f65 	cmnvs	r4, r5, ror #30
    1668:	2f6d6576 	svccs	0x006d6576
    166c:	6a6f7270 	bvs	1bde034 <_binary_assets_romhdr_bin_size+0x1bddf75>
    1670:	73746365 	cmnvc	r4, #-1811939327	@ 0x94000001
    1674:	7665642f 	strbtvc	r6, [r5], -pc, lsr #8
    1678:	7074696b 	rsbsvc	r6, r4, fp, ror #18
    167c:	702f6f72 	eorvc	r6, pc, r2, ror pc	@ <UNPREDICTABLE>
    1680:	616d6361 	cmnvs	sp, r1, ror #6
    1684:	61702d6e 	cmnvs	r0, lr, ror #26
    1688:	67616b63 	strbvs	r6, [r1, -r3, ror #22]!
    168c:	6c2f7365 	stcvs	3, cr7, [pc], #-404	@ 1500 <_binary_assets_romhdr_bin_size+0x1441>
    1690:	62676269 	rsbvs	r6, r7, #-1879048186	@ 0x90000006
    1694:	72732f61 	rsbsvc	r2, r3, #388	@ 0x184
    1698:	696c2f63 	stmdbvs	ip!, {r0, r1, r5, r6, r8, r9, sl, fp, sp}^
    169c:	61626762 	cmnvs	r2, r2, ror #14
    16a0:	352e302d 	strcc	r3, [lr, #-45]!	@ 0xffffffd3
    16a4:	692f342e 	stmdbvs	pc!, {r1, r2, r3, r5, sl, ip, sp}	@ <UNPREDICTABLE>
    16a8:	756c636e 	strbvc	r6, [ip, #-878]!	@ 0xfffffc92
    16ac:	00006564 	andeq	r6, r0, r4, ror #10
    16b0:	65746e69 	ldrbvs	r6, [r4, #-3689]!	@ 0xfffff197
    16b4:	70757272 	rsbsvc	r7, r5, r2, ror r2
    16b8:	00632e74 	rsbeq	r2, r3, r4, ror lr
    16bc:	5f000001 	svcpl	0x00000001
    16c0:	61666564 	cmnvs	r6, r4, ror #10
    16c4:	5f746c75 	svcpl	0x00746c75
    16c8:	65707974 	ldrbvs	r7, [r0, #-2420]!	@ 0xfffff68c
    16cc:	00682e73 	rsbeq	r2, r8, r3, ror lr
    16d0:	5f000002 	svcpl	0x00000002
    16d4:	69647473 	stmdbvs	r4!, {r0, r1, r4, r5, r6, sl, ip, sp, lr}^
    16d8:	682e746e 	stmdavs	lr!, {r1, r2, r3, r5, r6, sl, ip, sp, lr}
    16dc:	00000300 	andeq	r0, r0, r0, lsl #6
    16e0:	5f616267 	svcpl	0x00616267
    16e4:	65707974 	ldrbvs	r7, [r0, #-2420]!	@ 0xfffff68c
    16e8:	00682e73 	rsbeq	r2, r8, r3, ror lr
    16ec:	67000004 	strvs	r0, [r0, -r4]
    16f0:	695f6162 	ldmdbvs	pc, {r1, r5, r6, r8, sp, lr}^	@ <UNPREDICTABLE>
    16f4:	7265746e 	rsbvc	r7, r5, #1845493760	@ 0x6e000000
    16f8:	74707572 	ldrbtvc	r7, [r0], #-1394	@ 0xfffffa8e
    16fc:	0400682e 	streq	r6, [r0], #-2094	@ 0xfffff7d2
    1700:	62670000 	rsbvs	r0, r7, #0
    1704:	69765f61 	ldmdbvs	r6!, {r0, r5, r6, r8, r9, sl, fp, ip, lr}^
    1708:	2e6f6564 	cdpcs	5, 6, cr6, cr15, cr4, {3}
    170c:	00040068 	andeq	r0, r4, r8, rrx
    1710:	12050000 	andne	r0, r5, #0
    1714:	00020500 	andeq	r0, r2, r0, lsl #10
    1718:	0308001e 	tsteq	r8, #30
    171c:	1305011f 	tstne	r5, #-1073741817	@ 0xc0000007
    1720:	321a0501 	andscc	r0, sl, #4194304	@ 0x400000
    1724:	05140205 	ldreq	r0, [r4, #-517]	@ 0xfffffdfb
    1728:	02051606 	andeq	r1, r5, #6291456	@ 0x600000
    172c:	0f051514 	svceq	0x00051514
    1730:	01040200 	mrseq	r0, R12_usr
    1734:	14030501 	strne	r0, [r3], #-1281	@ 0xfffffaff
    1738:	13061505 	tstne	r6, #20971520	@ 0x1400000
    173c:	75030105 	strvc	r0, [r3, #-261]	@ 0xfffffefb
    1740:	03180520 	tsteq	r8, #32, 10	@ 0x8000000
    1744:	1505010a 	strne	r0, [r5, #-266]	@ 0xfffffef6
    1748:	1f18052f 	svcne	0x0018052f
    174c:	21060305 	tstcs	r6, r5, lsl #6
    1750:	02001d05 	andeq	r1, r0, #320	@ 0x140
    1754:	050f0304 	streq	r0, [pc, #-772]	@ 1458 <_binary_assets_romhdr_bin_size+0x1399>
    1758:	0402000f 	streq	r0, [r2], #-15
    175c:	03050101 	tsteq	r5, #1073741824	@ 0x40000000
    1760:	06180514 			@ <UNDEFINED> instruction: 0x06180514
    1764:	06030501 	streq	r0, [r3], -r1, lsl #10
    1768:	06150521 	ldreq	r0, [r5], -r1, lsr #10
    176c:	001d0501 	andseq	r0, sp, r1, lsl #10
    1770:	06030402 	streq	r0, [r3], -r2, lsl #8
    1774:	000f051d 	andeq	r0, pc, sp, lsl r5	@ <UNPREDICTABLE>
    1778:	01010402 	tsteq	r1, r2, lsl #8
    177c:	05140305 	ldreq	r0, [r4, #-773]	@ 0xfffffcfb
    1780:	05010618 	streq	r0, [r1, #-1560]	@ 0xfffff9e8
    1784:	05210603 	streq	r0, [r1, #-1539]!	@ 0xfffff9fd
    1788:	05010615 	streq	r0, [r1, #-1557]	@ 0xfffff9eb
    178c:	0402001d 	streq	r0, [r2], #-29	@ 0xffffffe3
    1790:	051d0603 	ldreq	r0, [sp, #-1539]	@ 0xfffff9fd
    1794:	0402000f 	streq	r0, [r2], #-15
    1798:	03050101 	tsteq	r5, #1073741824	@ 0x40000000
    179c:	06180514 			@ <UNDEFINED> instruction: 0x06180514
    17a0:	06030501 	streq	r0, [r3], -r1, lsl #10
    17a4:	06150521 	ldreq	r0, [r5], -r1, lsr #10
    17a8:	001d0501 	andseq	r0, sp, r1, lsl #10
    17ac:	06030402 	streq	r0, [r3], -r2, lsl #8
    17b0:	000f051d 	andeq	r0, pc, sp, lsl r5	@ <UNPREDICTABLE>
    17b4:	01010402 	tsteq	r1, r2, lsl #8
    17b8:	05140305 	ldreq	r0, [r4, #-773]	@ 0xfffffcfb
    17bc:	05010618 	streq	r0, [r1, #-1560]	@ 0xfffff9e8
    17c0:	05210603 	streq	r0, [r1, #-1539]!	@ 0xfffff9fd
    17c4:	05010615 	streq	r0, [r1, #-1557]	@ 0xfffff9eb
    17c8:	0402001d 	streq	r0, [r2], #-29	@ 0xffffffe3
    17cc:	051d0603 	ldreq	r0, [sp, #-1539]	@ 0xfffff9fd
    17d0:	0402000f 	streq	r0, [r2], #-15
    17d4:	03050101 	tsteq	r5, #1073741824	@ 0x40000000
    17d8:	06180514 			@ <UNDEFINED> instruction: 0x06180514
    17dc:	06030501 	streq	r0, [r3], -r1, lsl #10
    17e0:	06150521 	ldreq	r0, [r5], -r1, lsr #10
    17e4:	001d0501 	andseq	r0, sp, r1, lsl #10
    17e8:	06030402 	streq	r0, [r3], -r2, lsl #8
    17ec:	000f051d 	andeq	r0, pc, sp, lsl r5	@ <UNPREDICTABLE>
    17f0:	01010402 	tsteq	r1, r2, lsl #8
    17f4:	05140305 	ldreq	r0, [r4, #-773]	@ 0xfffffcfb
    17f8:	05010618 	streq	r0, [r1, #-1560]	@ 0xfffff9e8
    17fc:	05210603 	streq	r0, [r1, #-1539]!	@ 0xfffff9fd
    1800:	05010615 	streq	r0, [r1, #-1557]	@ 0xfffff9eb
    1804:	0402001d 	streq	r0, [r2], #-29	@ 0xffffffe3
    1808:	051d0603 	ldreq	r0, [sp, #-1539]	@ 0xfffff9fd
    180c:	0402000f 	streq	r0, [r2], #-15
    1810:	03050101 	tsteq	r5, #1073741824	@ 0x40000000
    1814:	06180514 			@ <UNDEFINED> instruction: 0x06180514
    1818:	06030501 	streq	r0, [r3], -r1, lsl #10
    181c:	06150521 	ldreq	r0, [r5], -r1, lsr #10
    1820:	001d0501 	andseq	r0, sp, r1, lsl #10
    1824:	06030402 	streq	r0, [r3], -r2, lsl #8
    1828:	000f051d 	andeq	r0, pc, sp, lsl r5	@ <UNPREDICTABLE>
    182c:	01010402 	tsteq	r1, r2, lsl #8
    1830:	05140305 	ldreq	r0, [r4, #-773]	@ 0xfffffcfb
    1834:	05010618 	streq	r0, [r1, #-1560]	@ 0xfffff9e8
    1838:	05210603 	streq	r0, [r1, #-1539]!	@ 0xfffff9fd
    183c:	05010615 	streq	r0, [r1, #-1557]	@ 0xfffff9eb
    1840:	0402001d 	streq	r0, [r2], #-29	@ 0xffffffe3
    1844:	051d0603 	ldreq	r0, [sp, #-1539]	@ 0xfffff9fd
    1848:	0402000f 	streq	r0, [r2], #-15
    184c:	03050101 	tsteq	r5, #1073741824	@ 0x40000000
    1850:	06180514 			@ <UNDEFINED> instruction: 0x06180514
    1854:	06030501 	streq	r0, [r3], -r1, lsl #10
    1858:	06150521 	ldreq	r0, [r5], -r1, lsr #10
    185c:	001d0501 	andseq	r0, sp, r1, lsl #10
    1860:	06030402 	streq	r0, [r3], -r2, lsl #8
    1864:	000f051d 	andeq	r0, pc, sp, lsl r5	@ <UNPREDICTABLE>
    1868:	01010402 	tsteq	r1, r2, lsl #8
    186c:	05140305 	ldreq	r0, [r4, #-773]	@ 0xfffffcfb
    1870:	05010618 	streq	r0, [r1, #-1560]	@ 0xfffff9e8
    1874:	05210603 	streq	r0, [r1, #-1539]!	@ 0xfffff9fd
    1878:	05010615 	streq	r0, [r1, #-1557]	@ 0xfffff9eb
    187c:	0402001d 	streq	r0, [r2], #-29	@ 0xffffffe3
    1880:	051d0603 	ldreq	r0, [sp, #-1539]	@ 0xfffff9fd
    1884:	0402000f 	streq	r0, [r2], #-15
    1888:	03050101 	tsteq	r5, #1073741824	@ 0x40000000
    188c:	06180514 			@ <UNDEFINED> instruction: 0x06180514
    1890:	06030501 	streq	r0, [r3], -r1, lsl #10
    1894:	06150521 	ldreq	r0, [r5], -r1, lsr #10
    1898:	001d0501 	andseq	r0, sp, r1, lsl #10
    189c:	06030402 	streq	r0, [r3], -r2, lsl #8
    18a0:	000f051d 	andeq	r0, pc, sp, lsl r5	@ <UNPREDICTABLE>
    18a4:	01010402 	tsteq	r1, r2, lsl #8
    18a8:	05140305 	ldreq	r0, [r4, #-773]	@ 0xfffffcfb
    18ac:	05010618 	streq	r0, [r1, #-1560]	@ 0xfffff9e8
    18b0:	05210603 	streq	r0, [r1, #-1539]!	@ 0xfffff9fd
    18b4:	05010615 	streq	r0, [r1, #-1557]	@ 0xfffff9eb
    18b8:	0402001d 	streq	r0, [r2], #-29	@ 0xffffffe3
    18bc:	051d0603 	ldreq	r0, [sp, #-1539]	@ 0xfffff9fd
    18c0:	0402000f 	streq	r0, [r2], #-15
    18c4:	03050101 	tsteq	r5, #1073741824	@ 0x40000000
    18c8:	06180514 			@ <UNDEFINED> instruction: 0x06180514
    18cc:	06030501 	streq	r0, [r3], -r1, lsl #10
    18d0:	06150521 	ldreq	r0, [r5], -r1, lsr #10
    18d4:	001d0501 	andseq	r0, sp, r1, lsl #10
    18d8:	06030402 	streq	r0, [r3], -r2, lsl #8
    18dc:	000f051d 	andeq	r0, pc, sp, lsl r5	@ <UNPREDICTABLE>
    18e0:	01010402 	tsteq	r1, r2, lsl #8
    18e4:	05140305 	ldreq	r0, [r4, #-773]	@ 0xfffffcfb
    18e8:	05010618 	streq	r0, [r1, #-1560]	@ 0xfffff9e8
    18ec:	05210603 	streq	r0, [r1, #-1539]!	@ 0xfffff9fd
    18f0:	05010615 	streq	r0, [r1, #-1557]	@ 0xfffff9eb
    18f4:	0402001d 	streq	r0, [r2], #-29	@ 0xffffffe3
    18f8:	051d0603 	ldreq	r0, [sp, #-1539]	@ 0xfffff9fd
    18fc:	0402000f 	streq	r0, [r2], #-15
    1900:	02050101 	andeq	r0, r5, #1073741824	@ 0x40000000
    1904:	060d0518 			@ <UNDEFINED> instruction: 0x060d0518
    1908:	01053c01 	tsteq	r5, r1, lsl #24
    190c:	05017203 	streq	r7, [r1, #-515]	@ 0xfffffdfd
    1910:	05a10610 	streq	r0, [r1, #1552]!	@ 0x610
    1914:	05151402 	ldreq	r1, [r5, #-1026]	@ 0xfffffbfe
    1918:	0402000f 	streq	r0, [r2], #-15
    191c:	03050101 	tsteq	r5, #1073741824	@ 0x40000000
    1920:	06150514 			@ <UNDEFINED> instruction: 0x06150514
    1924:	24010513 	strcs	r0, [r1], #-1299	@ 0xfffffaed
    1928:	050d1805 	streq	r1, [sp, #-2053]	@ 0xfffff7fb
    192c:	18052f15 	stmdane	r5, {r0, r2, r4, r8, r9, sl, fp, sp}
    1930:	0603051f 			@ <UNDEFINED> instruction: 0x0603051f
    1934:	001d0521 	andseq	r0, sp, r1, lsr #10
    1938:	0f030402 	svceq	0x00030402
    193c:	02000f05 	andeq	r0, r0, #5, 30
    1940:	05010104 	streq	r0, [r1, #-260]	@ 0xfffffefc
    1944:	18051403 	stmdane	r5, {r0, r1, sl, ip}
    1948:	03050106 	tsteq	r5, #-2147483647	@ 0x80000001
    194c:	15052106 	strne	r2, [r5, #-262]	@ 0xfffffefa
    1950:	1d050106 	stcne	1, cr0, [r5, #-24]	@ 0xffffffe8
    1954:	03040200 	tsteq	r4, #0, 4
    1958:	0f051d06 	svceq	0x00051d06
    195c:	01040200 	mrseq	r0, R12_usr
    1960:	14030501 	strne	r0, [r3], #-1281	@ 0xfffffaff
    1964:	01061805 	tsteq	r6, r5, lsl #16
    1968:	21060305 	tstcs	r6, r5, lsl #6
    196c:	01061505 	tsteq	r6, r5, lsl #10
    1970:	02001d05 	andeq	r1, r0, #320	@ 0x140
    1974:	1d060304 	stcne	3, cr0, [r6, #-16]
    1978:	02000f05 	andeq	r0, r0, #5, 30
    197c:	05010104 	streq	r0, [r1, #-260]	@ 0xfffffefc
    1980:	18051403 	stmdane	r5, {r0, r1, sl, ip}
    1984:	03050106 	tsteq	r5, #-2147483647	@ 0x80000001
    1988:	15052106 	strne	r2, [r5, #-262]	@ 0xfffffefa
    198c:	1d050106 	stcne	1, cr0, [r5, #-24]	@ 0xffffffe8
    1990:	03040200 	tsteq	r4, #0, 4
    1994:	0f051d06 	svceq	0x00051d06
    1998:	01040200 	mrseq	r0, R12_usr
    199c:	14030501 	strne	r0, [r3], #-1281	@ 0xfffffaff
    19a0:	01061805 	tsteq	r6, r5, lsl #16
    19a4:	21060305 	tstcs	r6, r5, lsl #6
    19a8:	01061505 	tsteq	r6, r5, lsl #10
    19ac:	02001d05 	andeq	r1, r0, #320	@ 0x140
    19b0:	1d060304 	stcne	3, cr0, [r6, #-16]
    19b4:	02000f05 	andeq	r0, r0, #5, 30
    19b8:	05010104 	streq	r0, [r1, #-260]	@ 0xfffffefc
    19bc:	18051403 	stmdane	r5, {r0, r1, sl, ip}
    19c0:	03050106 	tsteq	r5, #-2147483647	@ 0x80000001
    19c4:	15052106 	strne	r2, [r5, #-262]	@ 0xfffffefa
    19c8:	1d050106 	stcne	1, cr0, [r5, #-24]	@ 0xffffffe8
    19cc:	03040200 	tsteq	r4, #0, 4
    19d0:	0f051d06 	svceq	0x00051d06
    19d4:	01040200 	mrseq	r0, R12_usr
    19d8:	14030501 	strne	r0, [r3], #-1281	@ 0xfffffaff
    19dc:	01061805 	tsteq	r6, r5, lsl #16
    19e0:	21060305 	tstcs	r6, r5, lsl #6
    19e4:	01061505 	tsteq	r6, r5, lsl #10
    19e8:	02001d05 	andeq	r1, r0, #320	@ 0x140
    19ec:	1d060304 	stcne	3, cr0, [r6, #-16]
    19f0:	02000f05 	andeq	r0, r0, #5, 30
    19f4:	05010104 	streq	r0, [r1, #-260]	@ 0xfffffefc
    19f8:	18051403 	stmdane	r5, {r0, r1, sl, ip}
    19fc:	03050106 	tsteq	r5, #-2147483647	@ 0x80000001
    1a00:	15052106 	strne	r2, [r5, #-262]	@ 0xfffffefa
    1a04:	1d050106 	stcne	1, cr0, [r5, #-24]	@ 0xffffffe8
    1a08:	03040200 	tsteq	r4, #0, 4
    1a0c:	0f051d06 	svceq	0x00051d06
    1a10:	01040200 	mrseq	r0, R12_usr
    1a14:	14030501 	strne	r0, [r3], #-1281	@ 0xfffffaff
    1a18:	01061805 	tsteq	r6, r5, lsl #16
    1a1c:	21060305 	tstcs	r6, r5, lsl #6
    1a20:	01061505 	tsteq	r6, r5, lsl #10
    1a24:	02001d05 	andeq	r1, r0, #320	@ 0x140
    1a28:	1d060304 	stcne	3, cr0, [r6, #-16]
    1a2c:	02000f05 	andeq	r0, r0, #5, 30
    1a30:	05010104 	streq	r0, [r1, #-260]	@ 0xfffffefc
    1a34:	18051403 	stmdane	r5, {r0, r1, sl, ip}
    1a38:	03050106 	tsteq	r5, #-2147483647	@ 0x80000001
    1a3c:	15052106 	strne	r2, [r5, #-262]	@ 0xfffffefa
    1a40:	1d050106 	stcne	1, cr0, [r5, #-24]	@ 0xffffffe8
    1a44:	03040200 	tsteq	r4, #0, 4
    1a48:	0f051d06 	svceq	0x00051d06
    1a4c:	01040200 	mrseq	r0, R12_usr
    1a50:	14030501 	strne	r0, [r3], #-1281	@ 0xfffffaff
    1a54:	01061805 	tsteq	r6, r5, lsl #16
    1a58:	21060305 	tstcs	r6, r5, lsl #6
    1a5c:	01061505 	tsteq	r6, r5, lsl #10
    1a60:	02001d05 	andeq	r1, r0, #320	@ 0x140
    1a64:	1d060304 	stcne	3, cr0, [r6, #-16]
    1a68:	02000f05 	andeq	r0, r0, #5, 30
    1a6c:	05010104 	streq	r0, [r1, #-260]	@ 0xfffffefc
    1a70:	18051403 	stmdane	r5, {r0, r1, sl, ip}
    1a74:	03050106 	tsteq	r5, #-2147483647	@ 0x80000001
    1a78:	15052106 	strne	r2, [r5, #-262]	@ 0xfffffefa
    1a7c:	1d050106 	stcne	1, cr0, [r5, #-24]	@ 0xffffffe8
    1a80:	03040200 	tsteq	r4, #0, 4
    1a84:	0f051d06 	svceq	0x00051d06
    1a88:	01040200 	mrseq	r0, R12_usr
    1a8c:	14030501 	strne	r0, [r3], #-1281	@ 0xfffffaff
    1a90:	01061805 	tsteq	r6, r5, lsl #16
    1a94:	21060305 	tstcs	r6, r5, lsl #6
    1a98:	01061505 	tsteq	r6, r5, lsl #10
    1a9c:	02001d05 	andeq	r1, r0, #320	@ 0x140
    1aa0:	1d060304 	stcne	3, cr0, [r6, #-16]
    1aa4:	02000f05 	andeq	r0, r0, #5, 30
    1aa8:	05010104 	streq	r0, [r1, #-260]	@ 0xfffffefc
    1aac:	18051403 	stmdane	r5, {r0, r1, sl, ip}
    1ab0:	03050106 	tsteq	r5, #-2147483647	@ 0x80000001
    1ab4:	15052106 	strne	r2, [r5, #-262]	@ 0xfffffefa
    1ab8:	1d050106 	stcne	1, cr0, [r5, #-24]	@ 0xffffffe8
    1abc:	03040200 	tsteq	r4, #0, 4
    1ac0:	0f051d06 	svceq	0x00051d06
    1ac4:	01040200 	mrseq	r0, R12_usr
    1ac8:	14030501 	strne	r0, [r3], #-1281	@ 0xfffffaff
    1acc:	01061805 	tsteq	r6, r5, lsl #16
    1ad0:	21060305 	tstcs	r6, r5, lsl #6
    1ad4:	01061505 	tsteq	r6, r5, lsl #10
    1ad8:	02001d05 	andeq	r1, r0, #320	@ 0x140
    1adc:	1d060304 	stcne	3, cr0, [r6, #-16]
    1ae0:	02000f05 	andeq	r0, r0, #5, 30
    1ae4:	05010104 	streq	r0, [r1, #-260]	@ 0xfffffefc
    1ae8:	0d051802 	stceq	8, cr1, [r5, #-8]
    1aec:	01050106 	tsteq	r5, r6, lsl #2
    1af0:	0633053d 			@ <UNDEFINED> instruction: 0x0633053d
    1af4:	140205a1 	strne	r0, [r2], #-1441	@ 0xfffffa5f
    1af8:	03061405 	tsteq	r6, #83886080	@ 0x5000000
    1afc:	33050109 	tstcc	r5, #1073741826	@ 0x40000002
    1b00:	05207503 	streq	r7, [r0, #-1283]!	@ 0xfffffafd
    1b04:	05260608 	streq	r0, [r6, #-1544]!	@ 0xfffff9f8
    1b08:	05141402 	ldreq	r1, [r4, #-1026]	@ 0xfffffbfe
    1b0c:	14051303 	strne	r1, [r5], #-771	@ 0xfffffcfd
    1b10:	05200106 	streq	r0, [r0, #-262]!	@ 0xfffffefa
    1b14:	01750333 	cmneq	r5, r3, lsr r3
    1b18:	0b030605 	bleq	c3334 <_binary_assets_romhdr_bin_size+0xc3275>
    1b1c:	001a0520 	andseq	r0, sl, r0, lsr #10
    1b20:	2e010402 	cdpcs	4, 0, cr0, cr1, cr2, {0}
    1b24:	2d060d05 	stccs	13, cr0, [r6, #-20]	@ 0xffffffec
    1b28:	05010205 	streq	r0, [r1, #-517]	@ 0xfffffdfb
    1b2c:	14051303 	strne	r1, [r5], #-771	@ 0xfffffcfd
    1b30:	06050106 	streq	r0, [r5], -r6, lsl #2
    1b34:	001a0520 	andseq	r0, sl, r0, lsr #10
    1b38:	2e010402 	cdpcs	4, 0, cr0, cr1, cr2, {0}
    1b3c:	2d060d05 	stccs	13, cr0, [r6, #-20]	@ 0xffffffec
    1b40:	05010205 	streq	r0, [r1, #-517]	@ 0xfffffdfb
    1b44:	14051303 	strne	r1, [r5], #-771	@ 0xfffffcfd
    1b48:	06050106 	streq	r0, [r5], -r6, lsl #2
    1b4c:	001a0520 	andseq	r0, sl, r0, lsr #10
    1b50:	2e010402 	cdpcs	4, 0, cr0, cr1, cr2, {0}
    1b54:	2d060d05 	stccs	13, cr0, [r6, #-20]	@ 0xffffffec
    1b58:	05010205 	streq	r0, [r1, #-517]	@ 0xfffffdfb
    1b5c:	14051303 	strne	r1, [r5], #-771	@ 0xfffffcfd
    1b60:	06050106 	streq	r0, [r5], -r6, lsl #2
    1b64:	001a0520 	andseq	r0, sl, r0, lsr #10
    1b68:	2e010402 	cdpcs	4, 0, cr0, cr1, cr2, {0}
    1b6c:	2d060d05 	stccs	13, cr0, [r6, #-20]	@ 0xffffffec
    1b70:	05010205 	streq	r0, [r1, #-517]	@ 0xfffffdfb
    1b74:	14051303 	strne	r1, [r5], #-771	@ 0xfffffcfd
    1b78:	06050106 	streq	r0, [r5], -r6, lsl #2
    1b7c:	001a0520 	andseq	r0, sl, r0, lsr #10
    1b80:	2e010402 	cdpcs	4, 0, cr0, cr1, cr2, {0}
    1b84:	2d060d05 	stccs	13, cr0, [r6, #-20]	@ 0xffffffec
    1b88:	05010205 	streq	r0, [r1, #-517]	@ 0xfffffdfb
    1b8c:	14051303 	strne	r1, [r5], #-771	@ 0xfffffcfd
    1b90:	06050106 	streq	r0, [r5], -r6, lsl #2
    1b94:	001a0520 	andseq	r0, sl, r0, lsr #10
    1b98:	2e010402 	cdpcs	4, 0, cr0, cr1, cr2, {0}
    1b9c:	2d060d05 	stccs	13, cr0, [r6, #-20]	@ 0xffffffec
    1ba0:	05010205 	streq	r0, [r1, #-517]	@ 0xfffffdfb
    1ba4:	14051303 	strne	r1, [r5], #-771	@ 0xfffffcfd
    1ba8:	06050106 	streq	r0, [r5], -r6, lsl #2
    1bac:	001a0520 	andseq	r0, sl, r0, lsr #10
    1bb0:	2e010402 	cdpcs	4, 0, cr0, cr1, cr2, {0}
    1bb4:	2d060d05 	stccs	13, cr0, [r6, #-20]	@ 0xffffffec
    1bb8:	05010205 	streq	r0, [r1, #-517]	@ 0xfffffdfb
    1bbc:	14051303 	strne	r1, [r5], #-771	@ 0xfffffcfd
    1bc0:	06050106 	streq	r0, [r5], -r6, lsl #2
    1bc4:	001a0520 	andseq	r0, sl, r0, lsr #10
    1bc8:	2e010402 	cdpcs	4, 0, cr0, cr1, cr2, {0}
    1bcc:	2d060d05 	stccs	13, cr0, [r6, #-20]	@ 0xffffffec
    1bd0:	05010205 	streq	r0, [r1, #-517]	@ 0xfffffdfb
    1bd4:	14051303 	strne	r1, [r5], #-771	@ 0xfffffcfd
    1bd8:	06050106 	streq	r0, [r5], -r6, lsl #2
    1bdc:	001a0520 	andseq	r0, sl, r0, lsr #10
    1be0:	2e010402 	cdpcs	4, 0, cr0, cr1, cr2, {0}
    1be4:	2d060d05 	stccs	13, cr0, [r6, #-20]	@ 0xffffffec
    1be8:	05010205 	streq	r0, [r1, #-517]	@ 0xfffffdfb
    1bec:	14051303 	strne	r1, [r5], #-771	@ 0xfffffcfd
    1bf0:	06050106 	streq	r0, [r5], -r6, lsl #2
    1bf4:	001a0520 	andseq	r0, sl, r0, lsr #10
    1bf8:	2e010402 	cdpcs	4, 0, cr0, cr1, cr2, {0}
    1bfc:	2d060d05 	stccs	13, cr0, [r6, #-20]	@ 0xffffffec
    1c00:	05010205 	streq	r0, [r1, #-517]	@ 0xfffffdfb
    1c04:	14051303 	strne	r1, [r5], #-771	@ 0xfffffcfd
    1c08:	06050106 	streq	r0, [r5], -r6, lsl #2
    1c0c:	001a0520 	andseq	r0, sl, r0, lsr #10
    1c10:	2e010402 	cdpcs	4, 0, cr0, cr1, cr2, {0}
    1c14:	2d060d05 	stccs	13, cr0, [r6, #-20]	@ 0xffffffec
    1c18:	05010205 	streq	r0, [r1, #-517]	@ 0xfffffdfb
    1c1c:	14051303 	strne	r1, [r5], #-771	@ 0xfffffcfd
    1c20:	06050106 	streq	r0, [r5], -r6, lsl #2
    1c24:	001a0520 	andseq	r0, sl, r0, lsr #10
    1c28:	2e010402 	cdpcs	4, 0, cr0, cr1, cr2, {0}
    1c2c:	2d060d05 	stccs	13, cr0, [r6, #-20]	@ 0xffffffec
    1c30:	05010205 	streq	r0, [r1, #-517]	@ 0xfffffdfb
    1c34:	14051303 	strne	r1, [r5], #-771	@ 0xfffffcfd
    1c38:	06050106 	streq	r0, [r5], -r6, lsl #2
    1c3c:	001a0520 	andseq	r0, sl, r0, lsr #10
    1c40:	2e010402 	cdpcs	4, 0, cr0, cr1, cr2, {0}
    1c44:	2d060d05 	stccs	13, cr0, [r6, #-20]	@ 0xffffffec
    1c48:	05010205 	streq	r0, [r1, #-517]	@ 0xfffffdfb
    1c4c:	14051303 	strne	r1, [r5], #-771	@ 0xfffffcfd
    1c50:	06050106 	streq	r0, [r5], -r6, lsl #2
    1c54:	001a0520 	andseq	r0, sl, r0, lsr #10
    1c58:	2e010402 	cdpcs	4, 0, cr0, cr1, cr2, {0}
    1c5c:	2d060d05 	stccs	13, cr0, [r6, #-20]	@ 0xffffffec
    1c60:	05010205 	streq	r0, [r1, #-517]	@ 0xfffffdfb
    1c64:	0d051303 	stceq	3, cr1, [r5, #-12]
    1c68:	09051106 	stmdbeq	r5, {r1, r2, r8, ip}
    1c6c:	05200903 	streq	r0, [r0, #-2307]!	@ 0xfffff6fd
    1c70:	14290602 	strtne	r0, [r9], #-1538	@ 0xfffff9fe
    1c74:	01061705 	tsteq	r6, r5, lsl #14
    1c78:	21060205 	tstcs	r6, r5, lsl #4
    1c7c:	03060105 	tsteq	r6, #1073741825	@ 0x40000001
    1c80:	15050172 	strne	r0, [r5, #-370]	@ 0xfffffe8e
    1c84:	05010e03 	streq	r0, [r1, #-3587]	@ 0xfffff1fd
    1c88:	06300602 	ldrteq	r0, [r0], -r2, lsl #12
    1c8c:	03010501 	tsteq	r1, #4194304	@ 0x400000
    1c90:	0d050170 	stceq	1, cr0, [r5, #-448]	@ 0xfffffe40
    1c94:	2e2e2e43 	cdpcs	14, 2, cr2, cr14, cr3, {2}
    1c98:	06052e2e 	streq	r2, [r5], -lr, lsr #28
    1c9c:	3b08052f 	blcc	203160 <_binary_assets_romhdr_bin_size+0x2030a1>
    1ca0:	2e2e0d05 	cdpcs	13, 2, cr0, cr14, cr5, {0}
    1ca4:	2e2e2e2e 	cdpcs	14, 2, cr2, cr14, cr14, {1}
    1ca8:	0608052e 	streq	r0, [r8], -lr, lsr #10
    1cac:	03240554 			@ <UNDEFINED> instruction: 0x03240554
    1cb0:	01740212 	cmneq	r4, r2, lsl r2
    1cb4:	05140205 	ldreq	r0, [r4, #-517]	@ 0xfffffdfb
    1cb8:	02051606 	andeq	r1, r5, #6291456	@ 0x600000
    1cbc:	060a0514 			@ <UNDEFINED> instruction: 0x060a0514
    1cc0:	06020501 	streq	r0, [r2], -r1, lsl #10
    1cc4:	0605053e 			@ <UNDEFINED> instruction: 0x0605053e
    1cc8:	00190501 	andseq	r0, r9, r1, lsl #10
    1ccc:	06010402 	streq	r0, [r1], -r2, lsl #8
    1cd0:	0026052e 	eoreq	r0, r6, lr, lsr #10
    1cd4:	06010402 	streq	r0, [r1], -r2, lsl #8
    1cd8:	00190501 	andseq	r0, r9, r1, lsl #10
    1cdc:	20010402 	andcs	r0, r1, r2, lsl #8
    1ce0:	02002605 	andeq	r2, r0, #5242880	@ 0x500000
    1ce4:	052e0104 	streq	r0, [lr, #-260]!	@ 0xfffffefc
    1ce8:	052f0602 	streq	r0, [pc, #-1538]!	@ 16ee <_binary_assets_romhdr_bin_size+0x162f>
    1cec:	05010605 	streq	r0, [r1, #-1541]	@ 0xfffff9fb
    1cf0:	04020019 	streq	r0, [r2], #-25	@ 0xffffffe7
    1cf4:	052e0601 	streq	r0, [lr, #-1537]!	@ 0xfffff9ff
    1cf8:	04020026 	streq	r0, [r2], #-38	@ 0xffffffda
    1cfc:	05010601 	streq	r0, [r1, #-1537]	@ 0xfffff9ff
    1d00:	04020019 	streq	r0, [r2], #-25	@ 0xffffffe7
    1d04:	26052001 	strcs	r2, [r5], -r1
    1d08:	01040200 	mrseq	r0, R12_usr
    1d0c:	0602052e 	streq	r0, [r2], -lr, lsr #10
    1d10:	0605052f 	streq	r0, [r5], -pc, lsr #10
    1d14:	00190501 	andseq	r0, r9, r1, lsl #10
    1d18:	06010402 	streq	r0, [r1], -r2, lsl #8
    1d1c:	0026052e 	eoreq	r0, r6, lr, lsr #10
    1d20:	06010402 	streq	r0, [r1], -r2, lsl #8
    1d24:	00190501 	andseq	r0, r9, r1, lsl #10
    1d28:	20010402 	andcs	r0, r1, r2, lsl #8
    1d2c:	02002605 	andeq	r2, r0, #5242880	@ 0x500000
    1d30:	052e0104 	streq	r0, [lr, #-260]!	@ 0xfffffefc
    1d34:	052f0602 	streq	r0, [pc, #-1538]!	@ 173a <_binary_assets_romhdr_bin_size+0x167b>
    1d38:	76030601 	strvc	r0, [r3], -r1, lsl #12
    1d3c:	03020501 	tsteq	r2, #4194304	@ 0x400000
    1d40:	0905010a 	stmdbeq	r5, {r1, r3, r8}
    1d44:	210a052e 	tstcs	sl, lr, lsr #10
    1d48:	051f0905 	ldreq	r0, [pc, #-2309]	@ 144b <_binary_assets_romhdr_bin_size+0x138c>
    1d4c:	05210602 	streq	r0, [r1, #-1538]!	@ 0xfffff9fe
    1d50:	2e01060a 	cdpcs	6, 0, cr0, cr1, cr10, {0}
    1d54:	75030105 	strvc	r0, [r3, #-261]	@ 0xfffffefb
    1d58:	061d0501 	ldreq	r0, [sp], -r1, lsl #10
    1d5c:	14020577 	strne	r0, [r2], #-1399	@ 0xfffffa89
    1d60:	01060a05 	tsteq	r6, r5, lsl #20
    1d64:	052c1d05 	streq	r1, [ip, #-3333]!	@ 0xfffff2fb
    1d68:	0205220a 	andeq	r2, r5, #-1610612736	@ 0xa0000000
    1d6c:	05052206 	streq	r2, [r5, #-518]	@ 0xfffffdfa
    1d70:	19050106 	stmdbne	r5, {r1, r2, r8}
    1d74:	01040200 	mrseq	r0, R12_usr
    1d78:	26052e06 	strcs	r2, [r5], -r6, lsl #28
    1d7c:	01040200 	mrseq	r0, R12_usr
    1d80:	19050106 	stmdbne	r5, {r1, r2, r8}
    1d84:	01040200 	mrseq	r0, R12_usr
    1d88:	00260520 	eoreq	r0, r6, r0, lsr #10
    1d8c:	2e010402 	cdpcs	4, 0, cr0, cr1, cr2, {0}
    1d90:	2f060205 	svccs	0x00060205
    1d94:	01060505 	tsteq	r6, r5, lsl #10
    1d98:	02001905 	andeq	r1, r0, #81920	@ 0x14000
    1d9c:	2e060104 	cdpcs	1, 0, cr0, cr6, cr4, {0}
    1da0:	02002605 	andeq	r2, r0, #5242880	@ 0x500000
    1da4:	01060104 	tsteq	r6, r4, lsl #2
    1da8:	02001905 	andeq	r1, r0, #81920	@ 0x14000
    1dac:	05200104 	streq	r0, [r0, #-260]!	@ 0xfffffefc
    1db0:	04020026 	streq	r0, [r2], #-38	@ 0xffffffda
    1db4:	02052e01 	andeq	r2, r5, #1, 28
    1db8:	05052f06 	streq	r2, [r5, #-3846]	@ 0xfffff0fa
    1dbc:	19050106 	stmdbne	r5, {r1, r2, r8}
    1dc0:	01040200 	mrseq	r0, R12_usr
    1dc4:	26052e06 	strcs	r2, [r5], -r6, lsl #28
    1dc8:	01040200 	mrseq	r0, R12_usr
    1dcc:	19050106 	stmdbne	r5, {r1, r2, r8}
    1dd0:	01040200 	mrseq	r0, R12_usr
    1dd4:	00260520 	eoreq	r0, r6, r0, lsr #10
    1dd8:	2e010402 	cdpcs	4, 0, cr0, cr1, cr2, {0}
    1ddc:	2f060205 	svccs	0x00060205
    1de0:	14060105 	strne	r0, [r6], #-261	@ 0xfffffefb
    1de4:	05100205 	ldreq	r0, [r0, #-517]	@ 0xfffffdfb
    1de8:	02052e09 	andeq	r2, r5, #9, 28	@ 0x90
    1dec:	0a054b06 	beq	154a0c <_binary_assets_romhdr_bin_size+0x15494d>
    1df0:	052e0106 	streq	r0, [lr, #-262]!	@ 0xfffffefa
    1df4:	25052101 	strcs	r2, [r5, #-257]	@ 0xfffffeff
    1df8:	02058506 	andeq	r8, r5, #25165824	@ 0x1800000
    1dfc:	16060514 			@ <UNDEFINED> instruction: 0x16060514
    1e00:	05140205 	ldreq	r0, [r4, #-517]	@ 0xfffffdfb
    1e04:	0501060a 	streq	r0, [r1, #-1546]	@ 0xfffff9f6
    1e08:	053e0602 	ldreq	r0, [lr, #-1538]!	@ 0xfffff9fe
    1e0c:	05010605 	streq	r0, [r1, #-1541]	@ 0xfffff9fb
    1e10:	04020019 	streq	r0, [r2], #-25	@ 0xffffffe7
    1e14:	052e0601 	streq	r0, [lr, #-1537]!	@ 0xfffff9ff
    1e18:	04020026 	streq	r0, [r2], #-38	@ 0xffffffda
    1e1c:	05010601 	streq	r0, [r1, #-1537]	@ 0xfffff9ff
    1e20:	05590602 	ldrbeq	r0, [r9, #-1538]	@ 0xfffff9fe
    1e24:	05010605 	streq	r0, [r1, #-1541]	@ 0xfffff9fb
    1e28:	04020019 	streq	r0, [r2], #-25	@ 0xffffffe7
    1e2c:	052e0601 	streq	r0, [lr, #-1537]!	@ 0xfffff9ff
    1e30:	04020026 	streq	r0, [r2], #-38	@ 0xffffffda
    1e34:	05010601 	streq	r0, [r1, #-1537]	@ 0xfffff9ff
    1e38:	05590602 	ldrbeq	r0, [r9, #-1538]	@ 0xfffff9fe
    1e3c:	05010605 	streq	r0, [r1, #-1541]	@ 0xfffff9fb
    1e40:	04020019 	streq	r0, [r2], #-25	@ 0xffffffe7
    1e44:	052e0601 	streq	r0, [lr, #-1537]!	@ 0xfffff9ff
    1e48:	04020026 	streq	r0, [r2], #-38	@ 0xffffffda
    1e4c:	05010601 	streq	r0, [r1, #-1537]	@ 0xfffff9ff
    1e50:	05590602 	ldrbeq	r0, [r9, #-1538]	@ 0xfffff9fe
    1e54:	76030601 	strvc	r0, [r3], -r1, lsl #12
    1e58:	03020501 	tsteq	r2, #4194304	@ 0x400000
    1e5c:	0905010a 	stmdbeq	r5, {r1, r3, r8}
    1e60:	0602052e 	streq	r0, [r2], -lr, lsr #10
    1e64:	060a0530 			@ <UNDEFINED> instruction: 0x060a0530
    1e68:	01053c01 	tsteq	r5, r1, lsl #24
    1e6c:	05017403 	streq	r7, [r1, #-1027]	@ 0xfffffbfd
    1e70:	0577061b 	ldrbeq	r0, [r7, #-1563]!	@ 0xfffff9e5
    1e74:	0a051402 	beq	146e84 <_binary_assets_romhdr_bin_size+0x146dc5>
    1e78:	02050106 	andeq	r0, r5, #-2147483647	@ 0x80000001
    1e7c:	05053e06 	streq	r3, [r5, #-3590]	@ 0xfffff1fa
    1e80:	19050106 	stmdbne	r5, {r1, r2, r8}
    1e84:	01040200 	mrseq	r0, R12_usr
    1e88:	26052e06 	strcs	r2, [r5], -r6, lsl #28
    1e8c:	01040200 	mrseq	r0, R12_usr
    1e90:	02050106 	andeq	r0, r5, #-2147483647	@ 0x80000001
    1e94:	05055906 	streq	r5, [r5, #-2310]	@ 0xfffff6fa
    1e98:	19050106 	stmdbne	r5, {r1, r2, r8}
    1e9c:	01040200 	mrseq	r0, R12_usr
    1ea0:	26052e06 	strcs	r2, [r5], -r6, lsl #28
    1ea4:	01040200 	mrseq	r0, R12_usr
    1ea8:	02050106 	andeq	r0, r5, #-2147483647	@ 0x80000001
    1eac:	05055906 	streq	r5, [r5, #-2310]	@ 0xfffff6fa
    1eb0:	19050106 	stmdbne	r5, {r1, r2, r8}
    1eb4:	01040200 	mrseq	r0, R12_usr
    1eb8:	26052e06 	strcs	r2, [r5], -r6, lsl #28
    1ebc:	01040200 	mrseq	r0, R12_usr
    1ec0:	02050106 	andeq	r0, r5, #-2147483647	@ 0x80000001
    1ec4:	01055906 	tsteq	r5, r6, lsl #18
    1ec8:	02051606 	andeq	r1, r5, #6291456	@ 0x600000
    1ecc:	2e09050e 	cdpcs	5, 0, cr0, cr9, cr14, {0}
    1ed0:	30060205 	andcc	r0, r6, r5, lsl #4
    1ed4:	01060a05 	tsteq	r6, r5, lsl #20
    1ed8:	023e0105 	eorseq	r0, lr, #1073741825	@ 0x40000001
    1edc:	01010007 	tsteq	r1, r7
    1ee0:	00000074 	andeq	r0, r0, r4, ror r0
    1ee4:	00040005 	andeq	r0, r4, r5
    1ee8:	0000002e 	andeq	r0, r0, lr, lsr #32
    1eec:	fb010102 			@ <UNDEFINED> instruction: 0xfb010102
    1ef0:	01000d0e 	tsteq	r0, lr, lsl #26
    1ef4:	00010101 	andeq	r0, r1, r1, lsl #2
    1ef8:	00010000 	andeq	r0, r1, r0
    1efc:	01010100 	mrseq	r0, (UNDEF: 17)
    1f00:	0000021f 	andeq	r0, r0, pc, lsl r2
    1f04:	004d0000 	subeq	r0, sp, r0
    1f08:	01020000 	mrseq	r0, (UNDEF: 2)
    1f0c:	020f021f 	andeq	r0, pc, #-268435455	@ 0xf0000001
    1f10:	00000098 	muleq	r0, r8, r0
    1f14:	00009801 	andeq	r9, r0, r1, lsl #16
    1f18:	05000100 	streq	r0, [r0, #-256]	@ 0xffffff00
    1f1c:	00266002 	eoreq	r6, r6, r2
    1f20:	01240308 			@ <UNDEFINED> instruction: 0x01240308
    1f24:	2f2f302f 	svccs	0x002f302f
    1f28:	2f30302f 	svccs	0x0030302f
    1f2c:	332f302f 			@ <UNDEFINED> instruction: 0x332f302f
    1f30:	2f2f2f2f 	svccs	0x002f2f2f
    1f34:	2f332f2f 	svccs	0x00332f2f
    1f38:	2f332f2f 	svccs	0x00332f2f
    1f3c:	2f2f342f 	svccs	0x002f342f
    1f40:	2f30302f 	svccs	0x0030302f
    1f44:	2f2f332f 	svccs	0x002f332f
    1f48:	2f2f2f30 	svccs	0x002f2f30
    1f4c:	2f2f2f30 	svccs	0x002f2f30
    1f50:	022e4503 	eoreq	r4, lr, #12582912	@ 0xc00000
    1f54:	01010002 	tsteq	r1, r2
    1f58:	00000054 	andeq	r0, r0, r4, asr r0
    1f5c:	00040005 	andeq	r0, r4, r5
    1f60:	0000002e 	andeq	r0, r0, lr, lsr #32
    1f64:	fb010102 			@ <UNDEFINED> instruction: 0xfb010102
    1f68:	01000d0e 	tsteq	r0, lr, lsl #26
    1f6c:	00010101 	andeq	r0, r1, r1, lsl #2
    1f70:	00010000 	andeq	r0, r1, r0
    1f74:	01010100 	mrseq	r0, (UNDEF: 17)
    1f78:	0000021f 	andeq	r0, r0, pc, lsl r2
    1f7c:	004d0000 	subeq	r0, sp, r0
    1f80:	01020000 	mrseq	r0, (UNDEF: 2)
    1f84:	020f021f 	andeq	r0, pc, #-268435455	@ 0xf0000001
    1f88:	000000ae 	andeq	r0, r0, lr, lsr #1
    1f8c:	0000ae01 	andeq	sl, r0, r1, lsl #28
    1f90:	05000100 	streq	r0, [r0, #-256]	@ 0xffffff00
    1f94:	0021c402 	eoreq	ip, r1, r2, lsl #8
    1f98:	01200308 			@ <UNDEFINED> instruction: 0x01200308
    1f9c:	21212521 			@ <UNDEFINED> instruction: 0x21212521
    1fa0:	21212121 			@ <UNDEFINED> instruction: 0x21212121
    1fa4:	78032121 	stmdavc	r3, {r0, r5, r8, sp}
    1fa8:	0231302e 	eorseq	r3, r1, #46	@ 0x2e
    1fac:	01010002 	tsteq	r1, r2

Disassembly of section .debug_str:

00000000 <.debug_str>:
   0:	46746e49 	ldrbtmi	r6, [r4], -r9, asr #28
   4:	7269006e 	rsbvc	r0, r9, #110	@ 0x6e
   8:	53414d71 	cmppl	r1, #7232	@ 0x1c40
   c:	6900534b 	stmdbvs	r0, {r0, r1, r3, r6, r8, r9, ip, lr}
  10:	6174736e 	cmnvs	r4, lr, ror #6
  14:	695f6c6c 	ldmdbvs	pc, {r2, r3, r5, r6, sl, fp, sp, lr}^	@ <UNPREDICTABLE>
  18:	00317476 	eorseq	r7, r1, r6, ror r4
  1c:	53717269 	cmnpl	r1, #-1879048186	@ 0x90000006
  20:	5f007465 	svcpl	0x00007465
  24:	746e695f 	strbtvc	r6, [lr], #-2399	@ 0xfffff6a1
  28:	6c62765f 	stclvs	6, cr7, [r2], #-380	@ 0xfffffe84
  2c:	006b6e61 	rsbeq	r6, fp, r1, ror #28
  30:	5f515249 	svcpl	0x00515249
  34:	5059454b 	subspl	r4, r9, fp, asr #10
  38:	76004441 	strvc	r4, [r0], -r1, asr #8
  3c:	00363175 	eorseq	r3, r6, r5, ror r1
  40:	69736e75 	ldmdbvs	r3!, {r0, r2, r4, r5, r6, r9, sl, fp, sp, lr}^
  44:	64656e67 	strbtvs	r6, [r5], #-3687	@ 0xfffff199
  48:	61686320 	cmnvs	r8, r0, lsr #6
  4c:	72690072 	rsbvc	r0, r9, #114	@ 0x72
  50:	53414d71 	cmppl	r1, #7232	@ 0x1c40
  54:	6873004b 	ldmdavs	r3!, {r0, r1, r3, r6}^
  58:	2074726f 	rsbscs	r7, r4, pc, ror #4
  5c:	69736e75 	ldmdbvs	r3!, {r0, r2, r4, r5, r6, r9, sl, fp, sp, lr}^
  60:	64656e67 	strbtvs	r6, [r5], #-3687	@ 0xfffff199
  64:	746e6920 	strbtvc	r6, [lr], #-2336	@ 0xfffff6e0
  68:	51524900 	cmppl	r2, r0, lsl #18
  6c:	4d49545f 	stclmi	4, cr5, [r9, #-380]	@ 0xfffffe84
  70:	00305245 	eorseq	r5, r0, r5, asr #4
  74:	5f515249 	svcpl	0x00515249
  78:	454d4954 	strbmi	r4, [sp, #-2388]	@ 0xfffff6ac
  7c:	49003152 	stmdbmi	r0, {r1, r4, r6, r8, ip, sp}
  80:	545f5152 	ldrbpl	r5, [pc], #-338	@ 88 <_binary_assets_romhdr_bin_size-0x37>
  84:	52454d49 	subpl	r4, r5, #4672	@ 0x1240
  88:	52490032 	subpl	r0, r9, #50	@ 0x32
  8c:	49545f51 	ldmdbmi	r4, {r0, r4, r6, r8, r9, sl, fp, ip, lr}^
  90:	3352454d 	cmpcc	r2, #322961408	@ 0x13400000
  94:	6f687300 	svcvs	0x00687300
  98:	69207472 	stmdbvs	r0!, {r1, r4, r5, r6, sl, ip, sp, lr}
  9c:	4900746e 	stmdbmi	r0, {r1, r2, r3, r5, r6, sl, ip, sp, lr}
  a0:	485f5152 	ldmdami	pc, {r1, r4, r6, r8, ip, lr}^	@ <UNPREDICTABLE>
  a4:	4e414c42 	cdpmi	12, 4, cr4, cr1, cr2, {2}
  a8:	5249004b 	subpl	r0, r9, #75	@ 0x4b
  ac:	4d445f51 	stclmi	15, cr5, [r4, #-324]	@ 0xfffffebc
  b0:	49003041 	stmdbmi	r0, {r0, r6, ip, sp}
  b4:	445f5152 	ldrbmi	r5, [pc], #-338	@ bc <_binary_assets_romhdr_bin_size-0x3>
  b8:	0031414d 	eorseq	r4, r1, sp, asr #2
  bc:	5f515249 	svcpl	0x00515249
  c0:	32414d44 	subcc	r4, r1, #68, 26	@ 0x1100
  c4:	51524900 	cmppl	r2, r0, lsl #18
  c8:	414d445f 	cmpmi	sp, pc, asr r4
  cc:	6f6c0033 	svcvs	0x006c0033
  d0:	6c20676e 	stcvs	7, cr6, [r0], #-440	@ 0xfffffe48
  d4:	20676e6f 	rsbcs	r6, r7, pc, ror #28
  d8:	69736e75 	ldmdbvs	r3!, {r0, r2, r4, r5, r6, r9, sl, fp, sp, lr}^
  dc:	64656e67 	strbtvs	r6, [r5], #-3687	@ 0xfffff199
  e0:	746e6920 	strbtvc	r6, [lr], #-2336	@ 0xfffff6e0
  e4:	63727300 	cmnvs	r2, #0, 6
  e8:	6e6f6e2f 	cdpvs	14, 6, cr6, cr15, cr15, {1}
  ec:	6e61635f 	mcrvs	3, 3, r6, cr1, cr15, {2}
  f0:	692f6e6f 	stmdbvs	pc!, {r0, r1, r2, r3, r5, r6, r9, sl, fp, sp, lr}	@ <UNPREDICTABLE>
  f4:	632e746e 			@ <UNDEFINED> instruction: 0x632e746e
  f8:	6f682f00 	svcvs	0x00682f00
  fc:	672f656d 	strvs	r6, [pc, -sp, ror #10]!
 100:	61677969 	cmnvs	r7, r9, ror #18
 104:	6f632f73 	svcvs	0x00632f73
 108:	722f6564 	eorvc	r6, pc, #100, 10	@ 0x19000000
 10c:	6f6d2f65 	svcvs	0x006d2f65
 110:	72656874 	rsbvc	r6, r5, #116, 16	@ 0x740000
 114:	65642f33 	strbvs	r2, [r4, #-3891]!	@ 0xfffff0cd
 118:	706d6f63 	rsbvc	r6, sp, r3, ror #30
 11c:	6e6f6c00 	cdpvs	12, 6, cr6, cr15, cr0, {0}
 120:	6f6c2067 	svcvs	0x006c2067
 124:	6920676e 	stmdbvs	r0!, {r1, r2, r3, r5, r6, r8, r9, sl, sp, lr}
 128:	4900746e 	stmdbmi	r0, {r1, r2, r3, r5, r6, sl, ip, sp, lr}
 12c:	475f5152 			@ <UNDEFINED> instruction: 0x475f5152
 130:	50454d41 	subpl	r4, r5, r1, asr #26
 134:	47004b41 	strmi	r4, [r0, -r1, asr #22]
 138:	4320554e 			@ <UNDEFINED> instruction: 0x4320554e
 13c:	31203332 			@ <UNDEFINED> instruction: 0x31203332
 140:	2e312e35 	mrccs	14, 1, r2, cr1, cr5, {1}
 144:	6d2d2030 	stcvs	0, cr2, [sp, #-192]!	@ 0xffffff40
 148:	3d757063 	ldclcc	0, cr7, [r5, #-396]!	@ 0xfffffe74
 14c:	376d7261 	strbcc	r7, [sp, -r1, ror #4]!
 150:	696d6474 	stmdbvs	sp!, {r2, r4, r5, r6, sl, sp, lr}^
 154:	746d2d20 	strbtvc	r2, [sp], #-3360	@ 0xfffff2e0
 158:	3d656e75 	stclcc	14, cr6, [r5, #-468]!	@ 0xfffffe2c
 15c:	376d7261 	strbcc	r7, [sp, -r1, ror #4]!
 160:	696d6474 	stmdbvs	sp!, {r2, r4, r5, r6, sl, sp, lr}^
 164:	616d2d20 	cmnvs	sp, r0, lsr #26
 168:	2d206d72 	stccs	13, cr6, [r0, #-456]!	@ 0xfffffe38
 16c:	6372616d 	cmnvs	r2, #1073741851	@ 0x4000001b
 170:	72613d68 	rsbvc	r3, r1, #104, 26	@ 0x1a00
 174:	7434766d 	ldrtvc	r7, [r4], #-1645	@ 0xfffff993
 178:	20672d20 	rsbcs	r2, r7, r0, lsr #26
 17c:	20324f2d 	eorscs	r4, r2, sp, lsr #30
 180:	7266662d 	rsbvc	r6, r6, #47185920	@ 0x2d00000
 184:	74736565 	ldrbtvc	r6, [r3], #-1381	@ 0xfffffa9b
 188:	69646e61 	stmdbvs	r4!, {r0, r5, r6, r9, sl, fp, sp, lr}^
 18c:	4900676e 	stmdbmi	r0, {r1, r2, r3, r5, r6, r8, r9, sl, sp, lr}
 190:	565f5152 			@ <UNDEFINED> instruction: 0x565f5152
 194:	4e554f43 	cdpmi	15, 5, cr4, cr5, cr3, {2}
 198:	72690054 	rsbvc	r0, r9, #84	@ 0x54
 19c:	616e4571 	cmnvs	lr, r1, ror r5
 1a0:	00656c62 	rsbeq	r6, r5, r2, ror #24
 1a4:	5f515249 	svcpl	0x00515249
 1a8:	49524553 	ldmdbmi	r2, {r0, r1, r4, r6, r8, sl, lr}^
 1ac:	49004c41 	stmdbmi	r0, {r0, r6, sl, fp, lr}
 1b0:	565f5152 			@ <UNDEFINED> instruction: 0x565f5152
 1b4:	4e414c42 	cdpmi	12, 4, cr4, cr1, cr2, {2}
 1b8:	5245004b 	subpl	r0, r5, #75	@ 0x4b
 1bc:	4e555f52 	mrcmi	15, 2, r5, cr5, cr2, {2}
 1c0:	4c504d49 	ldclmi	13, cr4, [r0], {73}	@ 0x49
 1c4:	4e454d45 	cdpmi	13, 4, cr4, cr5, cr5, {2}
 1c8:	00444554 	subeq	r4, r4, r4, asr r5
 1cc:	5f525245 	svcpl	0x00525245
 1d0:	54534554 	ldrbpl	r4, [r3], #-1364	@ 0xfffffaac
 1d4:	4941465f 	stmdbmi	r1, {r0, r1, r2, r3, r4, r6, r9, sl, lr}^
 1d8:	7562004c 	strbvc	r0, [r2, #-76]!	@ 0xffffffb4
 1dc:	65686367 	strbvs	r6, [r8, #-871]!	@ 0xfffffc99
 1e0:	65006b63 	strvs	r6, [r0, #-2915]	@ 0xfffff49d
 1e4:	745f7272 	ldrbvc	r7, [pc], #-626	@ 1ec <_binary_assets_romhdr_bin_size+0x12d>
 1e8:	63727300 	cmnvs	r2, #0, 6
 1ec:	6e6f6e2f 	cdpvs	14, 6, cr6, cr15, cr15, {1}
 1f0:	6e61635f 	mcrvs	3, 3, r6, cr1, cr15, {2}
 1f4:	652f6e6f 	strvs	r6, [pc, #-3695]!	@ fffff38d <IntrRet+0xf7ffcca5>
 1f8:	632e7272 			@ <UNDEFINED> instruction: 0x632e7272
 1fc:	5f6f6400 	svcpl	0x006f6400
 200:	5f697773 	svcpl	0x00697773
 204:	61656c63 	cmnvs	r5, r3, ror #24
 208:	70430072 	subvc	r0, r3, r2, ror r0
 20c:	73614675 	cmnvc	r1, #122683392	@ 0x7500000
 210:	74655374 	strbtvc	r5, [r5], #-884	@ 0xfffffc8c
 214:	63727300 	cmnvs	r2, #0, 6
 218:	6974752f 	ldmdbvs	r4!, {r0, r1, r2, r3, r5, r8, sl, ip, sp, lr}^
 21c:	6f6c2f6c 	svcvs	0x006c2f6c
 220:	76656c77 			@ <UNDEFINED> instruction: 0x76656c77
 224:	632e6c65 			@ <UNDEFINED> instruction: 0x632e6c65
 228:	75704300 	ldrbvc	r4, [r0, #-768]!	@ 0xfffffd00
 22c:	00746553 	rsbseq	r6, r4, r3, asr r5
 230:	72646461 	rsbvc	r6, r4, #1627389952	@ 0x61000000
 234:	5f6f6400 	svcpl	0x006f6400
 238:	5f616d64 	svcpl	0x00616d64
 23c:	61656c63 	cmnvs	r5, r3, ror #24
 240:	7a6c0072 	bvc	1b00410 <_binary_assets_romhdr_bin_size+0x1b00351>
 244:	5f373737 	svcpl	0x00373737
 248:	6f636e75 	svcvs	0x00636e75
 24c:	765f706d 	ldrbvc	r7, [pc], -sp, rrx
 250:	006d6172 	rsbeq	r6, sp, r2, ror r1
 254:	657a6973 	ldrbvs	r6, [sl, #-2419]!	@ 0xfffff68d
 258:	33757600 	cmncc	r5, #0, 12
 25c:	45520032 	ldrbmi	r0, [r2, #-50]	@ 0xffffffce
 260:	52415453 	subpl	r5, r1, #1392508928	@ 0x53000000
 264:	4c465f54 	stclmi	15, cr5, [r6], {84}	@ 0x54
 268:	72004741 	andvc	r4, r0, #17039360	@ 0x1040000
 26c:	74657365 	strbtvc	r7, [r5], #-869	@ 0xfffffc9b
 270:	6568635f 	strbvs	r6, [r8, #-863]!	@ 0xfffffca1
 274:	735f6b63 	cmpvc	pc, #101376	@ 0x18c00
 278:	53007274 	tstpl	r0, #116, 4	@ 0x40000007
 27c:	5274666f 	rsbspl	r6, r4, #116391936	@ 0x6f00000
 280:	74657365 	strbtvc	r7, [r5], #-869	@ 0xfffffc9b
 284:	6e757200 	cdpvs	2, 7, cr7, cr5, cr0, {0}
 288:	656d6974 	strbvs	r6, [sp, #-2420]!	@ 0xfffff68c
 28c:	646f6d5f 	strbtvs	r6, [pc], #-3423	@ 294 <_binary_assets_romhdr_bin_size+0x1d5>
 290:	00745f65 	rsbseq	r5, r4, r5, ror #30
 294:	45444f4d 	strbmi	r4, [r4, #-3917]	@ 0xfffff0b3
 298:	414c505f 	cmpmi	ip, pc, asr r0
 29c:	52465f59 	subpl	r5, r6, #356	@ 0x164
 2a0:	4d5f4d4f 	ldclmi	13, cr4, [pc, #-316]	@ 16c <_binary_assets_romhdr_bin_size+0xad>
 2a4:	00554e45 	subseq	r4, r5, r5, asr #28
 2a8:	45444f4d 	strbmi	r4, [r4, #-3917]	@ 0xfffff0b3
 2ac:	534e485f 	cmppl	lr, #6225920	@ 0x5f0000
 2b0:	72776900 	rsbsvc	r6, r7, #0, 18
 2b4:	4d006d61 	stcmi	13, cr6, [r0, #-388]	@ 0xfffffe7c
 2b8:	5f45444f 	svcpl	0x0045444f
 2bc:	59414c50 	stmdbpl	r1, {r4, r6, sl, fp, lr}^
 2c0:	4f52465f 	svcmi	0x0052465f
 2c4:	4f435f4d 	svcmi	0x00435f4d
 2c8:	4e49544e 	cdpmi	4, 4, cr5, cr9, cr14, {2}
 2cc:	4d004555 	stcmi	5, cr4, [r0, #-340]	@ 0xfffffeac
 2d0:	5f45444f 	svcpl	0x0045444f
 2d4:	59414c50 	stmdbpl	r1, {r4, r6, sl, fp, lr}^
 2d8:	4f52465f 	svcmi	0x0052465f
 2dc:	41425f4d 	cmpmi	r2, sp, asr #30
 2e0:	454c5454 	strbmi	r5, [ip, #-1108]	@ 0xfffffbac
 2e4:	4e49575f 	mcrmi	7, 2, r5, cr9, cr15, {2}
 2e8:	616c7000 	cmnvs	ip, r0
 2ec:	725f746e 	subsvc	r7, pc, #1845493760	@ 0x6e000000
 2f0:	74657365 	strbtvc	r7, [r5], #-869	@ 0xfffffc9b
 2f4:	67616d5f 			@ <UNDEFINED> instruction: 0x67616d5f
 2f8:	72006369 	andvc	r6, r0, #-1543503871	@ 0xa4000001
 2fc:	69746e75 	ldmdbvs	r4!, {r0, r2, r4, r5, r6, r9, sl, fp, sp, lr}^
 300:	745f656d 	ldrbvc	r6, [pc], #-1389	@ 308 <_binary_assets_romhdr_bin_size+0x249>
 304:	444f4d00 	strbmi	r4, [pc], #-3328	@ 30c <_binary_assets_romhdr_bin_size+0x24d>
 308:	54465f45 	strbpl	r5, [r6], #-3909	@ 0xfffff0bb
 30c:	5349445f 	cmppl	r9, #1593835520	@ 0x5f000000
 310:	49414c43 	stmdbmi	r1, {r0, r1, r6, sl, fp, lr}^
 314:	0052454d 	subseq	r4, r2, sp, asr #10
 318:	45444f4d 	strbmi	r4, [r4, #-3917]	@ 0xfffff0b3
 31c:	4c55465f 	ldclmi	6, cr4, [r5], {95}	@ 0x5f
 320:	5243534c 	subpl	r5, r3, #76, 6	@ 0x30000001
 324:	5f4e4545 	svcpl	0x004e4545
 328:	554e454d 	strbpl	r4, [lr, #-1357]	@ 0xfffffab3
 32c:	6e757200 	cdpvs	2, 7, cr7, cr5, cr0, {0}
 330:	656d6974 	strbvs	r6, [sp, #-2420]!	@ 0xfffff68c
 334:	7369645f 	cmnvc	r9, #1593835520	@ 0x5f000000
 338:	63746170 	cmnvs	r4, #112, 2
 33c:	41520068 	cmpmi	r2, r8, rrx
 340:	45525f4d 	ldrbmi	r5, [r2, #-3917]	@ 0xfffff0b3
 344:	52415453 	subpl	r5, r1, #1392508928	@ 0x53000000
 348:	6f640054 	svcvs	0x00640054
 34c:	666f735f 			@ <UNDEFINED> instruction: 0x666f735f
 350:	65725f74 	ldrbvs	r5, [r2, #-3956]!	@ 0xfffff08c
 354:	00746573 	rsbseq	r6, r4, r3, ror r5
 358:	63656863 	cmnvs	r5, #6488064	@ 0x630000
 35c:	65725f6b 	ldrbvs	r5, [r2, #-3947]!	@ 0xfffff095
 360:	00746573 	rsbseq	r6, r4, r3, ror r5
 364:	5f4d4f52 	svcpl	0x004d4f52
 368:	54534552 	ldrbpl	r4, [r3], #-1362	@ 0xfffffaae
 36c:	00545241 	subseq	r5, r4, r1, asr #4
 370:	67616c66 	strbvs	r6, [r1, -r6, ror #24]!
 374:	69750073 	ldmdbvs	r5!, {r0, r1, r4, r5, r6}^
 378:	5f38746e 	svcpl	0x0038746e
 37c:	4f4d0074 	svcmi	0x004d0074
 380:	425f4544 	subsmi	r4, pc, #68, 10	@ 0x11000000
 384:	4c545441 	ldclmi	4, cr5, [r4], {65}	@ 0x41
 388:	6f6d0045 	svcvs	0x006d0045
 38c:	4d006564 	stcmi	5, cr6, [r0, #-400]	@ 0xfffffe70
 390:	5f45444f 	svcpl	0x0045444f
 394:	494d414e 	stmdbmi	sp, {r1, r2, r3, r6, r8, lr}^
 398:	4d00474e 	stcmi	7, cr4, [r0, #-312]	@ 0xfffffec8
 39c:	5f45444f 	svcpl	0x0045444f
 3a0:	59414c50 	stmdbpl	r1, {r4, r6, sl, fp, lr}^
 3a4:	4f52465f 	svcmi	0x0052465f
 3a8:	45525f4d 	ldrbmi	r5, [r2, #-3917]	@ 0xfffff0b3
 3ac:	57415053 			@ <UNDEFINED> instruction: 0x57415053
 3b0:	7273004e 	rsbsvc	r0, r3, #78	@ 0x4e
 3b4:	616d2f63 	cmnvs	sp, r3, ror #30
 3b8:	632e6e69 			@ <UNDEFINED> instruction: 0x632e6e69
 3bc:	656c6300 	strbvs	r6, [ip, #-768]!	@ 0xfffffd00
 3c0:	675f7261 	ldrbvs	r7, [pc, -r1, ror #4]
 3c4:	68706172 	ldmdavs	r0!, {r1, r4, r5, r6, r8, sp, lr}^
 3c8:	5f736369 	svcpl	0x00736369
 3cc:	006d656d 	rsbeq	r6, sp, sp, ror #10
 3d0:	45444f4d 	strbmi	r4, [r4, #-3917]	@ 0xfffff0b3
 3d4:	4552435f 	ldrbmi	r4, [r2, #-863]	@ 0xfffffca1
 3d8:	53544944 	cmppl	r4, #68, 18	@ 0x110000
 3dc:	6e617200 	cdpvs	2, 6, cr7, cr1, cr0, {0}
 3e0:	6e695f64 	cdpvs	15, 6, cr5, cr9, cr4, {3}
 3e4:	63007469 	tstvs	r0, #1761607680	@ 0x69000000
 3e8:	7261656c 	rsbvc	r6, r1, #108, 10	@ 0x1b000000
 3ec:	6d61725f 	stclvs	2, cr7, [r1, #-380]!	@ 0xfffffe84
 3f0:	444f4d00 	strbmi	r4, [pc], #-3328	@ 3f8 <_binary_assets_romhdr_bin_size+0x339>
 3f4:	4c505f45 	ldclmi	15, cr5, [r0], {69}	@ 0x45
 3f8:	465f5941 	ldrbmi	r5, [pc], -r1, asr #18
 3fc:	5f4d4f52 	svcpl	0x004d4f52
 400:	5f57454e 	svcpl	0x0057454e
 404:	454d4147 	strbmi	r4, [sp, #-327]	@ 0xfffffeb9
 408:	444f4d00 	strbmi	r4, [pc], #-3328	@ 410 <_binary_assets_romhdr_bin_size+0x351>
 40c:	4c505f45 	ldclmi	15, cr5, [r0], {69}	@ 0x45
 410:	465f5941 	ldrbmi	r5, [pc], -r1, asr #18
 414:	5f4d4f52 	svcpl	0x004d4f52
 418:	5f57454e 	svcpl	0x0057454e
 41c:	50414843 	subpl	r4, r1, r3, asr #16
 420:	00524554 	subseq	r4, r2, r4, asr r5
 424:	45444f4d 	strbmi	r4, [r4, #-3917]	@ 0xfffff0b3
 428:	444e535f 	strbmi	r5, [lr], #-863	@ 0xfffffca1
 42c:	52594c50 	subspl	r4, r9, #80, 24	@ 0x5000
 430:	444f4d00 	strbmi	r4, [pc], #-3328	@ 438 <_binary_assets_romhdr_bin_size+0x379>
 434:	414d5f45 	cmpmi	sp, r5, asr #30
 438:	4d5f4e49 	ldclmi	14, cr4, [pc, #-292]	@ 31c <_binary_assets_romhdr_bin_size+0x25d>
 43c:	00554e45 	subseq	r4, r5, r5, asr #28
 440:	45444f4d 	strbmi	r4, [r4, #-3917]	@ 0xfffff0b3
 444:	554e555f 	strbpl	r5, [lr, #-1375]	@ 0xfffffaa1
 448:	00444553 	subeq	r4, r4, r3, asr r5
 44c:	75746573 	ldrbvc	r6, [r4, #-1395]!	@ 0xfffffa8d
 450:	75725f70 	ldrbvc	r5, [r2, #-3952]!	@ 0xfffff090
 454:	6d69746e 	stclvs	4, cr7, [r9, #-440]!	@ 0xfffffe48
 458:	72690065 	rsbvc	r0, r9, #101	@ 0x65
 45c:	696e4971 	stmdbvs	lr!, {r0, r4, r5, r6, r8, fp, lr}^
 460:	735f0074 	cmpvc	pc, #116	@ 0x74
 464:	00646565 	rsbeq	r6, r4, r5, ror #10
 468:	646e6172 	strbtvs	r6, [lr], #-370	@ 0xfffffe8e
 46c:	6174735f 	cmnvs	r4, pc, asr r3
 470:	695f6574 	ldmdbvs	pc, {r2, r4, r5, r6, r8, sl, sp, lr}^	@ <UNPREDICTABLE>
 474:	73007864 	tstvc	r0, #100, 16	@ 0x640000
 478:	732f6372 			@ <UNDEFINED> instruction: 0x732f6372
 47c:	79736275 	ldmdbvc	r3!, {r0, r2, r4, r5, r6, r9, sp, lr}^
 480:	61722f73 	cmnvs	r2, r3, ror pc
 484:	632e646e 			@ <UNDEFINED> instruction: 0x632e646e
 488:	6e617200 	cdpvs	2, 6, cr7, cr1, cr0, {0}
 48c:	74735f64 	ldrbtvc	r5, [r3], #-3940	@ 0xfffff09c
 490:	00657461 	rsbeq	r7, r5, r1, ror #8
 494:	646e6172 	strbtvs	r6, [lr], #-370	@ 0xfffffe8e
 498:	6e65675f 	mcrvs	7, 3, r6, cr5, cr15, {2}
 49c:	6e617200 	cdpvs	2, 6, cr7, cr1, cr0, {0}
 4a0:	6f635f64 	svcvs	0x00635f64
 4a4:	63657272 	cmnvs	r5, #536870919	@ 0x20000007
 4a8:	6e6f6974 			@ <UNDEFINED> instruction: 0x6e6f6974
 4ac:	63727300 	cmnvs	r2, #0, 6
 4b0:	6275732f 	rsbsvs	r7, r5, #-1140850688	@ 0xbc000000
 4b4:	2f737973 	svccs	0x00737973
 4b8:	65737361 	ldrbvs	r7, [r3, #-865]!	@ 0xfffffc9f
 4bc:	632e7374 			@ <UNDEFINED> instruction: 0x632e7374
 4c0:	646e6900 	strbtvs	r6, [lr], #-2304	@ 0xfffff700
 4c4:	615f7865 	cmpvs	pc, r5, ror #16
 4c8:	74657373 	strbtvc	r7, [r5], #-883	@ 0xfffffc8d
 4cc:	6c62745f 	stclvs	4, cr7, [r2], #-380	@ 0xfffffe84
 4d0:	65727000 	ldrbvs	r7, [r2, #-0]!
 4d4:	64657373 	strbtvs	r7, [r5], #-883	@ 0xfffffc8d
 4d8:	63727300 	cmnvs	r2, #0, 6
 4dc:	6275732f 	rsbsvs	r7, r5, #-1140850688	@ 0xbc000000
 4e0:	2f737973 	svccs	0x00737973
 4e4:	75706e69 	ldrbvc	r6, [r0, #-3689]!	@ 0xfffff197
 4e8:	00632e74 	rsbeq	r2, r3, r4, ror lr
 4ec:	626f6c67 	rsbvs	r6, pc, #26368	@ 0x6700
 4f0:	706e695f 	rsbvc	r6, lr, pc, asr r9
 4f4:	6174735f 	cmnvs	r4, pc, asr r3
 4f8:	68006574 	stmdavs	r0, {r2, r4, r5, r6, r8, sl, sp, lr}
 4fc:	00646c65 	rsbeq	r6, r4, r5, ror #24
 500:	656d6974 	strbvs	r6, [sp, #-2420]!	@ 0xfffff68c
 504:	6e690072 	mcrvs	0, 3, r0, cr9, cr2, {3}
 508:	6e695f70 	mcrvs	15, 3, r5, cr9, cr0, {3}
 50c:	6d007469 	stcvs	4, cr7, [r0, #-420]	@ 0xfffffe5c
 510:	65747379 	ldrbvs	r7, [r4, #-889]!	@ 0xfffffc87
 514:	73007972 	tstvc	r0, #1867776	@ 0x1c8000
 518:	65636e69 	strbvs	r6, [r3, #-3689]!	@ 0xfffff197
 51c:	73616c5f 	cmnvc	r1, #24320	@ 0x5f00
 520:	6e695f74 	mcrvs	15, 3, r5, cr9, cr4, {3}
 524:	68635f70 	stmdavs	r3!, {r4, r5, r6, r8, r9, sl, fp, ip, lr}^
 528:	65676e61 	strbvs	r6, [r7, #-3681]!	@ 0xfffff19f
 52c:	76617300 	strbtvc	r7, [r1], -r0, lsl #6
 530:	645f6465 	ldrbvs	r6, [pc], #-1125	@ 538 <_binary_assets_romhdr_bin_size+0x479>
 534:	006e776f 	rsbeq	r7, lr, pc, ror #14
 538:	75706e69 	ldrbvc	r6, [r0, #-3689]!	@ 0xfffff197
 53c:	74735f74 	ldrbtvc	r5, [r3], #-3956	@ 0xfffff08c
 540:	5f657461 	svcpl	0x00657461
 544:	67620074 			@ <UNDEFINED> instruction: 0x67620074
 548:	746e6332 	strbtvc	r6, [lr], #-818	@ 0xfffffcce
 54c:	646c6200 	strbtvs	r6, [ip], #-512	@ 0xfffffe00
 550:	68706c61 	ldmdavs	r0!, {r0, r5, r6, sl, fp, sp, lr}^
 554:	66670061 	strbtvs	r0, [r7], -r1, rrx
 558:	65725f78 	ldrbvs	r5, [r2, #-3960]!	@ 0xfffff088
 55c:	745f7367 	ldrbvc	r7, [pc], #-871	@ 564 <_binary_assets_romhdr_bin_size+0x4a5>
 560:	33676200 	cmncc	r7, #0, 4
 564:	00746e63 	rsbseq	r6, r4, r3, ror #28
 568:	70736964 	rsbsvc	r6, r3, r4, ror #18
 56c:	00746e63 	rsbseq	r6, r4, r3, ror #28
 570:	626f6c67 	rsbvs	r6, pc, #26368	@ 0x6700
 574:	7866675f 	stmdavc	r6!, {r0, r1, r2, r3, r4, r6, r8, r9, sl, sp, lr}^
 578:	6765725f 			@ <UNDEFINED> instruction: 0x6765725f
 57c:	6c620073 	stclvs	0, cr0, [r2], #-460	@ 0xfffffe34
 580:	62007964 	andvs	r7, r0, #100, 18	@ 0x190000
 584:	6e633067 	cdpvs	0, 6, cr3, cr3, cr7, {3}
 588:	72730074 	rsbsvc	r0, r3, #116	@ 0x74
 58c:	75732f63 	ldrbvc	r2, [r3, #-3939]!	@ 0xfffff09d
 590:	73797362 	cmnvc	r9, #-2013265919	@ 0x88000001
 594:	7866672f 	stmdavc	r6!, {r0, r1, r2, r3, r5, r8, r9, sl, sp, lr}^
 598:	6700632e 	strvs	r6, [r0, -lr, lsr #6]
 59c:	5f626f6c 	svcpl	0x00626f6c
 5a0:	5f786667 	svcpl	0x00786667
 5a4:	67617473 			@ <UNDEFINED> instruction: 0x67617473
 5a8:	00676e69 	rsbeq	r6, r7, r9, ror #28
 5ac:	63316762 	teqvs	r1, #25690112	@ 0x1880000
 5b0:	6900746e 	stmdbvs	r0, {r1, r2, r3, r5, r6, sl, ip, sp, lr}
 5b4:	5f74696e 	svcpl	0x0074696e
 5b8:	5f786667 	svcpl	0x00786667
 5bc:	73676572 	cmnvc	r7, #478150656	@ 0x1c800000
 5c0:	656c6300 	strbvs	r6, [ip, #-768]!	@ 0xfffffd00
 5c4:	675f7261 	ldrbvs	r7, [pc, -r1, ror #4]
 5c8:	735f7866 	cmpvc	pc, #6684672	@ 0x660000
 5cc:	69676174 	stmdbvs	r7!, {r2, r4, r5, r6, r8, sp, lr}^
 5d0:	7300676e 	tstvc	r0, #28835840	@ 0x1b80000
 5d4:	732f6372 			@ <UNDEFINED> instruction: 0x732f6372
 5d8:	79736275 	ldmdbvc	r3!, {r0, r2, r4, r5, r6, r9, sp, lr}^
 5dc:	75732f73 	ldrbvc	r2, [r3, #-3955]!	@ 0xfffff08d
 5e0:	73797362 	cmnvc	r9, #-2013265919	@ 0x88000001
 5e4:	6900632e 	stmdbvs	r0, {r1, r2, r3, r5, r8, r9, sp, lr}
 5e8:	5f74696e 	svcpl	0x0074696e
 5ec:	73627573 	cmnvc	r2, #482344960	@ 0x1cc00000
 5f0:	65747379 	ldrbvs	r7, [r4, #-889]!	@ 0xfffffc87
 5f4:	5f00736d 	svcpl	0x0000736d
 5f8:	72617473 	rsbvc	r7, r1, #1929379840	@ 0x73000000
 5fc:	72730074 	rsbsvc	r0, r3, #116	@ 0x74
 600:	74732f63 	ldrbtvc	r2, [r3], #-3939	@ 0xfffff09d
 604:	75747261 	ldrbvc	r7, [r4, #-609]!	@ 0xfffffd9f
 608:	00632e70 	rsbeq	r2, r3, r0, ror lr
 60c:	2f637273 	svccs	0x00637273
 610:	746e7572 	strbtvc	r7, [lr], #-1394	@ 0xfffffa8e
 614:	2f656d69 	svccs	0x00656d69
 618:	656d6167 	strbvs	r6, [sp, #-359]!	@ 0xfffffe99
 61c:	79616c70 	stmdbvc	r1!, {r4, r5, r6, sl, fp, sp, lr}^
 620:	7200632e 	andvc	r6, r0, #-1207959552	@ 0xb8000000
 624:	6f6d5f74 	svcvs	0x006d5f74
 628:	675f6564 	ldrbvs	r6, [pc, -r4, ror #10]
 62c:	70656d61 	rsbvc	r6, r5, r1, ror #26
 630:	0079616c 	rsbseq	r6, r9, ip, ror #2
 634:	2f637273 	svccs	0x00637273
 638:	746e7572 	strbtvc	r7, [lr], #-1394	@ 0xfffffa8e
 63c:	2f656d69 	svccs	0x00656d69
 640:	73756e75 	cmnvc	r5, #1872	@ 0x750
 644:	632e6465 			@ <UNDEFINED> instruction: 0x632e6465
 648:	5f747200 	svcpl	0x00747200
 64c:	65646f6d 	strbvs	r6, [r4, #-3949]!	@ 0xfffff093
 650:	756e755f 	strbvc	r7, [lr, #-1375]!	@ 0xfffffaa1
 654:	00646573 	rsbeq	r6, r4, r3, ror r5
 658:	5f736e68 	svcpl	0x00736e68
 65c:	79646f62 	stmdbvc	r4!, {r1, r5, r6, r8, r9, sl, fp, sp, lr}^
 660:	736e6800 	cmnvc	lr, #0, 16
 664:	69616d5f 	stmdbvs	r1!, {r0, r1, r2, r3, r4, r6, r8, sl, fp, sp, lr}^
 668:	7472006e 	ldrbtvc	r0, [r2], #-110	@ 0xffffff92
 66c:	646f6d5f 	strbtvs	r6, [pc], #-3423	@ 674 <_binary_assets_romhdr_bin_size+0x5b5>
 670:	6e685f65 	cdpvs	15, 6, cr5, cr8, cr5, {3}
 674:	61700073 	cmnvs	r0, r3, ror r0
 678:	7474656c 	ldrbtvc	r6, [r4], #-1388	@ 0xfffffa94
 67c:	61645f65 	cmnvs	r4, r5, ror #30
 680:	73006174 	tstvc	r0, #116, 2
 684:	722f6372 	eorvc	r6, pc, #-939524095	@ 0xc8000001
 688:	69746e75 	ldmdbvs	r4!, {r0, r2, r4, r5, r6, r9, sl, fp, sp, lr}^
 68c:	682f656d 	stmdavs	pc!, {r0, r2, r3, r5, r6, r8, sl, sp, lr}	@ <UNPREDICTABLE>
 690:	632e736e 			@ <UNDEFINED> instruction: 0x632e736e
 694:	736e6800 	cmnvc	lr, #0, 16
 698:	616f6c5f 	cmnvs	pc, pc, asr ip	@ <UNPREDICTABLE>
 69c:	72675f64 	rsbvc	r5, r7, #100, 30	@ 0x190
 6a0:	69687061 	stmdbvs	r8!, {r0, r5, r6, ip, sp, lr}^
 6a4:	6c007363 	stcvs	3, cr7, [r0], {99}	@ 0x63
 6a8:	6564616f 	strbvs	r6, [r4, #-367]!	@ 0xfffffe91
 6ac:	65680064 	strbvs	r0, [r8, #-100]!	@ 0xffffff9c
 6b0:	68746c61 	ldmdavs	r4!, {r0, r5, r6, sl, fp, sp, lr}^
 6b4:	7866675f 	stmdavc	r6!, {r0, r1, r2, r3, r4, r6, r8, r9, sl, sp, lr}^
 6b8:	65727000 	ldrbvs	r7, [r2, #-0]!
 6bc:	615f7373 	cmpvs	pc, r3, ror r3	@ <UNPREDICTABLE>
 6c0:	625f796e 	subsvs	r7, pc, #1802240	@ 0x1b8000
 6c4:	6f747475 	svcvs	0x00747475
 6c8:	72675f6e 	rsbvc	r5, r7, #440	@ 0x1b8
 6cc:	69687061 	stmdbvs	r8!, {r0, r5, r6, ip, sp, lr}^
 6d0:	74720063 	ldrbtvc	r0, [r2], #-99	@ 0xffffff9d
 6d4:	646f6d5f 	strbtvs	r6, [pc], #-3423	@ 6dc <_binary_assets_romhdr_bin_size+0x61d>
 6d8:	656d5f65 	strbvs	r5, [sp, #-3941]!	@ 0xfffff09b
 6dc:	7200756e 	andvc	r7, r0, #461373440	@ 0x1b800000
 6e0:	6f6d5f74 	svcvs	0x006d5f74
 6e4:	635f6564 	cmpvs	pc, #100, 10	@ 0x19000000
 6e8:	69646572 	stmdbvs	r4!, {r1, r4, r5, r6, r8, sl, sp, lr}^
 6ec:	72007374 	andvc	r7, r0, #116, 6	@ 0xd0000001
 6f0:	6f6d5f74 	svcvs	0x006d5f74
 6f4:	6d5f6564 	ldclvs	5, cr6, [pc, #-400]	@ 56c <_binary_assets_romhdr_bin_size+0x4ad>
 6f8:	5f6e6961 	svcpl	0x006e6961
 6fc:	756e656d 	strbvc	r6, [lr, #-1389]!	@ 0xfffffa93
 700:	63727300 	cmnvs	r2, #0, 6
 704:	6e75722f 	cdpvs	2, 7, cr7, cr5, cr15, {1}
 708:	656d6974 	strbvs	r6, [sp, #-2420]!	@ 0xfffff68c
 70c:	6e75722f 	cdpvs	2, 7, cr7, cr5, cr15, {1}
 710:	656d6974 	strbvs	r6, [sp, #-2420]!	@ 0xfffff68c
 714:	7200632e 	andvc	r6, r0, #-1207959552	@ 0xb8000000
 718:	6f6d5f74 	svcvs	0x006d5f74
 71c:	625f6564 	subsvs	r6, pc, #100, 10	@ 0x19000000
 720:	6c747461 	ldclvs	4, cr7, [r4], #-388	@ 0xfffffe7c
 724:	74720065 	ldrbtvc	r0, [r2], #-101	@ 0xffffff9b
 728:	646f6d5f 	strbtvs	r6, [pc], #-3423	@ 730 <_binary_assets_romhdr_bin_size+0x671>
 72c:	6e735f65 	cdpvs	15, 7, cr5, cr3, cr5, {3}
 730:	796c7064 	stmdbvc	ip!, {r2, r5, r6, ip, sp, lr}^
 734:	74720072 	ldrbtvc	r0, [r2], #-114	@ 0xffffff8e
 738:	646f6d5f 	strbtvs	r6, [pc], #-3423	@ 740 <_binary_assets_romhdr_bin_size+0x681>
 73c:	74665f65 	strbtvc	r5, [r6], #-3941	@ 0xfffff09b
 740:	7369645f 	cmnvc	r9, #1593835520	@ 0x5f000000
 744:	69616c63 	stmdbvs	r1!, {r0, r1, r5, r6, sl, fp, sp, lr}^
 748:	0072656d 	rsbseq	r6, r2, sp, ror #10
 74c:	6d5f7472 	ldclvs	4, cr7, [pc, #-456]	@ 58c <_binary_assets_romhdr_bin_size+0x4cd>
 750:	5f65646f 	svcpl	0x0065646f
 754:	696d616e 	stmdbvs	sp!, {r1, r2, r3, r5, r6, r8, sp, lr}^
 758:	7300676e 	tstvc	r0, #28835840	@ 0x1b80000
 75c:	74726174 	ldrbtvc	r6, [r2], #-372	@ 0xfffffe8c
 760:	6d61675f 	stclvs	7, cr6, [r1, #-380]!	@ 0xfffffe84
 764:	72730065 	rsbsvc	r0, r3, #101	@ 0x65
 768:	75722f63 	ldrbvc	r2, [r2, #-3939]!	@ 0xfffff09d
 76c:	6d69746e 	stclvs	4, cr7, [r9, #-440]!	@ 0xfffffe48
 770:	61622f65 	cmnvs	r2, r5, ror #30
 774:	656c7474 	strbvs	r7, [ip, #-1140]!	@ 0xfffffb8c
 778:	7300632e 	tstvc	r0, #-1207959552	@ 0xb8000000
 77c:	722f6372 	eorvc	r6, pc, #-939524095	@ 0xc8000001
 780:	69746e75 	ldmdbvs	r4!, {r0, r2, r4, r5, r6, r9, sl, fp, sp, lr}^
 784:	6e2f656d 	cdpvs	5, 2, cr6, cr15, cr13, {3}
 788:	6e696d61 	cdpvs	13, 6, cr6, cr9, cr1, {3}
 78c:	00632e67 	rsbeq	r2, r3, r7, ror #28
 790:	2f637273 	svccs	0x00637273
 794:	746e7572 	strbtvc	r7, [lr], #-1394	@ 0xfffffa8e
 798:	2f656d69 	svccs	0x00656d69
 79c:	70646e73 	rsbvc	r6, r4, r3, ror lr
 7a0:	2e72796c 			@ <UNDEFINED> instruction: 0x2e72796c
 7a4:	72730063 	rsbsvc	r0, r3, #99	@ 0x63
 7a8:	75722f63 	ldrbvc	r2, [r2, #-3939]!	@ 0xfffff09d
 7ac:	6d69746e 	stclvs	4, cr7, [r9, #-440]!	@ 0xfffffe48
 7b0:	74662f65 	strbtvc	r2, [r6], #-3941	@ 0xfffff09b
 7b4:	7369645f 	cmnvc	r9, #1593835520	@ 0x5f000000
 7b8:	69616c63 	stmdbvs	r1!, {r0, r1, r5, r6, sl, fp, sp, lr}^
 7bc:	2e72656d 	cdpcs	5, 7, cr6, cr2, cr13, {3}
 7c0:	72730063 	rsbsvc	r0, r3, #99	@ 0x63
 7c4:	75722f63 	ldrbvc	r2, [r2, #-3939]!	@ 0xfffff09d
 7c8:	6d69746e 	stclvs	4, cr7, [r9, #-440]!	@ 0xfffffe48
 7cc:	616d2f65 	cmnvs	sp, r5, ror #30
 7d0:	6d5f6e69 	ldclvs	14, cr6, [pc, #-420]	@ 634 <_binary_assets_romhdr_bin_size+0x575>
 7d4:	2e756e65 	cdpcs	14, 7, cr6, cr5, cr5, {3}
 7d8:	72730063 	rsbsvc	r0, r3, #99	@ 0x63
 7dc:	75722f63 	ldrbvc	r2, [r2, #-3939]!	@ 0xfffff09d
 7e0:	6d69746e 	stclvs	4, cr7, [r9, #-440]!	@ 0xfffffe48
 7e4:	656d2f65 	strbvs	r2, [sp, #-3941]!	@ 0xfffff09b
 7e8:	632e756e 			@ <UNDEFINED> instruction: 0x632e756e
 7ec:	63727300 	cmnvs	r2, #0, 6
 7f0:	6e75722f 	cdpvs	2, 7, cr7, cr5, cr15, {1}
 7f4:	656d6974 	strbvs	r6, [sp, #-2420]!	@ 0xfffff68c
 7f8:	6572632f 	ldrbvs	r6, [r2, #-815]!	@ 0xfffffcd1
 7fc:	73746964 	cmnvc	r4, #100, 18	@ 0x190000
 800:	4700632e 	strmi	r6, [r0, -lr, lsr #6]
 804:	4320554e 			@ <UNDEFINED> instruction: 0x4320554e
 808:	31203731 			@ <UNDEFINED> instruction: 0x31203731
 80c:	2e322e33 	mrccs	14, 1, r2, cr2, cr3, {1}
 810:	6d2d2030 	stcvs	0, cr2, [sp, #-192]!	@ 0xffffff40
 814:	6d756874 	ldclvs	8, cr6, [r5, #-464]!	@ 0xfffffe30
 818:	6d2d2062 	stcvs	0, cr2, [sp, #-392]!	@ 0xfffffe78
 81c:	6d756874 	ldclvs	8, cr6, [r5, #-464]!	@ 0xfffffe30
 820:	6e692d62 	cdpvs	13, 6, cr2, cr9, cr2, {3}
 824:	77726574 			@ <UNDEFINED> instruction: 0x77726574
 828:	206b726f 	rsbcs	r7, fp, pc, ror #4
 82c:	70636d2d 	rsbvc	r6, r3, sp, lsr #26
 830:	72613d75 	rsbvc	r3, r1, #7488	@ 0x1d40
 834:	6474376d 	ldrbtvs	r3, [r4], #-1901	@ 0xfffff893
 838:	2d20696d 			@ <UNDEFINED> instruction: 0x2d20696d
 83c:	6372616d 	cmnvs	r2, #1073741851	@ 0x4000001b
 840:	72613d68 	rsbvc	r3, r1, #104, 26	@ 0x1a00
 844:	7434766d 	ldrtvc	r7, [r4], #-1645	@ 0xfffff993
 848:	20672d20 	rsbcs	r2, r7, r0, lsr #26
 84c:	00334f2d 	eorseq	r4, r3, sp, lsr #30
 850:	74736564 	ldrbtvc	r6, [r3], #-1380	@ 0xfffffa9c
 854:	6f682f00 	svcvs	0x00682f00
 858:	642f656d 	strtvs	r6, [pc], #-1389	@ 860 <_binary_assets_romhdr_bin_size+0x7a1>
 85c:	6d657661 	stclvs	6, cr7, [r5, #-388]!	@ 0xfffffe7c
 860:	6f72702f 	svcvs	0x0072702f
 864:	7463656a 	strbtvc	r6, [r3], #-1386	@ 0xfffffa96
 868:	65642f73 	strbvs	r2, [r4, #-3955]!	@ 0xfffff08d
 86c:	74696b76 	strbtvc	r6, [r9], #-2934	@ 0xfffff48a
 870:	2f6f7270 	svccs	0x006f7270
 874:	6d636170 	stclvs	1, cr6, [r3, #-448]!	@ 0xfffffe40
 878:	702d6e61 	eorvc	r6, sp, r1, ror #28
 87c:	616b6361 	cmnvs	fp, r1, ror #6
 880:	2f736567 	svccs	0x00736567
 884:	6762696c 	strbvs	r6, [r2, -ip, ror #18]!
 888:	732f6162 			@ <UNDEFINED> instruction: 0x732f6162
 88c:	6c2f6372 	stcvs	3, cr6, [pc], #-456	@ 6cc <_binary_assets_romhdr_bin_size+0x60d>
 890:	62676269 	rsbvs	r6, r7, #-1879048186	@ 0x90000006
 894:	2e302d61 	cdpcs	13, 3, cr2, cr0, cr1, {3}
 898:	2f342e35 	svccs	0x00342e35
 89c:	2f637273 	svccs	0x00637273
 8a0:	53757043 	cmnpl	r5, #67	@ 0x43
 8a4:	632e7465 			@ <UNDEFINED> instruction: 0x632e7465
 8a8:	755f5f00 	ldrbvc	r5, [pc, #-3840]	@ fffff9b0 <IntrRet+0xf7ffd2c8>
 8ac:	33746e69 	cmncc	r4, #1680	@ 0x690
 8b0:	00745f32 	rsbseq	r5, r4, r2, lsr pc
 8b4:	6d6f682f 	stclvs	8, cr6, [pc, #-188]!	@ 800 <_binary_assets_romhdr_bin_size+0x741>
 8b8:	61642f65 	cmnvs	r4, r5, ror #30
 8bc:	2f6d6576 	svccs	0x006d6576
 8c0:	6a6f7270 	bvs	1bdd288 <_binary_assets_romhdr_bin_size+0x1bdd1c9>
 8c4:	73746365 	cmnvc	r4, #-1811939327	@ 0x94000001
 8c8:	7665642f 	strbtvc	r6, [r5], -pc, lsr #8
 8cc:	7074696b 	rsbsvc	r6, r4, fp, ror #18
 8d0:	702f6f72 	eorvc	r6, pc, r2, ror pc	@ <UNPREDICTABLE>
 8d4:	616d6361 	cmnvs	sp, r1, ror #6
 8d8:	61702d6e 	cmnvs	r0, lr, ror #26
 8dc:	67616b63 	strbvs	r6, [r1, -r3, ror #22]!
 8e0:	6c2f7365 	stcvs	3, cr7, [pc], #-404	@ 754 <_binary_assets_romhdr_bin_size+0x695>
 8e4:	62676269 	rsbvs	r6, r7, #-1879048186	@ 0x90000006
 8e8:	72732f61 	rsbsvc	r2, r3, #388	@ 0x184
 8ec:	696c2f63 	stmdbvs	ip!, {r0, r1, r5, r6, r8, r9, sl, fp, sp}^
 8f0:	61626762 	cmnvs	r2, r2, ror #14
 8f4:	352e302d 	strcc	r3, [lr, #-45]!	@ 0xffffffd3
 8f8:	622f342e 	eorvs	r3, pc, #771751936	@ 0x2e000000
 8fc:	646c6975 	strbtvs	r6, [ip], #-2421	@ 0xfffff68b
 900:	756f7300 	strbvc	r7, [pc, #-768]!	@ 608 <_binary_assets_romhdr_bin_size+0x549>
 904:	00656372 	rsbeq	r6, r5, r2, ror r3
 908:	4344434c 	cmpmi	r4, #76, 6	@ 0x30000001
 90c:	5152495f 	cmppl	r2, pc, asr r9
 910:	6f682f00 	svcvs	0x00682f00
 914:	642f656d 	strtvs	r6, [pc], #-1389	@ 91c <_binary_assets_romhdr_bin_size+0x85d>
 918:	6d657661 	stclvs	6, cr7, [r5, #-388]!	@ 0xfffffe7c
 91c:	6f72702f 	svcvs	0x0072702f
 920:	7463656a 	strbtvc	r6, [r3], #-1386	@ 0xfffffa96
 924:	65642f73 	strbvs	r2, [r4, #-3955]!	@ 0xfffff08d
 928:	74696b76 	strbtvc	r6, [r9], #-2934	@ 0xfffff48a
 92c:	2f6f7270 	svccs	0x006f7270
 930:	6d636170 	stclvs	1, cr6, [r3, #-448]!	@ 0xfffffe40
 934:	702d6e61 	eorvc	r6, sp, r1, ror #28
 938:	616b6361 	cmnvs	fp, r1, ror #6
 93c:	2f736567 	svccs	0x00736567
 940:	6762696c 	strbvs	r6, [r2, -ip, ror #18]!
 944:	732f6162 			@ <UNDEFINED> instruction: 0x732f6162
 948:	6c2f6372 	stcvs	3, cr6, [pc], #-456	@ 788 <_binary_assets_romhdr_bin_size+0x6c9>
 94c:	62676269 	rsbvs	r6, r7, #-1879048186	@ 0x90000006
 950:	2e302d61 	cdpcs	13, 3, cr2, cr0, cr1, {3}
 954:	2f342e35 	svccs	0x00342e35
 958:	2f637273 	svccs	0x00637273
 95c:	65746e69 	ldrbvs	r6, [r4, #-3689]!	@ 0xfffff197
 960:	70757272 	rsbsvc	r7, r5, r2, ror r2
 964:	00632e74 	rsbeq	r2, r3, r4, ror lr
 968:	4344434c 	cmpmi	r4, #76, 6	@ 0x30000001
 96c:	4c42485f 	stclmi	8, cr4, [r2], {95}	@ 0x5f
 970:	414c465f 	cmpmi	ip, pc, asr r6
 974:	69440047 	stmdbvs	r4, {r0, r1, r2, r6}^
 978:	6c626173 	stclvs	1, cr6, [r2], #-460	@ 0xfffffe34
 97c:	746e4965 	strbtvc	r4, [lr], #-2405	@ 0xfffff69b
 980:	75727265 	ldrbvc	r7, [r2, #-613]!	@ 0xfffffd9b
 984:	5f007470 	svcpl	0x00007470
 988:	6e69755f 	mcrvs	5, 3, r7, cr9, cr15, {2}
 98c:	5f363174 	svcpl	0x00363174
 990:	61680074 	cmnvs	r8, r4, ror r0
 994:	656c646e 	strbvs	r6, [ip, #-1134]!	@ 0xfffffb92
 998:	6e450072 	mcrvs	0, 2, r0, cr5, cr2, {3}
 99c:	656c6261 	strbvs	r6, [ip, #-609]!	@ 0xfffffd9f
 9a0:	65746e49 	ldrbvs	r6, [r4, #-3657]!	@ 0xfffff1b7
 9a4:	70757272 	rsbsvc	r7, r5, r2, ror r2
 9a8:	6e490074 	mcrvs	0, 2, r0, cr9, cr4, {3}
 9ac:	614d7274 	cmpvs	sp, r4, ror r2
 9b0:	4c006e69 	stcmi	14, cr6, [r0], {105}	@ 0x69
 9b4:	5f434443 	svcpl	0x00434443
 9b8:	004c4248 	subeq	r4, ip, r8, asr #4
 9bc:	6d6d7564 	stclvs	5, cr7, [sp, #-400]!	@ 0xfffffe70
 9c0:	434c0079 	cmpmi	ip, #121	@ 0x79
 9c4:	565f4344 	ldrbpl	r4, [pc], -r4, asr #6
 9c8:	465f4c42 	ldrbmi	r4, [pc], -r2, asr #24
 9cc:	0047414c 	subeq	r4, r7, ip, asr #2
 9d0:	49746553 	ldmdbmi	r4!, {r0, r1, r4, r6, r8, sl, sp, lr}^
 9d4:	7265746e 	rsbvc	r7, r5, #1845493760	@ 0x6e000000
 9d8:	74707572 	ldrbtvc	r7, [r0], #-1394	@ 0xfffffa8e
 9dc:	44434c00 	strbmi	r4, [r3], #-3072	@ 0xfffff400
 9e0:	43565f43 	cmpmi	r6, #268	@ 0x10c
 9e4:	465f544e 	ldrbmi	r5, [pc], -lr, asr #8
 9e8:	0047414c 	subeq	r4, r7, ip, asr #2
 9ec:	54746e49 	ldrbtpl	r6, [r4], #-3657	@ 0xfffff1b7
 9f0:	656c6261 	strbvs	r6, [ip, #-609]!	@ 0xfffffd9f
 9f4:	6e756600 	cdpvs	6, 7, cr6, cr5, cr0, {0}
 9f8:	6f697463 	svcvs	0x00697463
 9fc:	6e49006e 	cdpvs	0, 4, cr0, cr9, cr14, {3}
 a00:	61547274 	cmpvs	r4, r4, ror r2
 a04:	00656c62 	rsbeq	r6, r5, r2, ror #24
 a08:	4344434c 	cmpmi	r4, #76, 6	@ 0x30000001
 a0c:	4c42565f 	stclmi	6, cr5, [r2], {95}	@ 0x5f
 a10:	73616d00 	cmnvc	r1, #0, 26
 a14:	6e49006b 	cdpvs	0, 4, cr0, cr9, cr11, {3}
 a18:	6e497469 	cdpvs	4, 4, cr7, cr9, cr9, {3}
 a1c:	72726574 	rsbsvc	r6, r2, #116, 10	@ 0x1d000000
 a20:	00747075 	rsbseq	r7, r4, r5, ror r0
 a24:	44717269 	ldrbtmi	r7, [r1], #-617	@ 0xfffffd97
 a28:	62617369 	rsbvs	r7, r1, #-1543503871	@ 0xa4000001
 a2c:	4c00656c 	stcmi	5, cr6, [r0], {108}	@ 0x6c
 a30:	5f434443 	svcpl	0x00434443
 a34:	544e4356 	strbpl	r4, [lr], #-854	@ 0xfffffcaa
 a38:	6f682f00 	svcvs	0x00682f00
 a3c:	642f656d 	strtvs	r6, [pc], #-1389	@ a44 <_binary_assets_romhdr_bin_size+0x985>
 a40:	6d657661 	stclvs	6, cr7, [r5, #-388]!	@ 0xfffffe7c
 a44:	6f72702f 	svcvs	0x0072702f
 a48:	7463656a 	strbtvc	r6, [r3], #-1386	@ 0xfffffa96
 a4c:	65642f73 	strbvs	r2, [r4, #-3955]!	@ 0xfffff08d
 a50:	74696b76 	strbtvc	r6, [r9], #-2934	@ 0xfffff48a
 a54:	2f6f7270 	svccs	0x006f7270
 a58:	6d636170 	stclvs	1, cr6, [r3, #-448]!	@ 0xfffffe40
 a5c:	702d6e61 	eorvc	r6, sp, r1, ror #28
 a60:	616b6361 	cmnvs	fp, r1, ror #6
 a64:	2f736567 	svccs	0x00736567
 a68:	6762696c 	strbvs	r6, [r2, -ip, ror #18]!
 a6c:	732f6162 			@ <UNDEFINED> instruction: 0x732f6162
 a70:	6c2f6372 	stcvs	3, cr6, [pc], #-456	@ 8b0 <_binary_assets_romhdr_bin_size+0x7f1>
 a74:	62676269 	rsbvs	r6, r7, #-1879048186	@ 0x90000006
 a78:	2e302d61 	cdpcs	13, 3, cr2, cr0, cr1, {3}
 a7c:	2f342e35 	svccs	0x00342e35
 a80:	2f637273 	svccs	0x00637273
 a84:	65746e49 	ldrbvs	r6, [r4, #-3657]!	@ 0xfffff1b7
 a88:	70757272 	rsbsvc	r7, r5, r2, ror r2
 a8c:	73694474 	cmnvc	r9, #116, 8	@ 0x74000000
 a90:	63746170 	cmnvs	r4, #112, 2
 a94:	2e726568 	cdpcs	5, 7, cr6, cr2, cr8, {3}
 a98:	4e470073 	mcrmi	0, 2, r0, cr7, cr3, {3}
 a9c:	53412055 	cmppl	r1, #85	@ 0x55
 aa0:	342e3220 	strtcc	r3, [lr], #-544	@ 0xfffffde0
 aa4:	682f0031 	stmdavs	pc!, {r0, r4, r5}	@ <UNPREDICTABLE>
 aa8:	2f656d6f 	svccs	0x00656d6f
 aac:	65766164 	ldrbvs	r6, [r6, #-356]!	@ 0xfffffe9c
 ab0:	72702f6d 	rsbsvc	r2, r0, #436	@ 0x1b4
 ab4:	63656a6f 	cmnvs	r5, #454656	@ 0x6f000
 ab8:	642f7374 	strtvs	r7, [pc], #-884	@ ac0 <_binary_assets_romhdr_bin_size+0xa01>
 abc:	696b7665 	stmdbvs	fp!, {r0, r2, r5, r6, r9, sl, ip, sp, lr}^
 ac0:	6f727074 	svcvs	0x00727074
 ac4:	6361702f 	cmnvs	r1, #47	@ 0x2f
 ac8:	2d6e616d 	stclcs	1, cr6, [lr, #-436]!	@ 0xfffffe4c
 acc:	6b636170 	blvs	18d9094 <_binary_assets_romhdr_bin_size+0x18d8fd5>
 ad0:	73656761 	cmnvc	r5, #25427968	@ 0x1840000
 ad4:	62696c2f 	rsbvs	r6, r9, #12032	@ 0x2f00
 ad8:	2f616267 	svccs	0x00616267
 adc:	2f637273 	svccs	0x00637273
 ae0:	6762696c 	strbvs	r6, [r2, -ip, ror #18]!
 ae4:	302d6162 	eorcc	r6, sp, r2, ror #2
 ae8:	342e352e 	strtcc	r3, [lr], #-1326	@ 0xfffffad2
 aec:	6372732f 	cmnvs	r2, #-1140850688	@ 0xbc000000
 af0:	7365522f 	cmnvc	r5, #-268435454	@ 0xf0000002
 af4:	732e7465 			@ <UNDEFINED> instruction: 0x732e7465
	...

Disassembly of section .comment:

00000000 <.comment>:
   0:	3a434347 	bcc	10d0d24 <_binary_assets_romhdr_bin_size+0x10d0c65>
   4:	65642820 	strbvs	r2, [r4, #-2080]!	@ 0xfffff7e0
   8:	74696b76 	strbtvc	r6, [r9], #-2934	@ 0xfffff48a
   c:	204d5241 	subcs	r5, sp, r1, asr #4
  10:	656c6572 	strbvs	r6, [ip, #-1394]!	@ 0xfffffa8e
  14:	20657361 	rsbcs	r7, r5, r1, ror #6
  18:	20293636 	eorcs	r3, r9, r6, lsr r6
  1c:	312e3531 			@ <UNDEFINED> instruction: 0x312e3531
  20:	4700302e 	strmi	r3, [r0, -lr, lsr #32]
  24:	203a4343 	eorscs	r4, sl, r3, asr #6
  28:	76656428 	strbtvc	r6, [r5], -r8, lsr #8
  2c:	4174696b 	cmnmi	r4, fp, ror #18
  30:	72204d52 	eorvc	r4, r0, #5248	@ 0x1480
  34:	61656c65 	cmnvs	r5, r5, ror #24
  38:	36206573 			@ <UNDEFINED> instruction: 0x36206573
  3c:	31202933 			@ <UNDEFINED> instruction: 0x31202933
  40:	2e322e33 	mrccs	14, 1, r2, cr2, cr3, {1}
  44:	Address 0x44 is out of bounds.


Disassembly of section .ARM.attributes:

00000000 <.ARM.attributes>:
   0:	00002741 	andeq	r2, r0, r1, asr #14
   4:	61656100 	cmnvs	r5, r0, lsl #2
   8:	01006962 	tsteq	r0, r2, ror #18
   c:	0000001d 	andeq	r0, r0, sp, lsl r0
  10:	00543405 	subseq	r3, r4, r5, lsl #8
  14:	01080206 	tsteq	r8, r6, lsl #4
  18:	04120109 	ldreq	r0, [r2], #-265	@ 0xfffffef7
  1c:	01150114 	tsteq	r5, r4, lsl r1
  20:	01180317 	tsteq	r8, r7, lsl r3
  24:	021e011a 	andseq	r0, lr, #-2147483642	@ 0x80000006

Disassembly of section .debug_frame:

00000000 <.debug_frame>:
   0:	0000000c 	andeq	r0, r0, ip
   4:	ffffffff 			@ <UNDEFINED> instruction: 0xffffffff
   8:	7c020001 	stcvc	0, cr0, [r2], {1}
   c:	000d0c0e 	andeq	r0, sp, lr, lsl #24
  10:	0000000c 	andeq	r0, r0, ip
  14:	00000000 	andeq	r0, r0, r0
  18:	08000144 	stmdaeq	r0, {r2, r6, r8}
  1c:	00000004 	andeq	r0, r0, r4
  20:	00000018 	andeq	r0, r0, r8, lsl r0
  24:	00000000 	andeq	r0, r0, r0
  28:	08000148 	stmdaeq	r0, {r3, r6, r8}
  2c:	00000058 	andeq	r0, r0, r8, asr r0
  30:	84080e46 	strhi	r0, [r8], #-3654	@ 0xfffff1ba
  34:	60018e02 	andvs	r8, r1, r2, lsl #28
  38:	000ec4ce 	andeq	ip, lr, lr, asr #9
  3c:	0000000c 	andeq	r0, r0, ip
  40:	ffffffff 			@ <UNDEFINED> instruction: 0xffffffff
  44:	7c020001 	stcvc	0, cr0, [r2], {1}
  48:	000d0c0e 	andeq	r0, sp, lr, lsl #24
  4c:	00000014 	andeq	r0, r0, r4, lsl r0
  50:	0000003c 	andeq	r0, r0, ip, lsr r0
  54:	080001a0 	stmdaeq	r0, {r5, r7, r8}
  58:	000000c0 	andeq	r0, r0, r0, asr #1
  5c:	8e040e48 	cdphi	14, 0, cr0, cr4, cr8, {2}
  60:	00000001 	andeq	r0, r0, r1
  64:	0000000c 	andeq	r0, r0, ip
  68:	ffffffff 			@ <UNDEFINED> instruction: 0xffffffff
  6c:	7c020001 	stcvc	0, cr0, [r2], {1}
  70:	000d0c0e 	andeq	r0, sp, lr, lsl #24
  74:	0000000c 	andeq	r0, r0, ip
  78:	00000064 	andeq	r0, r0, r4, rrx
  7c:	08000260 	stmdaeq	r0, {r5, r6, r9}
  80:	0000002c 	andeq	r0, r0, ip, lsr #32
  84:	00000020 	andeq	r0, r0, r0, lsr #32
  88:	00000064 	andeq	r0, r0, r4, rrx
  8c:	0800028c 	stmdaeq	r0, {r2, r3, r7, r9}
  90:	00000040 	andeq	r0, r0, r0, asr #32
  94:	84080e4a 	strhi	r0, [r8], #-3658	@ 0xfffff1b6
  98:	4a018e02 	bmi	638a8 <_binary_assets_romhdr_bin_size+0x637e9>
  9c:	0ec4ce0a 	cdpeq	14, 12, cr12, cr4, cr10, {0}
  a0:	480b4200 	stmdami	fp, {r9, lr}
  a4:	000ec4ce 	andeq	ip, lr, lr, asr #9
  a8:	0000000c 	andeq	r0, r0, ip
  ac:	00000064 	andeq	r0, r0, r4, rrx
  b0:	080002cc 	stmdaeq	r0, {r2, r3, r6, r7, r9}
  b4:	00000018 	andeq	r0, r0, r8, lsl r0
  b8:	0000000c 	andeq	r0, r0, ip
  bc:	ffffffff 			@ <UNDEFINED> instruction: 0xffffffff
  c0:	7c020001 	stcvc	0, cr0, [r2], {1}
  c4:	000d0c0e 	andeq	r0, sp, lr, lsl #24
  c8:	00000018 	andeq	r0, r0, r8, lsl r0
  cc:	000000b8 	strheq	r0, [r0], -r8
  d0:	080002e4 	stmdaeq	r0, {r2, r5, r6, r7, r9}
  d4:	0000002c 	andeq	r0, r0, ip, lsr #32
  d8:	84080e42 	strhi	r0, [r8], #-3650	@ 0xfffff1be
  dc:	4e018e02 	cdpmi	14, 0, cr8, cr1, cr2, {0}
  e0:	000ec4ce 	andeq	ip, lr, lr, asr #9
  e4:	00000018 	andeq	r0, r0, r8, lsl r0
  e8:	000000b8 	strheq	r0, [r0], -r8
  ec:	08000310 	stmdaeq	r0, {r4, r8, r9}
  f0:	00000030 	andeq	r0, r0, r0, lsr r0
  f4:	84080e42 	strhi	r0, [r8], #-3650	@ 0xfffff1be
  f8:	54018e02 	strpl	r8, [r1], #-3586	@ 0xfffff1fe
  fc:	000ec4ce 	andeq	ip, lr, lr, asr #9
 100:	0000000c 	andeq	r0, r0, ip
 104:	000000b8 	strheq	r0, [r0], -r8
 108:	08000340 	stmdaeq	r0, {r6, r8, r9}
 10c:	00000060 	andeq	r0, r0, r0, rrx
 110:	00000018 	andeq	r0, r0, r8, lsl r0
 114:	000000b8 	strheq	r0, [r0], -r8
 118:	080003a0 	stmdaeq	r0, {r5, r7, r8, r9}
 11c:	00000050 	andeq	r0, r0, r0, asr r0
 120:	8e040e4a 	cdphi	14, 0, cr0, cr4, cr10, {2}
 124:	0ece5c01 	cdpeq	12, 12, cr5, cr14, cr1, {0}
 128:	00000000 	andeq	r0, r0, r0
 12c:	00000018 	andeq	r0, r0, r8, lsl r0
 130:	000000b8 	strheq	r0, [r0], -r8
 134:	080003f0 	stmdaeq	r0, {r4, r5, r6, r7, r8, r9}
 138:	00000034 	andeq	r0, r0, r4, lsr r0
 13c:	84080e44 	strhi	r0, [r8], #-3652	@ 0xfffff1bc
 140:	50018e02 	andpl	r8, r1, r2, lsl #28
 144:	000ec4ce 	andeq	ip, lr, lr, asr #9
 148:	00000018 	andeq	r0, r0, r8, lsl r0
 14c:	000000b8 	strheq	r0, [r0], -r8
 150:	08000424 	stmdaeq	r0, {r2, r5, sl}
 154:	0000006c 	andeq	r0, r0, ip, rrx
 158:	84080e46 	strhi	r0, [r8], #-3654	@ 0xfffff1ba
 15c:	6c018e02 	stcvs	14, cr8, [r1], {2}
 160:	000ec4ce 	andeq	ip, lr, lr, asr #9
 164:	00000018 	andeq	r0, r0, r8, lsl r0
 168:	000000b8 	strheq	r0, [r0], -r8
 16c:	080000c0 	stmdaeq	r0, {r6, r7}
 170:	0000007c 	andeq	r0, r0, ip, ror r0
 174:	84080e46 	strhi	r0, [r8], #-3654	@ 0xfffff1ba
 178:	6e018e02 	cdpvs	14, 0, cr8, cr1, cr2, {0}
 17c:	000ec4ce 	andeq	ip, lr, lr, asr #9
 180:	0000000c 	andeq	r0, r0, ip
 184:	ffffffff 			@ <UNDEFINED> instruction: 0xffffffff
 188:	7c020001 	stcvc	0, cr0, [r2], {1}
 18c:	000d0c0e 	andeq	r0, sp, lr, lsl #24
 190:	00000018 	andeq	r0, r0, r8, lsl r0
 194:	00000180 	andeq	r0, r0, r0, lsl #3
 198:	08000490 	stmdaeq	r0, {r4, r7, sl}
 19c:	0000005c 	andeq	r0, r0, ip, asr r0
 1a0:	84080e44 	strhi	r0, [r8], #-3652	@ 0xfffff1bc
 1a4:	5e018e02 	cdppl	14, 0, cr8, cr1, cr2, {0}
 1a8:	000ec4ce 	andeq	ip, lr, lr, asr #9
 1ac:	00000028 	andeq	r0, r0, r8, lsr #32
 1b0:	00000180 	andeq	r0, r0, r0, lsl #3
 1b4:	080004ec 	stmdaeq	r0, {r2, r3, r5, r6, r7, sl}
 1b8:	0000014c 	andeq	r0, r0, ip, asr #2
 1bc:	84140e42 	ldrhi	r0, [r4], #-3650	@ 0xfffff1be
 1c0:	86048505 	strhi	r8, [r4], -r5, lsl #10
 1c4:	8e028703 	cdphi	7, 0, cr8, cr2, cr3, {0}
 1c8:	0a6c0201 	beq	1b009d4 <_binary_assets_romhdr_bin_size+0x1b00915>
 1cc:	c5c6c7ce 	strbgt	ip, [r6, #1998]	@ 0x7ce
 1d0:	42000ec4 	andmi	r0, r0, #196, 28	@ 0xc40
 1d4:	0000000b 	andeq	r0, r0, fp
 1d8:	0000000c 	andeq	r0, r0, ip
 1dc:	ffffffff 			@ <UNDEFINED> instruction: 0xffffffff
 1e0:	7c020001 	stcvc	0, cr0, [r2], {1}
 1e4:	000d0c0e 	andeq	r0, sp, lr, lsl #24
 1e8:	0000000c 	andeq	r0, r0, ip
 1ec:	000001d8 			@ <UNDEFINED> instruction: 0x000001d8
 1f0:	08000638 	stmdaeq	r0, {r3, r4, r5, r9, sl}
 1f4:	00000010 	andeq	r0, r0, r0, lsl r0
 1f8:	0000000c 	andeq	r0, r0, ip
 1fc:	ffffffff 			@ <UNDEFINED> instruction: 0xffffffff
 200:	7c020001 	stcvc	0, cr0, [r2], {1}
 204:	000d0c0e 	andeq	r0, sp, lr, lsl #24
 208:	0000000c 	andeq	r0, r0, ip
 20c:	000001f8 			@ <UNDEFINED> instruction: 0x000001f8
 210:	08000648 	stmdaeq	r0, {r3, r6, r9, sl}
 214:	00000030 	andeq	r0, r0, r0, lsr r0
 218:	0000000c 	andeq	r0, r0, ip
 21c:	ffffffff 			@ <UNDEFINED> instruction: 0xffffffff
 220:	7c020001 	stcvc	0, cr0, [r2], {1}
 224:	000d0c0e 	andeq	r0, sp, lr, lsl #24
 228:	0000000c 	andeq	r0, r0, ip
 22c:	00000218 	andeq	r0, r0, r8, lsl r2
 230:	08000678 	stmdaeq	r0, {r3, r4, r5, r6, r9, sl}
 234:	0000001c 	andeq	r0, r0, ip, lsl r0
 238:	00000024 	andeq	r0, r0, r4, lsr #32
 23c:	00000218 	andeq	r0, r0, r8, lsl r2
 240:	08000694 	stmdaeq	r0, {r2, r4, r7, r9, sl}
 244:	0000007c 	andeq	r0, r0, ip, ror r0
 248:	84180e42 	ldrhi	r0, [r8], #-3650	@ 0xfffff1be
 24c:	86058506 	strhi	r8, [r5], -r6, lsl #10
 250:	88038704 	stmdahi	r3, {r2, r8, r9, sl, pc}
 254:	7a018e02 	bvc	63a64 <_binary_assets_romhdr_bin_size+0x639a5>
 258:	c6c7c8ce 	strbgt	ip, [r7], lr, asr #17
 25c:	000ec4c5 	andeq	ip, lr, r5, asr #9
 260:	0000000c 	andeq	r0, r0, ip
 264:	ffffffff 			@ <UNDEFINED> instruction: 0xffffffff
 268:	7c020001 	stcvc	0, cr0, [r2], {1}
 26c:	000d0c0e 	andeq	r0, sp, lr, lsl #24
 270:	00000018 	andeq	r0, r0, r8, lsl r0
 274:	00000260 	andeq	r0, r0, r0, ror #4
 278:	08000710 	stmdaeq	r0, {r4, r8, r9, sl}
 27c:	00000034 	andeq	r0, r0, r4, lsr r0
 280:	84080e42 	strhi	r0, [r8], #-3650	@ 0xfffff1be
 284:	50018e02 	andpl	r8, r1, r2, lsl #28
 288:	000ec4ce 	andeq	ip, lr, lr, asr #9
 28c:	0000000c 	andeq	r0, r0, ip
 290:	ffffffff 			@ <UNDEFINED> instruction: 0xffffffff
 294:	7c020001 	stcvc	0, cr0, [r2], {1}
 298:	000d0c0e 	andeq	r0, sp, lr, lsl #24
 29c:	0000000c 	andeq	r0, r0, ip
 2a0:	0000028c 	andeq	r0, r0, ip, lsl #5
 2a4:	0800013c 	stmdaeq	r0, {r2, r3, r4, r5, r8}
 2a8:	00000008 	andeq	r0, r0, r8
 2ac:	0000000c 	andeq	r0, r0, ip
 2b0:	ffffffff 			@ <UNDEFINED> instruction: 0xffffffff
 2b4:	7c020001 	stcvc	0, cr0, [r2], {1}
 2b8:	000d0c0e 	andeq	r0, sp, lr, lsl #24
 2bc:	00000018 	andeq	r0, r0, r8, lsl r0
 2c0:	000002ac 	andeq	r0, r0, ip, lsr #5
 2c4:	08001c18 	stmdaeq	r0, {r3, r4, sl, fp, ip}
 2c8:	00000014 	andeq	r0, r0, r4, lsl r0
 2cc:	84080e42 	strhi	r0, [r8], #-3650	@ 0xfffff1be
 2d0:	46018e02 	strmi	r8, [r1], -r2, lsl #28
 2d4:	000ec4ce 	andeq	ip, lr, lr, asr #9
 2d8:	0000000c 	andeq	r0, r0, ip
 2dc:	ffffffff 			@ <UNDEFINED> instruction: 0xffffffff
 2e0:	7c020001 	stcvc	0, cr0, [r2], {1}
 2e4:	000d0c0e 	andeq	r0, sp, lr, lsl #24
 2e8:	00000018 	andeq	r0, r0, r8, lsl r0
 2ec:	000002d8 			@ <UNDEFINED> instruction: 0x000002d8
 2f0:	08001c2c 	stmdaeq	r0, {r2, r3, r5, sl, fp, ip}
 2f4:	00000014 	andeq	r0, r0, r4, lsl r0
 2f8:	84080e42 	strhi	r0, [r8], #-3650	@ 0xfffff1be
 2fc:	46018e02 	strmi	r8, [r1], -r2, lsl #28
 300:	000ec4ce 	andeq	ip, lr, lr, asr #9
 304:	0000000c 	andeq	r0, r0, ip
 308:	ffffffff 			@ <UNDEFINED> instruction: 0xffffffff
 30c:	7c020001 	stcvc	0, cr0, [r2], {1}
 310:	000d0c0e 	andeq	r0, sp, lr, lsl #24
 314:	00000018 	andeq	r0, r0, r8, lsl r0
 318:	00000304 	andeq	r0, r0, r4, lsl #6
 31c:	08001c40 	stmdaeq	r0, {r6, sl, fp, ip}
 320:	00000078 	andeq	r0, r0, r8, ror r0
 324:	84080e42 	strhi	r0, [r8], #-3650	@ 0xfffff1be
 328:	70018e02 	andvc	r8, r1, r2, lsl #28
 32c:	000ec4ce 	andeq	ip, lr, lr, asr #9
 330:	00000014 	andeq	r0, r0, r4, lsl r0
 334:	00000304 	andeq	r0, r0, r4, lsl #6
 338:	08001cb8 	stmdaeq	r0, {r3, r4, r5, r7, sl, fp, ip}
 33c:	0000000c 	andeq	r0, r0, ip
 340:	84080e42 	strhi	r0, [r8], #-3650	@ 0xfffff1be
 344:	00018e02 	andeq	r8, r1, r2, lsl #28
 348:	00000014 	andeq	r0, r0, r4, lsl r0
 34c:	00000304 	andeq	r0, r0, r4, lsl #6
 350:	08001cc4 	stmdaeq	r0, {r2, r6, r7, sl, fp, ip}
 354:	00000010 	andeq	r0, r0, r0, lsl r0
 358:	84080e42 	strhi	r0, [r8], #-3650	@ 0xfffff1be
 35c:	00018e02 	andeq	r8, r1, r2, lsl #28
 360:	00000014 	andeq	r0, r0, r4, lsl r0
 364:	00000304 	andeq	r0, r0, r4, lsl #6
 368:	08001cd4 	stmdaeq	r0, {r2, r4, r6, r7, sl, fp, ip}
 36c:	00000008 	andeq	r0, r0, r8
 370:	84080e42 	strhi	r0, [r8], #-3650	@ 0xfffff1be
 374:	00018e02 	andeq	r8, r1, r2, lsl #28
 378:	0000000c 	andeq	r0, r0, ip
 37c:	ffffffff 			@ <UNDEFINED> instruction: 0xffffffff
 380:	7c020001 	stcvc	0, cr0, [r2], {1}
 384:	000d0c0e 	andeq	r0, sp, lr, lsl #24
 388:	00000014 	andeq	r0, r0, r4, lsl r0
 38c:	00000378 	andeq	r0, r0, r8, ror r3
 390:	08001cdc 	stmdaeq	r0, {r2, r3, r4, r6, r7, sl, fp, ip}
 394:	00000090 	muleq	r0, r0, r0
 398:	84080e44 	strhi	r0, [r8], #-3652	@ 0xfffff1bc
 39c:	00018e02 	andeq	r8, r1, r2, lsl #28
 3a0:	0000000c 	andeq	r0, r0, ip
 3a4:	ffffffff 			@ <UNDEFINED> instruction: 0xffffffff
 3a8:	7c020001 	stcvc	0, cr0, [r2], {1}
 3ac:	000d0c0e 	andeq	r0, sp, lr, lsl #24
 3b0:	00000018 	andeq	r0, r0, r8, lsl r0
 3b4:	000003a0 	andeq	r0, r0, r0, lsr #7
 3b8:	08001d6c 	stmdaeq	r0, {r2, r3, r5, r6, r8, sl, fp, ip}
 3bc:	00000014 	andeq	r0, r0, r4, lsl r0
 3c0:	84080e42 	strhi	r0, [r8], #-3650	@ 0xfffff1be
 3c4:	46018e02 	strmi	r8, [r1], -r2, lsl #28
 3c8:	000ec4ce 	andeq	ip, lr, lr, asr #9
 3cc:	0000000c 	andeq	r0, r0, ip
 3d0:	ffffffff 			@ <UNDEFINED> instruction: 0xffffffff
 3d4:	7c020001 	stcvc	0, cr0, [r2], {1}
 3d8:	000d0c0e 	andeq	r0, sp, lr, lsl #24
 3dc:	00000018 	andeq	r0, r0, r8, lsl r0
 3e0:	000003cc 	andeq	r0, r0, ip, asr #7
 3e4:	08001d80 	stmdaeq	r0, {r7, r8, sl, fp, ip}
 3e8:	00000014 	andeq	r0, r0, r4, lsl r0
 3ec:	84080e42 	strhi	r0, [r8], #-3650	@ 0xfffff1be
 3f0:	46018e02 	strmi	r8, [r1], -r2, lsl #28
 3f4:	000ec4ce 	andeq	ip, lr, lr, asr #9
 3f8:	0000000c 	andeq	r0, r0, ip
 3fc:	ffffffff 			@ <UNDEFINED> instruction: 0xffffffff
 400:	7c020001 	stcvc	0, cr0, [r2], {1}
 404:	000d0c0e 	andeq	r0, sp, lr, lsl #24
 408:	00000018 	andeq	r0, r0, r8, lsl r0
 40c:	000003f8 			@ <UNDEFINED> instruction: 0x000003f8
 410:	08001d94 	stmdaeq	r0, {r2, r4, r7, r8, sl, fp, ip}
 414:	00000014 	andeq	r0, r0, r4, lsl r0
 418:	84080e42 	strhi	r0, [r8], #-3650	@ 0xfffff1be
 41c:	46018e02 	strmi	r8, [r1], -r2, lsl #28
 420:	000ec4ce 	andeq	ip, lr, lr, asr #9
 424:	0000000c 	andeq	r0, r0, ip
 428:	ffffffff 			@ <UNDEFINED> instruction: 0xffffffff
 42c:	7c020001 	stcvc	0, cr0, [r2], {1}
 430:	000d0c0e 	andeq	r0, sp, lr, lsl #24
 434:	00000018 	andeq	r0, r0, r8, lsl r0
 438:	00000424 	andeq	r0, r0, r4, lsr #8
 43c:	08001da8 	stmdaeq	r0, {r3, r5, r7, r8, sl, fp, ip}
 440:	00000014 	andeq	r0, r0, r4, lsl r0
 444:	84080e42 	strhi	r0, [r8], #-3650	@ 0xfffff1be
 448:	46018e02 	strmi	r8, [r1], -r2, lsl #28
 44c:	000ec4ce 	andeq	ip, lr, lr, asr #9
 450:	0000000c 	andeq	r0, r0, ip
 454:	ffffffff 			@ <UNDEFINED> instruction: 0xffffffff
 458:	7c020001 	stcvc	0, cr0, [r2], {1}
 45c:	000d0c0e 	andeq	r0, sp, lr, lsl #24
 460:	00000018 	andeq	r0, r0, r8, lsl r0
 464:	00000450 	andeq	r0, r0, r0, asr r4
 468:	08001dbc 	stmdaeq	r0, {r2, r3, r4, r5, r7, r8, sl, fp, ip}
 46c:	00000014 	andeq	r0, r0, r4, lsl r0
 470:	84080e42 	strhi	r0, [r8], #-3650	@ 0xfffff1be
 474:	46018e02 	strmi	r8, [r1], -r2, lsl #28
 478:	000ec4ce 	andeq	ip, lr, lr, asr #9
 47c:	0000000c 	andeq	r0, r0, ip
 480:	ffffffff 			@ <UNDEFINED> instruction: 0xffffffff
 484:	7c020001 	stcvc	0, cr0, [r2], {1}
 488:	000d0c0e 	andeq	r0, sp, lr, lsl #24
 48c:	00000018 	andeq	r0, r0, r8, lsl r0
 490:	0000047c 	andeq	r0, r0, ip, ror r4
 494:	08001dd0 	stmdaeq	r0, {r4, r6, r7, r8, sl, fp, ip}
 498:	00000014 	andeq	r0, r0, r4, lsl r0
 49c:	84080e42 	strhi	r0, [r8], #-3650	@ 0xfffff1be
 4a0:	46018e02 	strmi	r8, [r1], -r2, lsl #28
 4a4:	000ec4ce 	andeq	ip, lr, lr, asr #9
 4a8:	0000000c 	andeq	r0, r0, ip
 4ac:	ffffffff 			@ <UNDEFINED> instruction: 0xffffffff
 4b0:	7c020001 	stcvc	0, cr0, [r2], {1}
 4b4:	000d0c0e 	andeq	r0, sp, lr, lsl #24
 4b8:	00000018 	andeq	r0, r0, r8, lsl r0
 4bc:	000004a8 	andeq	r0, r0, r8, lsr #9
 4c0:	08001de4 	stmdaeq	r0, {r2, r5, r6, r7, r8, sl, fp, ip}
 4c4:	00000014 	andeq	r0, r0, r4, lsl r0
 4c8:	84080e42 	strhi	r0, [r8], #-3650	@ 0xfffff1be
 4cc:	46018e02 	strmi	r8, [r1], -r2, lsl #28
 4d0:	000ec4ce 	andeq	ip, lr, lr, asr #9
 4d4:	0000000c 	andeq	r0, r0, ip
 4d8:	ffffffff 			@ <UNDEFINED> instruction: 0xffffffff
 4dc:	7c020001 	stcvc	0, cr0, [r2], {1}
 4e0:	000d0c0e 	andeq	r0, sp, lr, lsl #24
 4e4:	0000000c 	andeq	r0, r0, ip
 4e8:	000004d4 			@ <UNDEFINED> instruction: 0x000004d4
 4ec:	08001df8 	stmdaeq	r0, {r3, r4, r5, r6, r7, r8, sl, fp, ip}
 4f0:	00000004 	andeq	r0, r0, r4
 4f4:	0000000c 	andeq	r0, r0, ip
 4f8:	000004d4 			@ <UNDEFINED> instruction: 0x000004d4
 4fc:	08001dfc 	stmdaeq	r0, {r2, r3, r4, r5, r6, r7, r8, sl, fp, ip}
 500:	00000004 	andeq	r0, r0, r4
 504:	0000000c 	andeq	r0, r0, ip
 508:	ffffffff 			@ <UNDEFINED> instruction: 0xffffffff
 50c:	7c020001 	stcvc	0, cr0, [r2], {1}
 510:	000d0c0e 	andeq	r0, sp, lr, lsl #24
 514:	0000000c 	andeq	r0, r0, ip
 518:	00000504 	andeq	r0, r0, r4, lsl #10
 51c:	08001e00 	stmdaeq	r0, {r9, sl, fp, ip}
 520:	00000002 	andeq	r0, r0, r2
 524:	0000000c 	andeq	r0, r0, ip
 528:	00000504 	andeq	r0, r0, r4, lsl #10
 52c:	08001e04 	stmdaeq	r0, {r2, r9, sl, fp, ip}
 530:	0000005c 	andeq	r0, r0, ip, asr r0
 534:	0000000c 	andeq	r0, r0, ip
 538:	00000504 	andeq	r0, r0, r4, lsl #10
 53c:	08001e60 	stmdaeq	r0, {r5, r6, r9, sl, fp, ip}
 540:	0000005c 	andeq	r0, r0, ip, asr r0
 544:	00000014 	andeq	r0, r0, r4, lsl r0
 548:	00000504 	andeq	r0, r0, r4, lsl #10
 54c:	08001ebc 	stmdaeq	r0, {r2, r3, r4, r5, r7, r9, sl, fp, ip}
 550:	000000e8 	andeq	r0, r0, r8, ror #1
 554:	84080e44 	strhi	r0, [r8], #-3652	@ 0xfffff1bc
 558:	00018e02 	andeq	r8, r1, r2, lsl #28
 55c:	00000014 	andeq	r0, r0, r4, lsl r0
 560:	00000504 	andeq	r0, r0, r4, lsl #10
 564:	08001fa4 	stmdaeq	r0, {r2, r5, r7, r8, r9, sl, fp, ip}
 568:	000000e8 	andeq	r0, r0, r8, ror #1
 56c:	84080e44 	strhi	r0, [r8], #-3652	@ 0xfffff1bc
 570:	00018e02 	andeq	r8, r1, r2, lsl #28
 574:	0000000c 	andeq	r0, r0, ip
 578:	00000504 	andeq	r0, r0, r4, lsl #10
 57c:	0800208c 	stmdaeq	r0, {r2, r3, r7, sp}
 580:	0000004c 	andeq	r0, r0, ip, asr #32
 584:	0000000c 	andeq	r0, r0, ip
 588:	00000504 	andeq	r0, r0, r4, lsl #10
 58c:	080020d8 	stmdaeq	r0, {r3, r4, r6, r7, sp}
 590:	00000054 	andeq	r0, r0, r4, asr r0
 594:	0000000c 	andeq	r0, r0, ip
 598:	00000504 	andeq	r0, r0, r4, lsl #10
 59c:	0800212c 	stmdaeq	r0, {r2, r3, r5, r8, sp}
 5a0:	0000004c 	andeq	r0, r0, ip, asr #32
 5a4:	0000000c 	andeq	r0, r0, ip
 5a8:	00000504 	andeq	r0, r0, r4, lsl #10
 5ac:	08002178 	stmdaeq	r0, {r3, r4, r5, r6, r8, sp}
 5b0:	0000004c 	andeq	r0, r0, ip, asr #32

Disassembly of section .debug_loclists:

00000000 <.debug_loclists>:
   0:	0000003c 	andeq	r0, r0, ip, lsr r0
   4:	00040005 	andeq	r0, r4, r5
	...
  10:	01700004 	cmneq	r0, r4
  14:	c0700450 	rsbsgt	r0, r0, r0, asr r4
  18:	03a30a01 			@ <UNDEFINED> instruction: 0x03a30a01
  1c:	a82b00a5 	stmdage	fp!, {r0, r2, r5, r7}
  20:	9f00a832 	svcls	0x0000a832
  24:	04040300 	streq	r0, [r4], #-768	@ 0xfffffd00
  28:	30021c1c 	andcc	r1, r2, ip, lsl ip
  2c:	0000009f 	muleq	r0, pc, r0	@ <UNPREDICTABLE>
  30:	02745804 	rsbseq	r5, r4, #4, 16	@ 0x40000
  34:	00009f30 	andeq	r9, r0, r0, lsr pc
  38:	78740400 	ldmdavc	r4!, {sl}^
  3c:	009f3002 	addseq	r3, pc, r2
  40:	00000075 	andeq	r0, r0, r5, ror r0
  44:	00040005 	andeq	r0, r4, r5
	...
  58:	014c2c04 	cmpeq	ip, r4, lsl #24
  5c:	4f4c0450 	svcmi	0x004c0450
  60:	4f045101 	svcmi	0x00045101
  64:	03a30a58 			@ <UNDEFINED> instruction: 0x03a30a58
  68:	a82b00a5 	stmdage	fp!, {r0, r2, r5, r7}
  6c:	9f00a832 	svcls	0x0000a832
  70:	015c5804 	cmpeq	ip, r4, lsl #16
  74:	635c0450 	cmpvs	ip, #80, 8	@ 0x50000000
  78:	63045101 	tstvs	r4, #1073741824	@ 0x40000000
  7c:	03a30a6c 			@ <UNDEFINED> instruction: 0x03a30a6c
  80:	a82b00a5 	stmdage	fp!, {r0, r2, r5, r7}
  84:	9f00a832 	svcls	0x0000a832
  88:	00000000 	andeq	r0, r0, r0
  8c:	442c0400 	strtmi	r0, [ip], #-1024	@ 0xfffffc00
  90:	44045101 	strmi	r5, [r4], #-257	@ 0xfffffeff
  94:	03a30a6c 			@ <UNDEFINED> instruction: 0x03a30a6c
  98:	a82b01a5 	stmdage	fp!, {r0, r2, r5, r7, r8}
  9c:	9f00a832 	svcls	0x0000a832
  a0:	00000000 	andeq	r0, r0, r0
  a4:	0c000400 	stceq	4, cr0, [r0], {-0}
  a8:	0c045101 	stceq	1, cr5, [r4], {1}
  ac:	03a30a2c 			@ <UNDEFINED> instruction: 0x03a30a2c
  b0:	a82b01a5 	stmdage	fp!, {r0, r2, r5, r7, r8}
  b4:	9f00a832 	svcls	0x0000a832
  b8:	0000ce00 	andeq	ip, r0, r0, lsl #28
  bc:	04000500 	streq	r0, [r0], #-1280	@ 0xfffffb00
  c0:	00000000 	andeq	r0, r0, r0
  c4:	01010600 	tsteq	r1, r0, lsl #12
  c8:	01010404 	tsteq	r1, r4, lsl #8
  cc:	01010404 	tsteq	r1, r4, lsl #8
  d0:	01010101 	tsteq	r1, r1, lsl #2
  d4:	04240605 	strteq	r0, [r4], #-1541	@ 0xfffff9fb
  d8:	00040800 	andeq	r0, r4, r0, lsl #16
  dc:	9f300228 	svcls	0x00300228
  e0:	02282804 	eoreq	r2, r8, #4, 16	@ 0x40000
  e4:	28049f31 	stmdacs	r4, {r0, r4, r5, r8, r9, sl, fp, ip, pc}
  e8:	9f32022c 	svcls	0x0032022c
  ec:	022c2c04 	eoreq	r2, ip, #4, 24	@ 0x400
  f0:	2c049f33 	stccs	15, cr9, [r4], {51}	@ 0x33
  f4:	9f34023c 	svcls	0x0034023c
  f8:	024c3c04 	subeq	r3, ip, #4, 24	@ 0x400
  fc:	4c049f35 	stcmi	15, cr9, [r4], {53}	@ 0x35
 100:	9f360250 	svcls	0x00360250
 104:	02505004 	subseq	r5, r0, #4
 108:	04009f37 	streq	r9, [r0], #-3895	@ 0xfffff0c9
 10c:	00000000 	andeq	r0, r0, r0
 110:	06000001 	streq	r0, [r0], -r1
 114:	08000340 	stmdaeq	r0, {r6, r8, r9}
 118:	020c0004 	andeq	r0, ip, #4
 11c:	0c049f30 	stceq	15, cr9, [r4], {48}	@ 0x30
 120:	8073061c 	rsbshi	r0, r3, ip, lsl r6
 124:	9f688080 	svcls	0x00688080
 128:	06281c04 	strteq	r1, [r8], -r4, lsl #24
 12c:	ffffff73 			@ <UNDEFINED> instruction: 0xffffff73
 130:	40049f67 	andmi	r9, r4, r7, ror #30
 134:	ff730648 			@ <UNDEFINED> instruction: 0xff730648
 138:	9f67ffff 	svcls	0x0067ffff
 13c:	01010400 	tsteq	r1, r0, lsl #8
 140:	01010101 	tsteq	r1, r1, lsl #2
 144:	07070404 	streq	r0, [r7, -r4, lsl #8]
 148:	01010101 	tsteq	r1, r1, lsl #2
 14c:	06000101 	streq	r0, [r0], -r1, lsl #2
 150:	080003a0 	stmdaeq	r0, {r5, r7, r8, r9}
 154:	02200004 	eoreq	r0, r0, #4
 158:	20049f30 	andcs	r9, r4, r0, lsr pc
 15c:	9f310224 	svcls	0x00310224
 160:	023c2404 	eorseq	r2, ip, #4, 8	@ 0x4000000
 164:	3c049f32 	stccc	15, cr9, [r4], {50}	@ 0x32
 168:	9f33023c 	svcls	0x0033023c
 16c:	023c3c04 	eorseq	r3, ip, #4, 24	@ 0x400
 170:	3c049f34 	stccc	15, cr9, [r4], {52}	@ 0x34
 174:	9f350240 	svcls	0x00350240
 178:	02444004 	subeq	r4, r4, #4
 17c:	44049f36 	strmi	r9, [r4], #-3894	@ 0xfffff0ca
 180:	9f370248 	svcls	0x00370248
 184:	02504804 	subseq	r4, r0, #4, 16	@ 0x40000
 188:	19009f38 	stmdbne	r0, {r3, r4, r5, r8, r9, sl, fp, ip, pc}
 18c:	05000001 	streq	r0, [r0, #-1]
 190:	00000400 	andeq	r0, r0, r0, lsl #8
	...
 19c:	00000202 	andeq	r0, r0, r2, lsl #4
 1a0:	02000202 	andeq	r0, r0, #536870912	@ 0x20000000
 1a4:	01840400 	orreq	r0, r4, r0, lsl #8
 1a8:	03060198 	tsteq	r6, #152, 2	@ 0x26
 1ac:	03000004 	tsteq	r0, #4
 1b0:	0198049f 			@ <UNDEFINED> instruction: 0x0198049f
 1b4:	530101bc 	tstpl	r1, #188, 2	@ 0x2f
 1b8:	bc01bc04 	stclt	12, cr11, [r1], {4}
 1bc:	7c730301 	ldclvc	3, cr0, [r3], #-4
 1c0:	01bc049f 			@ <UNDEFINED> instruction: 0x01bc049f
 1c4:	530101fc 	tstpl	r1, #252, 2	@ 0x3f
 1c8:	fc01fc04 			@ <UNDEFINED> instruction: 0xfc01fc04
 1cc:	7c730301 	ldclvc	3, cr0, [r3], #-4
 1d0:	01fc049f 			@ <UNDEFINED> instruction: 0x01fc049f
 1d4:	5301028c 	tstpl	r1, #140, 4	@ 0xc0000008
 1d8:	b0028c04 	andlt	r8, r2, r4, lsl #24
 1dc:	c8030f02 	stmdagt	r3, {r1, r8, r9, sl, fp}
 1e0:	06030009 	streq	r0, [r3], -r9
 1e4:	04032432 	streq	r2, [r3], #-1074	@ 0xfffffbce
 1e8:	22030000 	andcs	r0, r3, #0
 1ec:	0000009f 	muleq	r0, pc, r0	@ <UNPREDICTABLE>
 1f0:	00010100 	andeq	r0, r1, r0, lsl #2
 1f4:	fc01d404 			@ <UNDEFINED> instruction: 0xfc01d404
 1f8:	00730901 	rsbseq	r0, r3, r1, lsl #18
 1fc:	ffb16003 			@ <UNDEFINED> instruction: 0xffb16003
 200:	049f1c00 	ldreq	r1, [pc], #3072	@ 208 <_binary_assets_romhdr_bin_size+0x149>
 204:	01fc01fc 	ldrsheq	r0, [ip, #28]!
 208:	03007309 	tsteq	r0, #603979776	@ 0x24000000
 20c:	00ffb164 	rscseq	fp, pc, r4, ror #2
 210:	fc049f1c 			@ <UNDEFINED> instruction: 0xfc049f1c
 214:	09028c01 	stmdbeq	r2, {r0, sl, fp, pc}
 218:	60030073 	andvs	r0, r3, r3, ror r0
 21c:	1c00ffb1 	stcne	15, cr15, [r0], {177}	@ 0xb1
 220:	0201009f 	andeq	r0, r1, #159	@ 0x9f
 224:	00030302 	andeq	r0, r3, r2, lsl #6
 228:	b0040000 	andlt	r0, r4, r0
 22c:	0102b002 	tsteq	r2, r2
 230:	02b00452 	adcseq	r0, r0, #1375731712	@ 0x52000000
 234:	530102b0 	tstpl	r1, #176, 4
 238:	b402b004 	strlt	fp, [r2], #-4
 23c:	04500102 	ldrbeq	r0, [r0], #-258	@ 0xfffffefe
 240:	02bc02b4 	adcseq	r0, ip, #180, 4	@ 0x4000000b
 244:	3f00730f 	svccc	0x0000730f
 248:	80801124 	addhi	r1, r0, r4, lsr #2
 24c:	1a7efe98 	bne	1fbfcb4 <_binary_assets_romhdr_bin_size+0x1fbfbf5>
 250:	9f270073 	svcls	0x00270073
 254:	04000000 	streq	r0, [r0], #-0
 258:	01980184 	orrseq	r0, r8, r4, lsl #3
 25c:	009f3002 	addseq	r3, pc, r2
 260:	00010000 	andeq	r0, r1, r0
 264:	d4040000 	strle	r0, [r4], #-0
 268:	0102e402 	tsteq	r2, r2, lsl #8
 26c:	02f40453 	rscseq	r0, r4, #1392508928	@ 0x53000000
 270:	530102fc 	tstpl	r1, #252, 4	@ 0xc000000f
 274:	8002fc04 	andhi	pc, r2, r4, lsl #24
 278:	017c0303 	cmneq	ip, r3, lsl #6
 27c:	0000009f 	muleq	r0, pc, r0	@ <UNPREDICTABLE>
 280:	8002dc04 	andhi	sp, r2, r4, lsl #24
 284:	00520103 	subseq	r0, r2, r3, lsl #2
 288:	00010000 	andeq	r0, r1, r0
 28c:	01240004 			@ <UNDEFINED> instruction: 0x01240004
 290:	5c340450 	ldcpl	4, cr0, [r4], #-320	@ 0xfffffec0
 294:	00005001 	andeq	r5, r0, r1
 298:	401c0400 	andsmi	r0, ip, r0, lsl #8
 29c:	04005301 	streq	r5, [r0], #-769	@ 0xfffffcff
 2a0:	14000401 	strne	r0, [r0], #-1025	@ 0xfffffbff
 2a4:	009f3002 	addseq	r3, pc, r2
 2a8:	00000031 	andeq	r0, r0, r1, lsr r0
 2ac:	00040005 	andeq	r0, r4, r5
	...
 2b8:	010c0004 	tsteq	ip, r4
 2bc:	100c0450 	andne	r0, ip, r0, asr r4
 2c0:	a503a30a 	strge	sl, [r3, #-778]	@ 0xfffffcf6
 2c4:	32a82b00 	adccc	r2, r8, #0, 22
 2c8:	009f00a8 	addseq	r0, pc, r8, lsr #1
 2cc:	00000000 	andeq	r0, r0, r0
 2d0:	01040004 	tsteq	r4, r4
 2d4:	10040451 	andne	r0, r4, r1, asr r4
 2d8:	9f7f7103 	svcls	0x007f7103
 2dc:	00005e00 	andeq	r5, r0, r0, lsl #28
 2e0:	04000500 	streq	r0, [r0], #-1280	@ 0xfffffb00
	...
 2f0:	471c0400 	ldrmi	r0, [ip, -r0, lsl #8]
 2f4:	47045001 	strmi	r5, [r4, -r1]
 2f8:	0454016c 	ldrbeq	r0, [r4], #-364	@ 0xfffffe94
 2fc:	0501946c 	streq	r9, [r1, #-1132]	@ 0xfffffb94
 300:	7fb28074 	svcvc	0x00b28074
 304:	0194049f 			@ <UNDEFINED> instruction: 0x0194049f
 308:	a30a0198 	tstge	sl, #152, 2	@ 0x26
 30c:	2b00a503 	blcs	29720 <_binary_assets_romhdr_bin_size+0x29661>
 310:	00a832a8 	adceq	r3, r8, r8, lsr #5
 314:	0102009f 	swpeq	r0, pc, [r2]	@ <UNPREDICTABLE>
 318:	01010101 	tsteq	r1, r1, lsl #2
 31c:	00010101 	andeq	r0, r1, r1, lsl #2
 320:	020c0804 	andeq	r0, ip, #4, 16	@ 0x40000
 324:	0c049f30 	stceq	15, cr9, [r4], {48}	@ 0x30
 328:	9f310210 	svcls	0x00310210
 32c:	02141004 	andseq	r1, r4, #4
 330:	14049f32 	strne	r9, [r4], #-3890	@ 0xfffff0ce
 334:	9f330218 	svcls	0x00330218
 338:	021c1804 	andseq	r1, ip, #4, 16	@ 0x40000
 33c:	1e009f34 	mcrne	15, 0, r9, cr0, cr4, {1}
 340:	05000000 	streq	r0, [r0, #-0]
 344:	00000400 	andeq	r0, r0, r0, lsl #8
	...
 350:	17100400 	ldrne	r0, [r0, -r0, lsl #8]
 354:	24045001 	strcs	r5, [r4], #-1
 358:	0450012b 	ldrbeq	r0, [r0], #-299	@ 0xfffffed5
 35c:	50013f38 	andpl	r3, r1, r8, lsr pc
 360:	0000b600 	andeq	fp, r0, r0, lsl #12
 364:	04000500 	streq	r0, [r0], #-1280	@ 0xfffffb00
	...
 370:	1dfc0600 	ldclne	6, cr0, [ip]
 374:	00040800 	andeq	r0, r4, r0, lsl #16
 378:	04500102 	ldrbeq	r0, [r0], #-258	@ 0xfffffefe
 37c:	a30a0402 	tstge	sl, #33554432	@ 0x2000000
 380:	2600a503 	strcs	sl, [r0], -r3, lsl #10
 384:	00a82da8 	adceq	r2, r8, r8, lsr #27
 388:	0000009f 	muleq	r0, pc, r0	@ <UNPREDICTABLE>
 38c:	fc060000 			@ <UNDEFINED> instruction: 0xfc060000
 390:	0408001d 	streq	r0, [r8], #-29	@ 0xffffffe3
 394:	51010200 	mrspl	r0, R9_usr
 398:	0a040204 	beq	100bb0 <_binary_assets_romhdr_bin_size+0x100af1>
 39c:	01a503a3 			@ <UNDEFINED> instruction: 0x01a503a3
 3a0:	a82da826 	stmdage	sp!, {r1, r2, r5, fp, sp, pc}
 3a4:	00009f00 	andeq	r9, r0, r0, lsl #30
 3a8:	06000000 	streq	r0, [r0], -r0
 3ac:	08001dfc 	stmdaeq	r0, {r2, r3, r4, r5, r6, r7, r8, sl, fp, ip}
 3b0:	01020004 	tsteq	r2, r4
 3b4:	04020452 	streq	r0, [r2], #-1106	@ 0xfffffbae
 3b8:	a503a30a 	strge	sl, [r3, #-778]	@ 0xfffffcf6
 3bc:	2da82602 	stccs	6, cr2, [r8, #8]!
 3c0:	009f00a8 	addseq	r0, pc, r8, lsr #1
 3c4:	00000000 	andeq	r0, r0, r0
 3c8:	001df806 	andseq	pc, sp, r6, lsl #16
 3cc:	02000408 	andeq	r0, r0, #8, 8	@ 0x8000000
 3d0:	02045001 	andeq	r5, r4, #1
 3d4:	03a30a04 			@ <UNDEFINED> instruction: 0x03a30a04
 3d8:	a82600a5 	stmdage	r6!, {r0, r2, r5, r7}
 3dc:	9f00a82d 	svcls	0x0000a82d
 3e0:	00000000 	andeq	r0, r0, r0
 3e4:	1df80600 	ldclne	6, cr0, [r8]
 3e8:	00040800 	andeq	r0, r4, r0, lsl #16
 3ec:	04510102 	ldrbeq	r0, [r1], #-258	@ 0xfffffefe
 3f0:	a30a0402 	tstge	sl, #33554432	@ 0x2000000
 3f4:	2601a503 	strcs	sl, [r1], -r3, lsl #10
 3f8:	00a82da8 	adceq	r2, r8, r8, lsr #27
 3fc:	0000009f 	muleq	r0, pc, r0	@ <UNPREDICTABLE>
 400:	f8060000 			@ <UNDEFINED> instruction: 0xf8060000
 404:	0408001d 	streq	r0, [r8], #-29	@ 0xffffffe3
 408:	52010200 	andpl	r0, r1, #0, 4
 40c:	0a040204 	beq	100c24 <_binary_assets_romhdr_bin_size+0x100b65>
 410:	02a503a3 	adceq	r0, r5, #-1946157054	@ 0x8c000002
 414:	a82da826 	stmdage	sp!, {r1, r2, r5, fp, sp, pc}
 418:	f0009f00 			@ <UNDEFINED> instruction: 0xf0009f00
 41c:	05000002 	streq	r0, [r0, #-2]
 420:	00000400 	andeq	r0, r0, r0, lsl #8
 424:	02000000 	andeq	r0, r0, #0
 428:	06ac0400 	strteq	r0, [ip], r0, lsl #8
 42c:	700706ea 	andvc	r0, r7, sl, ror #13
 430:	ffff0a00 			@ <UNDEFINED> instruction: 0xffff0a00
 434:	00009f1a 	andeq	r9, r0, sl, lsl pc
 438:	04000000 	streq	r0, [r0], #-0
 43c:	05c2058c 	strbeq	r0, [r2, #1420]	@ 0x58c
 440:	c2045001 	andgt	r5, r4, #1
 444:	0a05d805 	beq	176460 <_binary_assets_romhdr_bin_size+0x1763a1>
 448:	00a503a3 	adceq	r0, r5, r3, lsr #7
 44c:	a82da826 	stmdage	sp!, {r1, r2, r5, fp, sp, pc}
 450:	02009f00 	andeq	r9, r0, #0, 30
 454:	04000000 	streq	r0, [r0], #-0
 458:	05c2058c 	strbeq	r0, [r2, #1420]	@ 0x58c
 45c:	0a007007 	beq	1c480 <_binary_assets_romhdr_bin_size+0x1c3c1>
 460:	9f1affff 	svcls	0x001affff
 464:	ca05c204 	bgt	170c7c <_binary_assets_romhdr_bin_size+0x170bbd>
 468:	03a30e05 			@ <UNDEFINED> instruction: 0x03a30e05
 46c:	a82600a5 	stmdage	r6!, {r0, r2, r5, r7}
 470:	0a00a82d 	beq	2a52c <_binary_assets_romhdr_bin_size+0x2a46d>
 474:	9f1affff 	svcls	0x001affff
 478:	02020500 	andeq	r0, r2, #0, 10
 47c:	01010101 	tsteq	r1, r1, lsl #2
 480:	01010101 	tsteq	r1, r1, lsl #2
 484:	01010101 	tsteq	r1, r1, lsl #2
 488:	01010101 	tsteq	r1, r1, lsl #2
 48c:	01010101 	tsteq	r1, r1, lsl #2
 490:	01010101 	tsteq	r1, r1, lsl #2
 494:	01010101 	tsteq	r1, r1, lsl #2
 498:	0e040400 	cdpeq	4, 0, cr0, cr4, cr0, {0}
 49c:	049f3002 	ldreq	r3, [pc], #2	@ 4a4 <_binary_assets_romhdr_bin_size+0x3e5>
 4a0:	3102120e 	tstcc	r2, lr, lsl #4
 4a4:	1612049f 			@ <UNDEFINED> instruction: 0x1612049f
 4a8:	049f3202 	ldreq	r3, [pc], #514	@ 4b0 <_binary_assets_romhdr_bin_size+0x3f1>
 4ac:	33021a16 	tstcc	r2, #90112	@ 0x16000
 4b0:	1e1a049f 	mrcne	4, 0, r0, cr10, cr15, {4}
 4b4:	049f3402 	ldreq	r3, [pc], #1026	@ 4bc <_binary_assets_romhdr_bin_size+0x3fd>
 4b8:	3502221e 	strcc	r2, [r2, #-542]	@ 0xfffffde2
 4bc:	2622049f 			@ <UNDEFINED> instruction: 0x2622049f
 4c0:	049f3602 	ldreq	r3, [pc], #1538	@ 4c8 <_binary_assets_romhdr_bin_size+0x409>
 4c4:	37022a26 	strcc	r2, [r2, -r6, lsr #20]
 4c8:	2e2a049f 	mcrcs	4, 1, r0, cr10, cr15, {4}
 4cc:	049f3802 	ldreq	r3, [pc], #2050	@ 4d4 <_binary_assets_romhdr_bin_size+0x415>
 4d0:	3902322e 	stmdbcc	r2, {r1, r2, r3, r5, r9, ip, sp}
 4d4:	3632049f 			@ <UNDEFINED> instruction: 0x3632049f
 4d8:	049f3a02 	ldreq	r3, [pc], #2562	@ 4e0 <_binary_assets_romhdr_bin_size+0x421>
 4dc:	3b023a36 	blcc	8edbc <_binary_assets_romhdr_bin_size+0x8ecfd>
 4e0:	3e3a049f 	mrccc	4, 1, r0, cr10, cr15, {4}
 4e4:	049f3c02 	ldreq	r3, [pc], #3074	@ 4ec <_binary_assets_romhdr_bin_size+0x42d>
 4e8:	3d02423e 	stccc	2, cr4, [r2, #-248]	@ 0xffffff08
 4ec:	4642049f 			@ <UNDEFINED> instruction: 0x4642049f
 4f0:	049f3e02 	ldreq	r3, [pc], #3586	@ 4f8 <_binary_assets_romhdr_bin_size+0x439>
 4f4:	3f024c46 	svccc	0x00024c46
 4f8:	0203009f 	andeq	r0, r3, #159	@ 0x9f
 4fc:	01010102 	tsteq	r1, r2, lsl #2
 500:	01010101 	tsteq	r1, r1, lsl #2
 504:	01010101 	tsteq	r1, r1, lsl #2
 508:	01010101 	tsteq	r1, r1, lsl #2
 50c:	01010101 	tsteq	r1, r1, lsl #2
 510:	01010101 	tsteq	r1, r1, lsl #2
 514:	01010101 	tsteq	r1, r1, lsl #2
 518:	60040001 	andvs	r0, r4, r1
 51c:	9f30026a 	svcls	0x0030026a
 520:	026e6a04 	rsbeq	r6, lr, #4, 20	@ 0x4000
 524:	6e049f31 	mcrvs	15, 0, r9, cr4, cr1, {1}
 528:	9f320272 	svcls	0x00320272
 52c:	02767204 	rsbseq	r7, r6, #4, 4	@ 0x40000000
 530:	76049f33 			@ <UNDEFINED> instruction: 0x76049f33
 534:	9f34027a 	svcls	0x0034027a
 538:	027e7a04 	rsbseq	r7, lr, #4, 20	@ 0x4000
 53c:	7e049f35 	mcrvc	15, 0, r9, cr4, cr5, {1}
 540:	36020182 	strcc	r0, [r2], -r2, lsl #3
 544:	0182049f 			@ <UNDEFINED> instruction: 0x0182049f
 548:	37020186 	strcc	r0, [r2, -r6, lsl #3]
 54c:	0186049f 			@ <UNDEFINED> instruction: 0x0186049f
 550:	3802018a 	stmdacc	r2, {r1, r3, r7, r8}
 554:	018a049f 			@ <UNDEFINED> instruction: 0x018a049f
 558:	3902018e 	stmdbcc	r2, {r1, r2, r3, r7, r8}
 55c:	018e049f 			@ <UNDEFINED> instruction: 0x018e049f
 560:	3a020192 	bcc	80bb0 <_binary_assets_romhdr_bin_size+0x80af1>
 564:	0192049f 			@ <UNDEFINED> instruction: 0x0192049f
 568:	3b020196 	blcc	80bc8 <_binary_assets_romhdr_bin_size+0x80b09>
 56c:	0196049f 			@ <UNDEFINED> instruction: 0x0196049f
 570:	3c02019a 	stccc	1, cr0, [r2], {154}	@ 0x9a
 574:	019a049f 			@ <UNDEFINED> instruction: 0x019a049f
 578:	3d02019e 	stccc	1, cr0, [r2, #-632]	@ 0xfffffd88
 57c:	019e049f 			@ <UNDEFINED> instruction: 0x019e049f
 580:	3e0201a2 	cdpcc	1, 0, cr0, cr2, cr2, {5}
 584:	01a2049f 			@ <UNDEFINED> instruction: 0x01a2049f
 588:	3f0201bc 	svccc	0x000201bc
 58c:	0000009f 	muleq	r0, pc, r0	@ <UNPREDICTABLE>
 590:	bc040000 	stclt	0, cr0, [r4], {-0}
 594:	0101c201 	tsteq	r1, r1, lsl #4
 598:	01c20450 	biceq	r0, r2, r0, asr r4
 59c:	520103a4 	andpl	r0, r1, #164, 6	@ 0x90000002
 5a0:	00010000 	andeq	r0, r1, r0
 5a4:	01c00400 	biceq	r0, r0, r0, lsl #8
 5a8:	510102da 			@ <UNDEFINED> instruction: 0x510102da
 5ac:	a402e004 	strge	lr, [r2], #-4
 5b0:	00510103 	subseq	r0, r1, r3, lsl #2
 5b4:	00000100 	andeq	r0, r0, r0, lsl #2
 5b8:	da01c004 	ble	705d0 <_binary_assets_romhdr_bin_size+0x70511>
 5bc:	04520102 	ldrbeq	r0, [r2], #-258	@ 0xfffffefe
 5c0:	03a402e0 			@ <UNDEFINED> instruction: 0x03a402e0
 5c4:	03005201 	tsteq	r0, #268435456	@ 0x10000000
 5c8:	01010101 	tsteq	r1, r1, lsl #2
 5cc:	01010101 	tsteq	r1, r1, lsl #2
 5d0:	01010101 	tsteq	r1, r1, lsl #2
 5d4:	01010101 	tsteq	r1, r1, lsl #2
 5d8:	01010101 	tsteq	r1, r1, lsl #2
 5dc:	01010101 	tsteq	r1, r1, lsl #2
 5e0:	01010101 	tsteq	r1, r1, lsl #2
	...
 600:	01c00400 	biceq	r0, r0, r0, lsl #8
 604:	300201cc 	andcc	r0, r2, ip, asr #3
 608:	01cc049f 			@ <UNDEFINED> instruction: 0x01cc049f
 60c:	310201d6 			@ <UNDEFINED> instruction: 0x310201d6
 610:	01d6049f 			@ <UNDEFINED> instruction: 0x01d6049f
 614:	320201e0 	andcc	r0, r2, #224, 2	@ 0x38
 618:	01e0049f 			@ <UNDEFINED> instruction: 0x01e0049f
 61c:	330201ea 	tstcc	r2, #-2147483590	@ 0x8000003a
 620:	01ea049f 			@ <UNDEFINED> instruction: 0x01ea049f
 624:	340201f4 	strcc	r0, [r2], #-500	@ 0xfffffe0c
 628:	01f4049f 			@ <UNDEFINED> instruction: 0x01f4049f
 62c:	350201fe 	strcc	r0, [r2, #-510]	@ 0xfffffe02
 630:	01fe049f 			@ <UNDEFINED> instruction: 0x01fe049f
 634:	36020288 	strcc	r0, [r2], -r8, lsl #5
 638:	0288049f 	addeq	r0, r8, #-1627389952	@ 0x9f000000
 63c:	37020292 			@ <UNDEFINED> instruction: 0x37020292
 640:	0292049f 	addseq	r0, r2, #-1627389952	@ 0x9f000000
 644:	3802029c 	stmdacc	r2, {r2, r3, r4, r7, r9}
 648:	029c049f 	addseq	r0, ip, #-1627389952	@ 0x9f000000
 64c:	390202a6 	stmdbcc	r2, {r1, r2, r5, r7, r9}
 650:	02a6049f 	adceq	r0, r6, #-1627389952	@ 0x9f000000
 654:	3a0202b0 	bcc	8111c <_binary_assets_romhdr_bin_size+0x8105d>
 658:	02b0049f 	adcseq	r0, r0, #-1627389952	@ 0x9f000000
 65c:	3b0202ba 	blcc	8114c <_binary_assets_romhdr_bin_size+0x8108d>
 660:	02ba049f 	adcseq	r0, sl, #-1627389952	@ 0x9f000000
 664:	3c0202c4 	stccc	2, cr0, [r2], {196}	@ 0xc4
 668:	02c4049f 	sbceq	r0, r4, #-1627389952	@ 0x9f000000
 66c:	3d0202ce 	stccc	2, cr0, [r2, #-824]	@ 0xfffffcc8
 670:	02ce049f 	sbceq	r0, lr, #-1627389952	@ 0x9f000000
 674:	3e0202d0 	mcrcc	2, 0, r0, cr2, cr0, {6}
 678:	02e0049f 	rsceq	r0, r0, #-1627389952	@ 0x9f000000
 67c:	360202e4 	strcc	r0, [r2], -r4, ror #5
 680:	02e4049f 	rsceq	r0, r4, #-1627389952	@ 0x9f000000
 684:	310202e8 	tstcc	r2, r8, ror #5
 688:	02e8049f 	rsceq	r0, r8, #-1627389952	@ 0x9f000000
 68c:	320202ec 	andcc	r0, r2, #236, 4	@ 0xc000000e
 690:	02ec049f 	rsceq	r0, ip, #-1627389952	@ 0x9f000000
 694:	330202f0 	tstcc	r2, #240, 4
 698:	02f0049f 	rscseq	r0, r0, #-1627389952	@ 0x9f000000
 69c:	340202f4 	strcc	r0, [r2], #-756	@ 0xfffffd0c
 6a0:	02f4049f 	rscseq	r0, r4, #-1627389952	@ 0x9f000000
 6a4:	350202f8 	strcc	r0, [r2, #-760]	@ 0xfffffd08
 6a8:	02f8049f 	rscseq	r0, r8, #-1627389952	@ 0x9f000000
 6ac:	30020382 	andcc	r0, r2, r2, lsl #7
 6b0:	0382049f 	orreq	r0, r2, #-1627389952	@ 0x9f000000
 6b4:	37020386 	strcc	r0, [r2, -r6, lsl #7]
 6b8:	0386049f 	orreq	r0, r6, #-1627389952	@ 0x9f000000
 6bc:	3802038a 	stmdacc	r2, {r1, r3, r7, r8, r9}
 6c0:	038a049f 	orreq	r0, sl, #-1627389952	@ 0x9f000000
 6c4:	3902038e 	stmdbcc	r2, {r1, r2, r3, r7, r8, r9}
 6c8:	038e049f 	orreq	r0, lr, #-1627389952	@ 0x9f000000
 6cc:	3a020392 	bcc	8151c <_binary_assets_romhdr_bin_size+0x8145d>
 6d0:	0392049f 	orrseq	r0, r2, #-1627389952	@ 0x9f000000
 6d4:	3b020396 	blcc	81534 <_binary_assets_romhdr_bin_size+0x81475>
 6d8:	0396049f 	orrseq	r0, r6, #-1627389952	@ 0x9f000000
 6dc:	3c02039a 	stccc	3, cr0, [r2], {154}	@ 0x9a
 6e0:	039a049f 	orrseq	r0, sl, #-1627389952	@ 0x9f000000
 6e4:	3d0203a4 	stccc	3, cr0, [r2, #-656]	@ 0xfffffd70
 6e8:	0000009f 	muleq	r0, pc, r0	@ <UNPREDICTABLE>
 6ec:	00000000 	andeq	r0, r0, r0
 6f0:	e605d804 	str	sp, [r5], -r4, lsl #16
 6f4:	04500105 	ldrbeq	r0, [r0], #-261	@ 0xfffffefb
 6f8:	069a05e6 	ldreq	r0, [sl], r6, ror #11
 6fc:	9a045301 	bls	115308 <_binary_assets_romhdr_bin_size+0x115249>
 700:	0a06ac06 	beq	1ab720 <_binary_assets_romhdr_bin_size+0x1ab661>
 704:	00a503a3 	adceq	r0, r5, r3, lsr #7
 708:	a834a826 	ldmdage	r4!, {r1, r2, r5, fp, sp, pc}
 70c:	Address 0x70c is out of bounds.


Disassembly of section .debug_rnglists:

00000000 <.debug_rnglists>:
   0:	00000024 	andeq	r0, r0, r4, lsr #32
   4:	00040005 	andeq	r0, r4, r5
   8:	00000000 	andeq	r0, r0, r0
   c:	040c0804 	streq	r0, [ip], #-2052	@ 0xfffff7fc
  10:	1c041814 	stcne	8, cr1, [r4], {20}
  14:	342c0428 	strtcc	r0, [ip], #-1064	@ 0xfffffbd8
  18:	2c280400 	stccs	4, cr0, [r8], #-0
  1c:	00583404 	subseq	r3, r8, r4, lsl #8
  20:	04686404 	strbteq	r6, [r8], #-1028	@ 0xfffffbfc
  24:	00018874 	andeq	r8, r1, r4, ror r8
  28:	00000064 	andeq	r0, r0, r4, rrx
  2c:	00040005 	andeq	r0, r4, r5
  30:	00000000 	andeq	r0, r0, r0
  34:	00034005 	andeq	r4, r3, r5
  38:	00000408 	andeq	r0, r0, r8, lsl #8
  3c:	002c0804 	eoreq	r0, ip, r4, lsl #16
  40:	00037805 	andeq	r7, r3, r5, lsl #16
  44:	04000408 	streq	r0, [r0], #-1032	@ 0xfffffbf8
  48:	00180804 	andseq	r0, r8, r4, lsl #16
  4c:	00037805 	andeq	r7, r3, r5, lsl #16
  50:	04000408 	streq	r0, [r0], #-1032	@ 0xfffffbf8
  54:	00180804 	andseq	r0, r8, r4, lsl #16
  58:	0003a005 	andeq	sl, r3, r5
  5c:	10000408 	andne	r0, r0, r8, lsl #8
  60:	00481404 	subeq	r1, r8, r4, lsl #8
  64:	00042405 	andeq	r2, r4, r5, lsl #8
  68:	08000408 	stmdaeq	r0, {r3, sl}
  6c:	043c0c04 	ldrteq	r0, [ip], #-3076	@ 0xfffff3fc
  70:	05005044 	streq	r5, [r0, #-68]	@ 0xffffffbc
  74:	08000424 	stmdaeq	r0, {r2, r5, sl}
  78:	04080004 	streq	r0, [r8], #-4
  7c:	44043c0c 	strmi	r3, [r4], #-3084	@ 0xfffff3f4
  80:	e4070050 	str	r0, [r7], #-80	@ 0xffffffb0
  84:	ac080002 	stcge	0, cr0, [r8], {2}
  88:	00c00703 	sbceq	r0, r0, r3, lsl #14
  8c:	007c0800 	rsbseq	r0, ip, r0, lsl #16
  90:	00000019 	andeq	r0, r0, r9, lsl r0
  94:	00040005 	andeq	r0, r4, r5
  98:	00000000 	andeq	r0, r0, r0
  9c:	04040004 	streq	r0, [r4], #-4
  a0:	04003808 	streq	r3, [r0], #-2056	@ 0xfffff7f8
  a4:	04028c74 	streq	r8, [r2], #-3188	@ 0xfffff38c
  a8:	03a802c0 			@ <UNDEFINED> instruction: 0x03a802c0
  ac:	00000f00 	andeq	r0, r0, r0, lsl #30
  b0:	04000500 	streq	r0, [r0], #-1280	@ 0xfffffb00
  b4:	00000000 	andeq	r0, r0, r0
  b8:	013c0700 	teqeq	ip, r0, lsl #14
  bc:	00080800 	andeq	r0, r8, r0, lsl #16
  c0:	0000000f 	andeq	r0, r0, pc
  c4:	00040005 	andeq	r0, r4, r5
  c8:	00000000 	andeq	r0, r0, r0
  cc:	001df807 	andseq	pc, sp, r7, lsl #16
  d0:	3f000808 	svccc	0x00000808
  d4:	05000000 	streq	r0, [r0, #-0]
  d8:	00000400 	andeq	r0, r0, r0, lsl #8
  dc:	04000000 	streq	r0, [r0], #-0
  e0:	06040604 	streq	r0, [r4], -r4, lsl #12
  e4:	bc04004c 	stclt	0, cr0, [r4], {76}	@ 0x4c
  e8:	0401be01 	streq	fp, [r1], #-3585	@ 0xfffff1ff
  ec:	01c201c0 	biceq	r0, r2, r0, asr #3
  f0:	d601c404 	strle	ip, [r1], -r4, lsl #8
  f4:	02d60402 	sbcseq	r0, r6, #33554432	@ 0x2000000
  f8:	e00402da 			@ <UNDEFINED> instruction: 0xe00402da
  fc:	0003a402 	andeq	sl, r3, r2, lsl #8
 100:	bc058c04 	stclt	12, cr8, [r5], {4}
 104:	05bc0405 	ldreq	r0, [ip, #1029]!	@ 0x405
 108:	040005ca 	streq	r0, [r0], #-1482	@ 0xfffffa36
 10c:	06dc06ac 	ldrbeq	r0, [ip], ip, lsr #13
 110:	ea06dc04 	b	1b7128 <_binary_assets_romhdr_bin_size+0x1b7069>
 114:	Address 0x114 is out of bounds.


Disassembly of section .debug_line_str:

00000000 <.debug_line_str>:
   0:	6d6f682f 	stclvs	8, cr6, [pc, #-188]!	@ ffffff4c <IntrRet+0xf7ffd864>
   4:	61642f65 	cmnvs	r4, r5, ror #30
   8:	2f6d6576 	svccs	0x006d6576
   c:	6a6f7270 	bvs	1bdc9d4 <_binary_assets_romhdr_bin_size+0x1bdc915>
  10:	73746365 	cmnvc	r4, #-1811939327	@ 0x94000001
  14:	7665642f 	strbtvc	r6, [r5], -pc, lsr #8
  18:	7074696b 	rsbsvc	r6, r4, fp, ror #18
  1c:	702f6f72 	eorvc	r6, pc, r2, ror pc	@ <UNPREDICTABLE>
  20:	616d6361 	cmnvs	sp, r1, ror #6
  24:	61702d6e 	cmnvs	r0, lr, ror #26
  28:	67616b63 	strbvs	r6, [r1, -r3, ror #22]!
  2c:	6c2f7365 	stcvs	3, cr7, [pc], #-404	@ fffffea0 <IntrRet+0xf7ffd7b8>
  30:	62676269 	rsbvs	r6, r7, #-1879048186	@ 0x90000006
  34:	72732f61 	rsbsvc	r2, r3, #388	@ 0x184
  38:	696c2f63 	stmdbvs	ip!, {r0, r1, r5, r6, r8, r9, sl, fp, sp}^
  3c:	61626762 	cmnvs	r2, r2, ror #14
  40:	352e302d 	strcc	r3, [lr, #-45]!	@ 0xffffffd3
  44:	622f342e 	eorvs	r3, pc, #771751936	@ 0x2e000000
  48:	646c6975 	strbtvs	r6, [ip], #-2421	@ 0xfffff68b
  4c:	6f682f00 	svcvs	0x00682f00
  50:	642f656d 	strtvs	r6, [pc], #-1389	@ 58 <_binary_assets_romhdr_bin_size-0x67>
  54:	6d657661 	stclvs	6, cr7, [r5, #-388]!	@ 0xfffffe7c
  58:	6f72702f 	svcvs	0x0072702f
  5c:	7463656a 	strbtvc	r6, [r3], #-1386	@ 0xfffffa96
  60:	65642f73 	strbvs	r2, [r4, #-3955]!	@ 0xfffff08d
  64:	74696b76 	strbtvc	r6, [r9], #-2934	@ 0xfffff48a
  68:	2f6f7270 	svccs	0x006f7270
  6c:	6d636170 	stclvs	1, cr6, [r3, #-448]!	@ 0xfffffe40
  70:	702d6e61 	eorvc	r6, sp, r1, ror #28
  74:	616b6361 	cmnvs	fp, r1, ror #6
  78:	2f736567 	svccs	0x00736567
  7c:	6762696c 	strbvs	r6, [r2, -ip, ror #18]!
  80:	732f6162 			@ <UNDEFINED> instruction: 0x732f6162
  84:	6c2f6372 	stcvs	3, cr6, [pc], #-456	@ fffffec4 <IntrRet+0xf7ffd7dc>
  88:	62676269 	rsbvs	r6, r7, #-1879048186	@ 0x90000006
  8c:	2e302d61 	cdpcs	13, 3, cr2, cr0, cr1, {3}
  90:	2f342e35 	svccs	0x00342e35
  94:	00637273 	rsbeq	r7, r3, r3, ror r2
  98:	65746e49 	ldrbvs	r6, [r4, #-3657]!	@ 0xfffff1b7
  9c:	70757272 	rsbsvc	r7, r5, r2, ror r2
  a0:	73694474 	cmnvc	r9, #116, 8	@ 0x74000000
  a4:	63746170 	cmnvs	r4, #112, 2
  a8:	2e726568 	cdpcs	5, 7, cr6, cr2, cr8, {3}
  ac:	65520073 	ldrbvs	r0, [r2, #-115]	@ 0xffffff8d
  b0:	2e746573 	mrccs	5, 3, r6, cr4, cr3, {3}
  b4:	Address 0xb4 is out of bounds.

