
rom.elf:     file format elf32-littlearm


Disassembly of section .hdr:

08000000 <_binary_assets_romhdr_bin_start>:
 8000000:	ea00002e 	b	80000c0 <main>
 8000004:	51aeff24 			@ <UNDEFINED> instruction: 0x51aeff24
 8000008:	21a29a69 			@ <UNDEFINED> instruction: 0x21a29a69
 800000c:	0a82843d 	beq	60a1108 <IntrTable+0x309dc18>
 8000010:	ad09e484 	stcge	4, cr14, [r9, #-528]	@ 0xfffffdf0
 8000014:	988b2411 	stmls	fp, {r0, r4, sl, sp}
 8000018:	217f81c0 	cmncs	pc, r0, asr #3
 800001c:	19be52a3 	ldmibne	lr!, {r0, r1, r5, r7, r9, ip, lr}
 8000020:	20ce0993 	smullcs	r0, lr, r3, r9
 8000024:	4a4a4610 	bmi	929186c <IntrRet+0x128f184>
 8000028:	ec3127f8 	ldc	7, cr2, [r1], #-992	@ 0xfffffc20
 800002c:	33e8c758 	mvncc	ip, #88, 14	@ 0x1600000
 8000030:	bfcee382 	svclt	0x00cee382
 8000034:	94dff485 	ldrbls	pc, [pc], #1157	@ 800003c <_binary_assets_romhdr_bin_start+0x3c>	@ <UNPREDICTABLE>
 8000038:	c1094bce 	tstgt	r9, lr, asr #23
 800003c:	c08a5694 	umullgt	r5, sl, r4, r6
 8000040:	fca77213 			@ <UNDEFINED> instruction: 0xfca77213
 8000044:	734d849f 	cmpvc	sp, #-1627389952	@ 0x9f000000
 8000048:	619acaa3 	orrsvs	ip, sl, r3, lsr #21
 800004c:	27a39758 			@ <UNDEFINED> instruction: 0x27a39758
 8000050:	769803fc 			@ <UNDEFINED> instruction: 0x769803fc
 8000054:	61c71d23 	bicvs	r1, r7, r3, lsr #26
 8000058:	56ae0403 	strtpl	r0, [lr], r3, lsl #8
 800005c:	008438bf 			@ <UNDEFINED> instruction: 0x008438bf
 8000060:	fd0ea740 			@ <UNDEFINED> instruction: 0xfd0ea740
 8000064:	03fe52ff 	mvnseq	r5, #-268435441	@ 0xf000000f
 8000068:	f130956f 			@ <UNDEFINED> instruction: 0xf130956f
 800006c:	85c0fb97 	strbhi	pc, [r0, #2967]	@ 0xb97	@ <UNPREDICTABLE>
 8000070:	2580d660 	strcs	sp, [r0, #1632]	@ 0x660
 8000074:	03be63a9 			@ <UNDEFINED> instruction: 0x03be63a9
 8000078:	e2384e01 	eors	r4, r8, #1, 28
 800007c:	ff34a2f9 			@ <UNDEFINED> instruction: 0xff34a2f9
 8000080:	44033ebb 	strmi	r3, [r3], #-3771	@ 0xfffff145
 8000084:	cb900078 	blgt	640026c <IntrTable+0x33fcd7c>
 8000088:	943a1188 	ldrtls	r1, [sl], #-392	@ 0xfffffe78
 800008c:	637cc065 	cmnvs	ip, #101	@ 0x65
 8000090:	af3cf087 	svcge	0x003cf087
 8000094:	8be425d6 	blhi	79097f4 <IntrTable+0x4906304>
 8000098:	72ac0a38 	adcvc	r0, ip, #56, 20	@ 0x38000
 800009c:	07f8d421 	ldrbeq	sp, [r8, r1, lsr #8]!
 80000a0:	48544f4d 	ldmdami	r4, {r0, r2, r3, r6, r8, r9, sl, fp, lr}^
 80000a4:	00335245 	eorseq	r5, r3, r5, asr #4
 80000a8:	00000000 	andeq	r0, r0, r0
 80000ac:	4a553341 	bmi	954cdb8 <IntrRet+0x154a6d0>
 80000b0:	00963130 	addseq	r3, r6, r0, lsr r1
	...
 80000bc:	Address 0x80000bc is out of bounds.


Disassembly of section .text:

080000c0 <main>:
 80000c0:	e3a03a02 	mov	r3, #8192	@ 0x2000
 80000c4:	e3a01000 	mov	r1, #0
 80000c8:	e92d4010 	push	{r4, lr}
 80000cc:	e59f2058 	ldr	r2, [pc, #88]	@ 800012c <main+0x6c>
 80000d0:	e59f0058 	ldr	r0, [pc, #88]	@ 8000130 <main+0x70>
 80000d4:	e59f4058 	ldr	r4, [pc, #88]	@ 8000134 <main+0x74>
 80000d8:	e1c200b4 	strh	r0, [r2, #4]
 80000dc:	e1c230b0 	strh	r3, [r2]
 80000e0:	e1c413b4 	strh	r1, [r4, #52]	@ 0x34
 80000e4:	e1c432b8 	strh	r3, [r4, #40]	@ 0x28
 80000e8:	eb00007d 	bl	80002e4 <clear_ram>
 80000ec:	eb000087 	bl	8000310 <clear_graphics_mem>
 80000f0:	eb000092 	bl	8000340 <check_reset>
 80000f4:	eb00083b 	bl	80021e8 <__irqInit_from_arm>
 80000f8:	eb000012 	bl	8000148 <install_ivt1>
 80000fc:	eb0000bb 	bl	80003f0 <setup_runtime>
 8000100:	e1d433b0 	ldrh	r3, [r4, #48]	@ 0x30
 8000104:	e1a03b03 	lsl	r3, r3, #22
 8000108:	e1a03b23 	lsr	r3, r3, #22
 800010c:	e353000f 	cmp	r3, #15
 8000110:	059f2020 	ldreq	r2, [pc, #32]	@ 8000138 <main+0x78>
 8000114:	05d23001 	ldrbeq	r3, [r2, #1]
 8000118:	03833002 	orreq	r3, r3, #2
 800011c:	05c23001 	strbeq	r3, [r2, #1]
 8000120:	eb0006ed 	bl	8001cdc <runtime_dispatch>
 8000124:	e8bd4010 	pop	{r4, lr}
 8000128:	ea0000bd 	b	8000424 <do_soft_reset>
 800012c:	04000200 	streq	r0, [r0], #-512	@ 0xfffffe00
 8000130:	000045b4 			@ <UNDEFINED> instruction: 0x000045b4
 8000134:	04000100 	streq	r0, [r0], #-256	@ 0xffffff00
 8000138:	03000000 	tsteq	r0, #0

0800013c <_start>:
 800013c:	ebffffdf 	bl	80000c0 <main>
 8000140:	eafffffd 	b	800013c <_start>

08000144 <__int_vblank>:
 8000144:	e12fff1e 	bx	lr

08000148 <install_ivt1>:
 8000148:	e3a03000 	mov	r3, #0
 800014c:	e3a02301 	mov	r2, #67108864	@ 0x4000000
 8000150:	e92d4010 	push	{r4, lr}
 8000154:	e59f403c 	ldr	r4, [pc, #60]	@ 8000198 <install_ivt1+0x50>
 8000158:	e1c430b8 	strh	r3, [r4, #8]
 800015c:	e1d430b0 	ldrh	r3, [r4]
 8000160:	e3c33007 	bic	r3, r3, #7
 8000164:	e1c430b0 	strh	r3, [r4]
 8000168:	e1d230b4 	ldrh	r3, [r2, #4]
 800016c:	e3c33038 	bic	r3, r3, #56	@ 0x38
 8000170:	e1c230b4 	strh	r3, [r2, #4]
 8000174:	e59f1020 	ldr	r1, [pc, #32]	@ 800019c <install_ivt1+0x54>
 8000178:	e3a00001 	mov	r0, #1
 800017c:	eb00081c 	bl	80021f4 <__irqSet_from_arm>
 8000180:	e3a00001 	mov	r0, #1
 8000184:	eb00081d 	bl	8002200 <__irqEnable_from_arm>
 8000188:	e3a03001 	mov	r3, #1
 800018c:	e1c430b8 	strh	r3, [r4, #8]
 8000190:	e8bd4010 	pop	{r4, lr}
 8000194:	e12fff1e 	bx	lr
 8000198:	04000200 	streq	r0, [r0], #-512	@ 0xfffffe00
 800019c:	08000144 	stmdaeq	r0, {r2, r6, r8}

080001a0 <bugcheck>:
 80001a0:	e3a0c301 	mov	ip, #67108864	@ 0x4000000
 80001a4:	e3a03406 	mov	r3, #100663296	@ 0x6000000
 80001a8:	e3a01b1e 	mov	r1, #30720	@ 0x7800
 80001ac:	e52de004 	push	{lr}		@ (str lr, [sp, #-4]!)
 80001b0:	e59fe08c 	ldr	lr, [pc, #140]	@ 8000244 <bugcheck+0xa4>
 80001b4:	e59f208c 	ldr	r2, [pc, #140]	@ 8000248 <bugcheck+0xa8>
 80001b8:	e1cce0b0 	strh	lr, [ip]
 80001bc:	e0c310b2 	strh	r1, [r3], #2
 80001c0:	e1530002 	cmp	r3, r2
 80001c4:	1afffffc 	bne	80001bc <bugcheck+0x1c>
 80001c8:	e3a0101f 	mov	r1, #31
 80001cc:	e59f2078 	ldr	r2, [pc, #120]	@ 800024c <bugcheck+0xac>
 80001d0:	e59f3078 	ldr	r3, [pc, #120]	@ 8000250 <bugcheck+0xb0>
 80001d4:	e59fc078 	ldr	ip, [pc, #120]	@ 8000254 <bugcheck+0xb4>
 80001d8:	e1c310b0 	strh	r1, [r3]
 80001dc:	e2833e1e 	add	r3, r3, #480	@ 0x1e0
 80001e0:	e2833002 	add	r3, r3, #2
 80001e4:	e1c210b0 	strh	r1, [r2]
 80001e8:	e153000c 	cmp	r3, ip
 80001ec:	e2822f77 	add	r2, r2, #476	@ 0x1dc
 80001f0:	e2822002 	add	r2, r2, #2
 80001f4:	1afffff7 	bne	80001d8 <bugcheck+0x38>
 80001f8:	e3500000 	cmp	r0, #0
 80001fc:	0a00000c 	beq	8000234 <bugcheck+0x94>
 8000200:	e59f3050 	ldr	r3, [pc, #80]	@ 8000258 <bugcheck+0xb8>
 8000204:	e3a0101f 	mov	r1, #31
 8000208:	e1a02003 	mov	r2, r3
 800020c:	e0800100 	add	r0, r0, r0, lsl #2
 8000210:	e0830080 	add	r0, r3, r0, lsl #1
 8000214:	e2423d4b 	sub	r3, r2, #4800	@ 0x12c0
 8000218:	e1c310b0 	strh	r1, [r3]
 800021c:	e2833e1e 	add	r3, r3, #480	@ 0x1e0
 8000220:	e1530002 	cmp	r3, r2
 8000224:	1afffffb 	bne	8000218 <bugcheck+0x78>
 8000228:	e282200a 	add	r2, r2, #10
 800022c:	e1520000 	cmp	r2, r0
 8000230:	1afffff7 	bne	8000214 <bugcheck+0x74>
 8000234:	e3a02000 	mov	r2, #0
 8000238:	e59f301c 	ldr	r3, [pc, #28]	@ 800025c <bugcheck+0xbc>
 800023c:	e1c320b8 	strh	r2, [r3, #8]
 8000240:	eafffffe 	b	8000240 <bugcheck+0xa0>
 8000244:	00000403 	andeq	r0, r0, r3, lsl #8
 8000248:	06012c00 	streq	r2, [r1], -r0, lsl #24
 800024c:	06001310 			@ <UNDEFINED> instruction: 0x06001310
 8000250:	060012d4 			@ <UNDEFINED> instruction: 0x060012d4
 8000254:	06004b50 			@ <UNDEFINED> instruction: 0x06004b50
 8000258:	06002f44 	streq	r2, [r0], -r4, asr #30
 800025c:	04000200 	streq	r0, [r0], #-512	@ 0xfffffe00

08000260 <do_dma_clear>:
 8000260:	e3a02301 	mov	r2, #67108864	@ 0x4000000
 8000264:	e3a03000 	mov	r3, #0
 8000268:	e1a01121 	lsr	r1, r1, #2
 800026c:	e3811485 	orr	r1, r1, #-2063597568	@ 0x85000000
 8000270:	e58230d4 	str	r3, [r2, #212]	@ 0xd4
 8000274:	e58200d8 	str	r0, [r2, #216]	@ 0xd8
 8000278:	e58210dc 	str	r1, [r2, #220]	@ 0xdc
 800027c:	e59230dc 	ldr	r3, [r2, #220]	@ 0xdc
 8000280:	e3530000 	cmp	r3, #0
 8000284:	bafffffc 	blt	800027c <do_dma_clear+0x1c>
 8000288:	e12fff1e 	bx	lr

0800028c <do_swi_clear>:
 800028c:	e201301f 	and	r3, r1, #31
 8000290:	e200c003 	and	ip, r0, #3
 8000294:	e193300c 	orrs	r3, r3, ip
 8000298:	e1a02121 	lsr	r2, r1, #2
 800029c:	e92d4010 	push	{r4, lr}
 80002a0:	e1a01000 	mov	r1, r0
 80002a4:	0a000003 	beq	80002b8 <do_swi_clear+0x2c>
 80002a8:	e3a00000 	mov	r0, #0
 80002ac:	eb0007d9 	bl	8002218 <__CpuSet_from_arm>
 80002b0:	e8bd4010 	pop	{r4, lr}
 80002b4:	e12fff1e 	bx	lr
 80002b8:	e1a00003 	mov	r0, r3
 80002bc:	e3822401 	orr	r2, r2, #16777216	@ 0x1000000
 80002c0:	eb0007d7 	bl	8002224 <__CpuFastSet_from_arm>
 80002c4:	e8bd4010 	pop	{r4, lr}
 80002c8:	e12fff1e 	bx	lr

080002cc <lz777_uncomp_vram>:
 80002cc:	e92d4010 	push	{r4, lr}
 80002d0:	e1a00000 	nop			@ (mov r0, r0)
 80002d4:	e1a01001 	mov	r1, r1
 80002d8:	ef000012 	svc	0x00000012
 80002dc:	e8bd4010 	pop	{r4, lr}
 80002e0:	e12fff1e 	bx	lr

080002e4 <clear_ram>:
 80002e4:	e92d4010 	push	{r4, lr}
 80002e8:	e3a01701 	mov	r1, #262144	@ 0x40000
 80002ec:	e3a00402 	mov	r0, #33554432	@ 0x2000000
 80002f0:	ebffffda 	bl	8000260 <do_dma_clear>
 80002f4:	e59f100c 	ldr	r1, [pc, #12]	@ 8000308 <clear_ram+0x24>
 80002f8:	e59f000c 	ldr	r0, [pc, #12]	@ 800030c <clear_ram+0x28>
 80002fc:	ebffffd7 	bl	8000260 <do_dma_clear>
 8000300:	e8bd4010 	pop	{r4, lr}
 8000304:	e12fff1e 	bx	lr
 8000308:	00007d98 	muleq	r0, r8, sp
 800030c:	03000008 	tsteq	r0, #8

08000310 <clear_graphics_mem>:
 8000310:	e92d4010 	push	{r4, lr}
 8000314:	e3a01906 	mov	r1, #98304	@ 0x18000
 8000318:	e3a00406 	mov	r0, #100663296	@ 0x6000000
 800031c:	ebffffda 	bl	800028c <do_swi_clear>
 8000320:	e3a01b01 	mov	r1, #1024	@ 0x400
 8000324:	e3a00405 	mov	r0, #83886080	@ 0x5000000
 8000328:	ebffffd7 	bl	800028c <do_swi_clear>
 800032c:	e3a01b01 	mov	r1, #1024	@ 0x400
 8000330:	e3a00407 	mov	r0, #117440512	@ 0x7000000
 8000334:	ebffffd4 	bl	800028c <do_swi_clear>
 8000338:	e8bd4010 	pop	{r4, lr}
 800033c:	e12fff1e 	bx	lr

08000340 <check_reset>:
 8000340:	e3a03403 	mov	r3, #50331648	@ 0x3000000
 8000344:	e59f2048 	ldr	r2, [pc, #72]	@ 8000394 <check_reset+0x54>
 8000348:	e59fc048 	ldr	ip, [pc, #72]	@ 8000398 <check_reset+0x58>
 800034c:	e5d30000 	ldrb	r0, [r3]
 8000350:	e5d21000 	ldrb	r1, [r2]
 8000354:	e1500001 	cmp	r0, r1
 8000358:	e2833001 	add	r3, r3, #1
 800035c:	1a000007 	bne	8000380 <check_reset+0x40>
 8000360:	e153000c 	cmp	r3, ip
 8000364:	e2822001 	add	r2, r2, #1
 8000368:	1afffff7 	bne	800034c <check_reset+0xc>
 800036c:	e59f2028 	ldr	r2, [pc, #40]	@ 800039c <check_reset+0x5c>
 8000370:	e5d23001 	ldrb	r3, [r2, #1]
 8000374:	e3833001 	orr	r3, r3, #1
 8000378:	e5c23001 	strb	r3, [r2, #1]
 800037c:	e12fff1e 	bx	lr
 8000380:	e59f2014 	ldr	r2, [pc, #20]	@ 800039c <check_reset+0x5c>
 8000384:	e5d23001 	ldrb	r3, [r2, #1]
 8000388:	e20330fe 	and	r3, r3, #254	@ 0xfe
 800038c:	e5c23001 	strb	r3, [r2, #1]
 8000390:	e12fff1e 	bx	lr
 8000394:	08002248 	stmdaeq	r0, {r3, r6, r9, sp}
 8000398:	03000008 	tsteq	r0, #8
 800039c:	03000000 	tsteq	r0, #0

080003a0 <plant_reset_magic>:
 80003a0:	e3a03403 	mov	r3, #50331648	@ 0x3000000
 80003a4:	e3a0004d 	mov	r0, #77	@ 0x4d
 80003a8:	e3a01033 	mov	r1, #51	@ 0x33
 80003ac:	e3a02047 	mov	r2, #71	@ 0x47
 80003b0:	e52de004 	push	{lr}		@ (str lr, [sp, #-4]!)
 80003b4:	e3a0c020 	mov	ip, #32
 80003b8:	e3a0e042 	mov	lr, #66	@ 0x42
 80003bc:	e5c30000 	strb	r0, [r3]
 80003c0:	e5c31001 	strb	r1, [r3, #1]
 80003c4:	e5c32003 	strb	r2, [r3, #3]
 80003c8:	e3a00053 	mov	r0, #83	@ 0x53
 80003cc:	e3a0104f 	mov	r1, #79	@ 0x4f
 80003d0:	e3a0204e 	mov	r2, #78	@ 0x4e
 80003d4:	e5c3e004 	strb	lr, [r3, #4]
 80003d8:	e5c3c002 	strb	ip, [r3, #2]
 80003dc:	e5c30005 	strb	r0, [r3, #5]
 80003e0:	e5c31006 	strb	r1, [r3, #6]
 80003e4:	e5c32007 	strb	r2, [r3, #7]
 80003e8:	e49de004 	pop	{lr}		@ (ldr lr, [sp], #4)
 80003ec:	e12fff1e 	bx	lr

080003f0 <setup_runtime>:
 80003f0:	e3a0100d 	mov	r1, #13
 80003f4:	e92d4010 	push	{r4, lr}
 80003f8:	e59f301c 	ldr	r3, [pc, #28]	@ 800041c <setup_runtime+0x2c>
 80003fc:	e5d32001 	ldrb	r2, [r3, #1]
 8000400:	e59f0018 	ldr	r0, [pc, #24]	@ 8000420 <setup_runtime+0x30>
 8000404:	e3c22002 	bic	r2, r2, #2
 8000408:	e5c32001 	strb	r2, [r3, #1]
 800040c:	e5c31000 	strb	r1, [r3]
 8000410:	eb00001e 	bl	8000490 <rand_init>
 8000414:	e8bd4010 	pop	{r4, lr}
 8000418:	e12fff1e 	bx	lr
 800041c:	03000000 	tsteq	r0, #0
 8000420:	00001105 	andeq	r1, r0, r5, lsl #2

08000424 <do_soft_reset>:
 8000424:	e3a03403 	mov	r3, #50331648	@ 0x3000000
 8000428:	e3a02033 	mov	r2, #51	@ 0x33
 800042c:	e92d4010 	push	{r4, lr}
 8000430:	e3a0c04d 	mov	ip, #77	@ 0x4d
 8000434:	e3a01020 	mov	r1, #32
 8000438:	e3a0e047 	mov	lr, #71	@ 0x47
 800043c:	e5c32001 	strb	r2, [r3, #1]
 8000440:	e3a02042 	mov	r2, #66	@ 0x42
 8000444:	e5c3e003 	strb	lr, [r3, #3]
 8000448:	e5c3c000 	strb	ip, [r3]
 800044c:	e5c31002 	strb	r1, [r3, #2]
 8000450:	e3a0e04e 	mov	lr, #78	@ 0x4e
 8000454:	e3a0c053 	mov	ip, #83	@ 0x53
 8000458:	e3a0104f 	mov	r1, #79	@ 0x4f
 800045c:	e5c32004 	strb	r2, [r3, #4]
 8000460:	e3a00000 	mov	r0, #0
 8000464:	e3a02301 	mov	r2, #67108864	@ 0x4000000
 8000468:	e5c3e007 	strb	lr, [r3, #7]
 800046c:	e5c3c005 	strb	ip, [r3, #5]
 8000470:	e5c31006 	strb	r1, [r3, #6]
 8000474:	e59f3010 	ldr	r3, [pc, #16]	@ 800048c <do_soft_reset+0x68>
 8000478:	e1c208b4 	strh	r0, [r2, #132]	@ 0x84
 800047c:	e1c300b8 	strh	r0, [r3, #8]
 8000480:	eb000761 	bl	800220c <__SoftReset_from_arm>
 8000484:	e8bd4010 	pop	{r4, lr}
 8000488:	e12fff1e 	bx	lr
 800048c:	04000200 	streq	r0, [r0], #-512	@ 0xfffffe00

08000490 <rand_init>:
 8000490:	e59f2044 	ldr	r2, [pc, #68]	@ 80004dc <rand_init+0x4c>
 8000494:	e92d4010 	push	{r4, lr}
 8000498:	e59f1040 	ldr	r1, [pc, #64]	@ 80004e0 <rand_init+0x50>
 800049c:	e59f4040 	ldr	r4, [pc, #64]	@ 80004e4 <rand_init+0x54>
 80004a0:	e282ed27 	add	lr, r2, #2496	@ 0x9c0
 80004a4:	e0030091 	mul	r3, r1, r0
 80004a8:	e2833001 	add	r3, r3, #1
 80004ac:	e00c0391 	mul	ip, r1, r3
 80004b0:	e0000004 	and	r0, r0, r4
 80004b4:	e1800823 	orr	r0, r0, r3, lsr #16
 80004b8:	e5a20004 	str	r0, [r2, #4]!
 80004bc:	e15e0002 	cmp	lr, r2
 80004c0:	e28c0001 	add	r0, ip, #1
 80004c4:	1afffff6 	bne	80004a4 <rand_init+0x14>
 80004c8:	e3a02e27 	mov	r2, #624	@ 0x270
 80004cc:	e59f3014 	ldr	r3, [pc, #20]	@ 80004e8 <rand_init+0x58>
 80004d0:	e8bd4010 	pop	{r4, lr}
 80004d4:	e58329c4 	str	r2, [r3, #2500]	@ 0x9c4
 80004d8:	e12fff1e 	bx	lr
 80004dc:	03000000 	tsteq	r0, #0
 80004e0:	000a8795 	muleq	sl, r5, r7
 80004e4:	ffff0000 			@ <UNDEFINED> instruction: 0xffff0000
 80004e8:	03000004 	tsteq	r0, #4

080004ec <rand_gen>:
 80004ec:	e92d40f0 	push	{r4, r5, r6, r7, lr}
 80004f0:	e59fe11c 	ldr	lr, [pc, #284]	@ 8000614 <rand_gen+0x128>
 80004f4:	e59e39c4 	ldr	r3, [lr, #2500]	@ 0x9c4
 80004f8:	e3530e27 	cmp	r3, #624	@ 0x270
 80004fc:	32831001 	addcc	r1, r3, #1
 8000500:	3a000025 	bcc	800059c <rand_gen+0xb0>
 8000504:	e59f210c 	ldr	r2, [pc, #268]	@ 8000618 <rand_gen+0x12c>
 8000508:	e1530002 	cmp	r3, r2
 800050c:	128e7e9b 	addne	r7, lr, #2480	@ 0x9b0
 8000510:	0a00002d 	beq	80005cc <rand_gen+0xe0>
 8000514:	e59e1000 	ldr	r1, [lr]
 8000518:	e59fe0f4 	ldr	lr, [pc, #244]	@ 8000614 <rand_gen+0x128>
 800051c:	e1a0300e 	mov	r3, lr
 8000520:	e59fc0f4 	ldr	ip, [pc, #244]	@ 800061c <rand_gen+0x130>
 8000524:	e28e6fe3 	add	r6, lr, #908	@ 0x38c
 8000528:	e2015102 	and	r5, r1, #-2147483648	@ 0x80000000
 800052c:	e5931004 	ldr	r1, [r3, #4]
 8000530:	e5932634 	ldr	r2, [r3, #1588]	@ 0x634
 8000534:	e79c4101 	ldr	r4, [ip, r1, lsl #2]
 8000538:	e3c10102 	bic	r0, r1, #-2147483648	@ 0x80000000
 800053c:	e1800005 	orr	r0, r0, r5
 8000540:	e0222004 	eor	r2, r2, r4
 8000544:	e02220a0 	eor	r2, r2, r0, lsr #1
 8000548:	e4832004 	str	r2, [r3], #4
 800054c:	e1530006 	cmp	r3, r6
 8000550:	1afffff4 	bne	8000528 <rand_gen+0x3c>
 8000554:	e59f50c4 	ldr	r5, [pc, #196]	@ 8000620 <rand_gen+0x134>
 8000558:	e59e138c 	ldr	r1, [lr, #908]	@ 0x38c
 800055c:	e287600c 	add	r6, r7, #12
 8000560:	e045500e 	sub	r5, r5, lr
 8000564:	e1a02001 	mov	r2, r1
 8000568:	e2014102 	and	r4, r1, #-2147483648	@ 0x80000000
 800056c:	e5931004 	ldr	r1, [r3, #4]
 8000570:	e79c2102 	ldr	r2, [ip, r2, lsl #2]
 8000574:	e3c10102 	bic	r0, r1, #-2147483648	@ 0x80000000
 8000578:	e1800004 	orr	r0, r0, r4
 800057c:	e02220a0 	eor	r2, r2, r0, lsr #1
 8000580:	e7930005 	ldr	r0, [r3, r5]
 8000584:	e0222000 	eor	r2, r2, r0
 8000588:	e4832004 	str	r2, [r3], #4
 800058c:	e1530006 	cmp	r3, r6
 8000590:	1afffff3 	bne	8000564 <rand_gen+0x78>
 8000594:	e3a01001 	mov	r1, #1
 8000598:	e3a03000 	mov	r3, #0
 800059c:	e79e2103 	ldr	r2, [lr, r3, lsl #2]
 80005a0:	e59f307c 	ldr	r3, [pc, #124]	@ 8000624 <rand_gen+0x138>
 80005a4:	e02225a2 	eor	r2, r2, r2, lsr #11
 80005a8:	e59f0078 	ldr	r0, [pc, #120]	@ 8000628 <rand_gen+0x13c>
 80005ac:	e0033382 	and	r3, r3, r2, lsl #7
 80005b0:	e0233002 	eor	r3, r3, r2
 80005b4:	e0000783 	and	r0, r0, r3, lsl #15
 80005b8:	e0200003 	eor	r0, r0, r3
 80005bc:	e58e19c4 	str	r1, [lr, #2500]	@ 0x9c4
 80005c0:	e0200920 	eor	r0, r0, r0, lsr #18
 80005c4:	e8bd40f0 	pop	{r4, r5, r6, r7, lr}
 80005c8:	e12fff1e 	bx	lr
 80005cc:	e24e1004 	sub	r1, lr, #4
 80005d0:	e59f3054 	ldr	r3, [pc, #84]	@ 800062c <rand_gen+0x140>
 80005d4:	e59f0054 	ldr	r0, [pc, #84]	@ 8000630 <rand_gen+0x144>
 80005d8:	e59f5054 	ldr	r5, [pc, #84]	@ 8000634 <rand_gen+0x148>
 80005dc:	e28e7e9b 	add	r7, lr, #2480	@ 0x9b0
 80005e0:	e2814d27 	add	r4, r1, #2496	@ 0x9c0
 80005e4:	e0020390 	mul	r2, r0, r3
 80005e8:	e2822001 	add	r2, r2, #1
 80005ec:	e00c0290 	mul	ip, r0, r2
 80005f0:	e0033005 	and	r3, r3, r5
 80005f4:	e1833822 	orr	r3, r3, r2, lsr #16
 80005f8:	e5a13004 	str	r3, [r1, #4]!
 80005fc:	e1540001 	cmp	r4, r1
 8000600:	e28c3001 	add	r3, ip, #1
 8000604:	1afffff6 	bne	80005e4 <rand_gen+0xf8>
 8000608:	e3a03e27 	mov	r3, #624	@ 0x270
 800060c:	e58e39c4 	str	r3, [lr, #2500]	@ 0x9c4
 8000610:	eaffffbf 	b	8000514 <rand_gen+0x28>
 8000614:	03000004 	tsteq	r0, #4
 8000618:	00000271 	andeq	r0, r0, r1, ror r2
 800061c:	08002250 	stmdaeq	r0, {r4, r6, r9, sp}
 8000620:	02004ea4 	andeq	r4, r0, #164, 28	@ 0xa40
 8000624:	9d2c5680 	stcls	6, cr5, [ip, #-512]!	@ 0xfffffe00
 8000628:	efc60000 	svc	0x00c60000
 800062c:	00001105 	andeq	r1, r0, r5, lsl #2
 8000630:	000a8795 	muleq	sl, r5, r7
 8000634:	ffff0000 			@ <UNDEFINED> instruction: 0xffff0000

08000638 <index_asset_tbl>:
 8000638:	e2811001 	add	r1, r1, #1
 800063c:	e7903101 	ldr	r3, [r0, r1, lsl #2]
 8000640:	e0800003 	add	r0, r0, r3
 8000644:	e12fff1e 	bx	lr

08000648 <inp_init>:
 8000648:	e3a03000 	mov	r3, #0
 800064c:	e5d0200e 	ldrb	r2, [r0, #14]
 8000650:	e3c22001 	bic	r2, r2, #1
 8000654:	e1c030b0 	strh	r3, [r0]
 8000658:	e5c0200e 	strb	r2, [r0, #14]
 800065c:	e1c030b2 	strh	r3, [r0, #2]
 8000660:	e1c030b4 	strh	r3, [r0, #4]
 8000664:	e1c010b6 	strh	r1, [r0, #6]
 8000668:	e1c030b8 	strh	r3, [r0, #8]
 800066c:	e1c030ba 	strh	r3, [r0, #10]
 8000670:	e1c030bc 	strh	r3, [r0, #12]
 8000674:	e12fff1e 	bx	lr

08000678 <init_gfx_regs>:
 8000678:	e3a03000 	mov	r3, #0
 800067c:	e1c030b4 	strh	r3, [r0, #4]
 8000680:	e1c030b6 	strh	r3, [r0, #6]
 8000684:	e1c030b8 	strh	r3, [r0, #8]
 8000688:	e1c030ba 	strh	r3, [r0, #10]
 800068c:	e1c030bc 	strh	r3, [r0, #12]
 8000690:	e12fff1e 	bx	lr

08000694 <clear_gfx_staging>:
 8000694:	e92d41f0 	push	{r4, r5, r6, r7, r8, lr}
 8000698:	e3a05000 	mov	r5, #0
 800069c:	e2806db1 	add	r6, r0, #11328	@ 0x2c40
 80006a0:	e3a01b02 	mov	r1, #2048	@ 0x800
 80006a4:	e1c650b6 	strh	r5, [r6, #6]
 80006a8:	e1c650b4 	strh	r5, [r6, #4]
 80006ac:	e1c650b2 	strh	r5, [r6, #2]
 80006b0:	e1c650b0 	strh	r5, [r6]
 80006b4:	e1a04000 	mov	r4, r0
 80006b8:	e2807a02 	add	r7, r0, #8192	@ 0x2000
 80006bc:	ebfffee7 	bl	8000260 <do_dma_clear>
 80006c0:	e3a01b02 	mov	r1, #2048	@ 0x800
 80006c4:	e0840001 	add	r0, r4, r1
 80006c8:	ebfffee4 	bl	8000260 <do_dma_clear>
 80006cc:	e2840a01 	add	r0, r4, #4096	@ 0x1000
 80006d0:	e3a01b02 	mov	r1, #2048	@ 0x800
 80006d4:	ebfffee1 	bl	8000260 <do_dma_clear>
 80006d8:	e2840b06 	add	r0, r4, #6144	@ 0x1800
 80006dc:	e3a01b02 	mov	r1, #2048	@ 0x800
 80006e0:	e2844c27 	add	r4, r4, #9984	@ 0x2700
 80006e4:	ebfffedd 	bl	8000260 <do_dma_clear>
 80006e8:	e1a00004 	mov	r0, r4
 80006ec:	e3a01b01 	mov	r1, #1024	@ 0x400
 80006f0:	ebfffeda 	bl	8000260 <do_dma_clear>
 80006f4:	e1c650b8 	strh	r5, [r6, #8]
 80006f8:	e1c650ba 	strh	r5, [r6, #10]
 80006fc:	e1c650bc 	strh	r5, [r6, #12]
 8000700:	e5c75c4e 	strb	r5, [r7, #3150]	@ 0xc4e
 8000704:	e1c450b0 	strh	r5, [r4]
 8000708:	e8bd41f0 	pop	{r4, r5, r6, r7, r8, lr}
 800070c:	e12fff1e 	bx	lr

08000710 <init_subsystems>:
 8000710:	e92d4010 	push	{r4, lr}
 8000714:	e59f001c 	ldr	r0, [pc, #28]	@ 8000738 <init_subsystems+0x28>
 8000718:	ebffffd6 	bl	8000678 <init_gfx_regs>
 800071c:	e59f0018 	ldr	r0, [pc, #24]	@ 800073c <init_subsystems+0x2c>
 8000720:	ebffffdb 	bl	8000694 <clear_gfx_staging>
 8000724:	e3a01002 	mov	r1, #2
 8000728:	e59f0010 	ldr	r0, [pc, #16]	@ 8000740 <init_subsystems+0x30>
 800072c:	ebffffc5 	bl	8000648 <inp_init>
 8000730:	e8bd4010 	pop	{r4, lr}
 8000734:	e12fff1e 	bx	lr
 8000738:	030034dc 	tsteq	r0, #220, 8	@ 0xdc000000
 800073c:	030009dc 	tsteq	r0, #220, 18	@ 0x370000
 8000740:	030009cc 	tsteq	r0, #204, 18	@ 0x330000

08000744 <health_gfx>:
 8000744:	00000005 	andeq	r0, r0, r5
 8000748:	0000001c 	andeq	r0, r0, ip, lsl r0
 800074c:	00000d90 	muleq	r0, r0, sp
 8000750:	00000db0 			@ <UNDEFINED> instruction: 0x00000db0
 8000754:	000012bc 			@ <UNDEFINED> instruction: 0x000012bc
 8000758:	0000148c 	andeq	r1, r0, ip, lsl #9
 800075c:	000014d4 			@ <UNDEFINED> instruction: 0x000014d4
 8000760:	00440010 	subeq	r0, r4, r0, lsl r0
 8000764:	f0000033 			@ <UNDEFINED> instruction: 0xf0000033
 8000768:	ee019001 	cdp	0, 0, cr9, cr1, cr1, {0}
 800076c:	f001f0ee 			@ <UNDEFINED> instruction: 0xf001f0ee
 8000770:	01408101 	cmpeq	r0, r1, lsl #2
 8000774:	1eeeee11 	mcrne	14, 7, lr, cr14, cr1, {0}
 8000778:	0320e111 			@ <UNDEFINED> instruction: 0x0320e111
 800077c:	11cc111f 	bicne	r1, ip, pc, lsl r1
 8000780:	24f00320 	ldrbtcs	r0, [r0], #800	@ 0x320
 8000784:	03202d90 			@ <UNDEFINED> instruction: 0x03202d90
 8000788:	f0cb01f0 			@ <UNDEFINED> instruction: 0xf0cb01f0
 800078c:	1e01e01e 	mcrne	0, 0, lr, cr1, cr14, {0}
 8000790:	115f0011 	cmpne	pc, r1, lsl r0	@ <UNPREDICTABLE>
 8000794:	1af06800 	bne	7c1a79c <IntrTable+0x4c172ac>
 8000798:	e11f50bb 	ldrh	r5, [pc, -fp]
 800079c:	40f00300 	rscsmi	r0, r0, r0, lsl #6
 80007a0:	201e5e70 	andscs	r5, lr, r0, ror lr
 80007a4:	9f19f003 	svcls	0x0019f003
 80007a8:	1ee10120 	cdpne	1, 14, cr0, cr1, cr0, {1}
 80007ac:	19f00130 	ldmibne	r0!, {r4, r5, r8}^
 80007b0:	3c001f40 	stccc	15, cr1, [r0], {64}	@ 0x40
 80007b4:	f0ff0310 			@ <UNDEFINED> instruction: 0xf0ff0310
 80007b8:	f07f7019 			@ <UNDEFINED> instruction: 0xf07f7019
 80007bc:	f001f09f 			@ <UNDEFINED> instruction: 0xf001f09f
 80007c0:	003f4001 	eorseq	r4, pc, r1
 80007c4:	ff03105c 			@ <UNDEFINED> instruction: 0xff03105c
 80007c8:	bf5019f0 	svclt	0x005019f0
 80007cc:	18f00031 	ldmne	r0!, {r0, r4, r5}^
 80007d0:	18f020b1 	ldmne	r0!, {r0, r4, r5, r7, sp}^
 80007d4:	df006070 	svcle	0x00006070
 80007d8:	7017f0ff 	ldrshvc	pc, [r7], -pc	@ <UNPREDICTABLE>
 80007dc:	f001205e 			@ <UNDEFINED> instruction: 0xf001205e
 80007e0:	f09ff019 			@ <UNDEFINED> instruction: 0xf09ff019
 80007e4:	f1223001 			@ <UNDEFINED> instruction: 0xf1223001
 80007e8:	5f90ffc0 	svcpl	0x0090ffc0
 80007ec:	19f0a231 	ldmibne	r0!, {r0, r4, r5, r9, sp, pc}^
 80007f0:	01f05ff1 	ldrsheq	r5, [r0, #241]!	@ 0xf1
 80007f4:	c0f0fe60 	rscsgt	pc, r0, r0, ror #28
 80007f8:	f0ff8dc2 			@ <UNDEFINED> instruction: 0xf0ff8dc2
 80007fc:	f07f9016 			@ <UNDEFINED> instruction: 0xf07f9016
 8000800:	f09ff060 			@ <UNDEFINED> instruction: 0xf09ff060
 8000804:	211f3001 	tstcs	pc, r1
 8000808:	ff3ff0de 			@ <UNDEFINED> instruction: 0xff3ff0de
 800080c:	7d121f60 	ldcvc	15, cr1, [r2, #-384]	@ 0xfffffe80
 8000810:	3ff07ff0 	svccc	0x00f07ff0
 8000814:	fff201f0 			@ <UNDEFINED> instruction: 0xfff201f0
 8000818:	015001f0 	ldrsheq	r0, [r0, #-16]
 800081c:	f0b1f3ff 			@ <UNDEFINED> instruction: 0xf0b1f3ff
 8000820:	f301f001 	vhadd.u8	d15, d1, d1
 8000824:	a101f0df 			@ <UNDEFINED> instruction: 0xa101f0df
 8000828:	11cb51c7 	bicne	r5, fp, r7, asr #3
 800082c:	30c14853 	sbccc	r4, r1, r3, asr r8
 8000830:	10cc1103 	sbcne	r1, ip, r3, lsl #2
 8000834:	1c11c103 	ldcne	1, cr12, [r1], {3}
 8000838:	0310e15a 	tsteq	r0, #-2147483626	@ 0x80000016
 800083c:	40ec03cc 	rscmi	r0, ip, ip, asr #7
 8000840:	03201c01 			@ <UNDEFINED> instruction: 0x03201c01
 8000844:	01009fcc 	tsteq	r0, ip, asr #31
 8000848:	2300cc11 	tstcs	r0, #4352	@ 0x1100
 800084c:	0320c860 			@ <UNDEFINED> instruction: 0x0320c860
 8000850:	0320b001 			@ <UNDEFINED> instruction: 0x0320b001
 8000854:	200c00ef 	andcs	r0, ip, pc, ror #1
 8000858:	1e1a5003 	cdpne	0, 1, cr5, cr10, cr3, {0}
 800085c:	03100a01 	tsteq	r0, #4096	@ 0x1000
 8000860:	bc03d652 	stclt	6, cr13, [r3], {82}	@ 0x52
 8000864:	700320ff 			@ <UNDEFINED> instruction: 0x700320ff
 8000868:	61030019 	tstvs	r3, r9, lsl r0
 800086c:	52137034 	andspl	r7, r3, #52	@ 0x34
 8000870:	21032087 	tstcs	r3, r7, lsl #1
 8000874:	b401fb71 	strlt	pc, [r1], #-2929	@ 0xfffff48f
 8000878:	6d001380 	stcvs	3, cr1, [r0, #-512]	@ 0xfffffe00
 800087c:	0310e703 	tsteq	r0, #786432	@ 0xc0000
 8000880:	10034011 	andne	r4, r3, r1, lsl r0
 8000884:	5820ff54 	stmdapl	r0!, {r2, r4, r6, r8, r9, sl, fp, ip, sp, lr, pc}
 8000888:	e7530120 	ldrb	r0, [r3, -r0, lsr #2]
 800088c:	013001f0 	teqeq	r0, r0	@ <illegal shifter operand>
 8000890:	03302870 	teqeq	r0, #112, 16	@ 0x700000
 8000894:	30ff8000 	rscscc	r8, pc, r0
 8000898:	809f6003 	addshi	r6, pc, r3
 800089c:	20f804dc 	ldrsbcs	r0, [r8], #76	@ 0x4c	@ <UNPREDICTABLE>
 80008a0:	d29f8003 	addsle	r8, pc, #3
 80008a4:	ff032054 			@ <UNDEFINED> instruction: 0xff032054
 80008a8:	bf9047f3 	svclt	0x009047f3
 80008ac:	bf200f70 	svclt	0x00200f70
 80008b0:	1c416090 	stclne	0, cr6, [r1], {144}	@ 0x90
 80008b4:	c74413a0 	strbgt	r1, [r4, -r0, lsr #7]
 80008b8:	600320ff 			@ <UNDEFINED> instruction: 0x600320ff
 80008bc:	1113601f 	tstne	r3, pc, lsl r0
 80008c0:	7003f00c 	andvc	pc, r3, ip
 80008c4:	f0a22003 			@ <UNDEFINED> instruction: 0xf0a22003
 80008c8:	0360ff03 	msreq	SPSR_, #3, 30
 80008cc:	9fc09ff0 	svcls	0x00c09ff0
 80008d0:	03e0dfc1 	mvneq	sp, #772	@ 0x304
 80008d4:	03404315 	cmpeq	r0, #1409286144	@ 0x54000000
 80008d8:	70ff9235 	rscsvc	r9, pc, r5, lsr r2	@ <UNPREDICTABLE>
 80008dc:	f113200f 			@ <UNDEFINED> instruction: 0xf113200f
 80008e0:	815fc15f 	cmphi	pc, pc, asr r1	@ <UNPREDICTABLE>
 80008e4:	d003f0ff 			@ <UNDEFINED> instruction: 0xd003f0ff
 80008e8:	ff34f3b0 			@ <UNDEFINED> instruction: 0xff34f3b0
 80008ec:	af003d91 	svcge	0x00003d91
 80008f0:	01901d21 	orrseq	r1, r0, r1, lsr #26
 80008f4:	9fa09ff0 	svcls	0x00a09ff0
 80008f8:	b322af52 			@ <UNDEFINED> instruction: 0xb322af52
 80008fc:	907e42ff 	ldrshls	r4, [lr], #-47	@ 0xffffffd1	@ <UNPREDICTABLE>
 8000900:	e0def113 	sbcs	pc, lr, r3, lsl r1	@ <UNPREDICTABLE>
 8000904:	40eb627c 	rscmi	r6, fp, ip, ror r2
 8000908:	30a46003 	adccc	r6, r4, r3
 800090c:	0d70ff2a 	ldcleq	15, cr15, [r0, #-168]!	@ 0xffffff58
 8000910:	7321be31 			@ <UNDEFINED> instruction: 0x7321be31
 8000914:	01f00360 	mvnseq	r0, r0, ror #6
 8000918:	01f0fff3 	ldrsheq	pc, [r0, #243]!	@ 0xf3	@ <UNPREDICTABLE>
 800091c:	f0f301f0 			@ <UNDEFINED> instruction: 0xf0f301f0
 8000920:	f0fff301 			@ <UNDEFINED> instruction: 0xf0fff301
 8000924:	c1a01201 	lslgt	r1, r1, #4
 8000928:	f00330cc 			@ <UNDEFINED> instruction: 0xf00330cc
 800092c:	0110fbdd 			@ <UNDEFINED> instruction: 0x0110fbdd
 8000930:	ea23e313 	b	88f9584 <IntrRet+0x8f6e9c>
 8000934:	01202ff6 			@ <UNDEFINED> instruction: 0x01202ff6
 8000938:	1073011c 	rsbsne	r0, r3, ip, lsl r1
 800093c:	2ce1ff03 	stclcs	15, cr15, [r1], #12
 8000940:	01f0e7f4 	ldrsheq	lr, [r0, #116]!	@ 0x74
 8000944:	19f01984 	ldmibne	r0!, {r2, r7, r8, fp, ip}^
 8000948:	01f087f6 	ldrsheq	r8, [r0, #118]!	@ 0x76
 800094c:	f7ffe7f7 			@ <UNDEFINED> instruction: 0xf7ffe7f7
 8000950:	f6e7f7e7 			@ <UNDEFINED> instruction: 0xf6e7f7e7
 8000954:	865ef087 	ldrbhi	pc, [lr], -r7, lsl #1	@ <UNPREDICTABLE>
 8000958:	f0341287 			@ <UNDEFINED> instruction: 0xf0341287
 800095c:	ff01f018 			@ <UNDEFINED> instruction: 0xff01f018
 8000960:	bff001f0 	svclt	0x00f001f0
 8000964:	e7f701f0 	udf	#28688	@ 0x7010
 8000968:	dff0dff0 	svcle	0x00f0dff0
 800096c:	a0f0df80 	rscsge	sp, r0, r0, lsl #31
 8000970:	f8ffc0ff 			@ <UNDEFINED> instruction: 0xf8ffc0ff
 8000974:	f09ff007 			@ <UNDEFINED> instruction: 0xf09ff007
 8000978:	f0c0f13f 			@ <UNDEFINED> instruction: 0xf0c0f13f
 800097c:	33403001 	cmpcc	r0, #1
 8000980:	19f0ff4b 	ldmibne	r0!, {r0, r1, r3, r6, r8, r9, sl, fp, ip, sp, lr, pc}^
 8000984:	01f05ff1 	ldrsheq	r5, [r0, #241]!	@ 0xf1
 8000988:	18f07453 	ldmne	r0!, {r0, r1, r4, r6, sl, ip, sp, lr}^
 800098c:	e7f7e888 	ldrb	lr, [r7, r8, lsl #17]!
 8000990:	23ff93a3 	mvnscs	r9, #-1946157054	@ 0x8c000002
 8000994:	f019f0f7 			@ <UNDEFINED> instruction: 0xf019f0f7
 8000998:	1001f09f 	mulne	r1, pc, r0	@ <UNPREDICTABLE>
 800099c:	f3e7f39f 	vrsra.u64	d31, d15, #25
 80009a0:	ff17f0f3 			@ <UNDEFINED> instruction: 0xff17f0f3
 80009a4:	01f01cf1 	ldrsheq	r1, [r0, #193]!	@ 0xc1
 80009a8:	ddf25f41 	ldclle	15, cr5, [r2, #260]!	@ 0x104
 80009ac:	01f001f0 	ldrsheq	r0, [r0, #16]!
 80009b0:	01f0fff3 	ldrsheq	pc, [r0, #243]!	@ 0xf3	@ <UNPREDICTABLE>
 80009b4:	f301f0ff 	vqadd.u8	<illegal reg q7.5>, <illegal reg q8.5>, <illegal reg q15.5>
 80009b8:	f052f0ff 			@ <UNDEFINED> instruction: 0xf052f0ff
 80009bc:	f001f001 			@ <UNDEFINED> instruction: 0xf001f001
 80009c0:	f001f001 			@ <UNDEFINED> instruction: 0xf001f001
 80009c4:	01f0f901 	mvnseq	pc, r1, lsl #18
 80009c8:	d7b101f0 			@ <UNDEFINED> instruction: 0xd7b101f0
 80009cc:	d77216f0 			@ <UNDEFINED> instruction: 0xd77216f0
 80009d0:	1ef01ee1 	cdpne	14, 15, cr1, cr0, cr1, {7}
 80009d4:	05f7a1ff 	ldrbeq	sl, [r7, #511]!	@ 0x1ff
 80009d8:	b018f049 	andslt	pc, r8, r9, asr #32
 80009dc:	6020f03f 	eorvs	pc, r0, pc, lsr r0	@ <UNPREDICTABLE>
 80009e0:	f03df07d 			@ <UNDEFINED> instruction: 0xf03df07d
 80009e4:	22f0ff20 	rscscs	pc, r0, #32, 30	@ 0x80
 80009e8:	01f034d9 	ldrsbeq	r3, [r0, #73]!	@ 0x49
 80009ec:	01301f50 	teqeq	r0, r0, asr pc
 80009f0:	1f5019f0 	svcne	0x005019f0
 80009f4:	f0ff8826 			@ <UNDEFINED> instruction: 0xf0ff8826
 80009f8:	f13f9018 			@ <UNDEFINED> instruction: 0xf13f9018
 80009fc:	12ff7001 	rscsne	r7, pc, #1
 8000a00:	f01df053 			@ <UNDEFINED> instruction: 0xf01df053
 8000a04:	ff19f0bf 			@ <UNDEFINED> instruction: 0xff19f0bf
 8000a08:	01f0fff0 	ldrsheq	pc, [r0, #240]!	@ 0xf0	@ <UNPREDICTABLE>
 8000a0c:	2100b313 	tstcs	r0, r3, lsl r3
 8000a10:	41b0b8f2 	rorsmi	fp, r2	@ <illegal shifter operand>
 8000a14:	9f6042f0 	svcls	0x006042f0
 8000a18:	f000f1ff 			@ <UNDEFINED> instruction: 0xf000f1ff
 8000a1c:	f116f07f 			@ <UNDEFINED> instruction: 0xf116f07f
 8000a20:	f019f040 			@ <UNDEFINED> instruction: 0xf019f040
 8000a24:	0001f03f 	andeq	pc, r1, pc, lsr r0	@ <UNPREDICTABLE>
 8000a28:	0130ffb9 	teqpeq	r0, r9	@ <illegal shifter operand>	@ p-variant is OBSOLETE
 8000a2c:	3e6d19f0 			@ <UNDEFINED> instruction: 0x3e6d19f0
 8000a30:	e0f15ff0 	ldrsh	r5, [r1], #240	@ 0xf0	@ <UNPREDICTABLE>
 8000a34:	01f017f0 	ldrsheq	r1, [r0, #112]!	@ 0x70
 8000a38:	f0ff01f0 			@ <UNDEFINED> instruction: 0xf0ff01f0
 8000a3c:	f001f001 			@ <UNDEFINED> instruction: 0xf001f001
 8000a40:	f301f001 	vhadd.u8	d15, d1, d1
 8000a44:	f001f0ff 			@ <UNDEFINED> instruction: 0xf001f0ff
 8000a48:	fffff301 			@ <UNDEFINED> instruction: 0xfffff301
 8000a4c:	01f001f0 	ldrsheq	r0, [r0, #16]!
 8000a50:	01f001f0 	ldrsheq	r0, [r0, #16]!
 8000a54:	01f001f0 	ldrsheq	r0, [r0, #16]!
 8000a58:	035048f1 	cmpeq	r0, #15794176	@ 0xf10000
 8000a5c:	90ef43ff 			@ <UNDEFINED> instruction: 0x90ef43ff
 8000a60:	0005000f 	andeq	r0, r5, pc
 8000a64:	5303100a 	tstpl	r3, #10
 8000a68:	310f90ef 	tstcc	pc, pc, ror #1
 8000a6c:	201e7fc7 	andscs	r7, lr, r7, asr #31
 8000a70:	50ae1103 	adcpl	r1, lr, r3, lsl #2
 8000a74:	3503300b 	strcc	r3, [r3, #-11]
 8000a78:	30e31376 	rsccc	r1, r3, r6, ror r3
 8000a7c:	3f20ff03 	svccc	0x0020ff03
 8000a80:	f5250350 			@ <UNDEFINED> instruction: 0xf5250350
 8000a84:	2f327db0 	svccs	0x00327db0
 8000a88:	67a20f90 			@ <UNDEFINED> instruction: 0x67a20f90
 8000a8c:	c0fd20e0 	rscsgt	r2, sp, r0, ror #1
 8000a90:	700330bd 	strhvc	r3, [r3], -sp
 8000a94:	109010a2 	addsne	r1, r0, r2, lsr #1
 8000a98:	e168009f 			@ <UNDEFINED> instruction: 0xe168009f
 8000a9c:	10ff6802 	rscsne	r6, pc, r2, lsl #16
 8000aa0:	a0531e03 	subsge	r1, r3, r3, lsl #28
 8000aa4:	505e4001 	subspl	r4, lr, r1
 8000aa8:	304db0b3 	strhcc	fp, [sp], #-3
 8000aac:	ffe31380 			@ <UNDEFINED> instruction: 0xffe31380
 8000ab0:	390301a0 	stmdbcc	r3, {r5, r7, r8}
 8000ab4:	7cb20330 	ldcvc	3, cr0, [r2], #192	@ 0xc0
 8000ab8:	3e802d21 	cdpcc	13, 8, cr2, cr0, cr1, {1}
 8000abc:	89109c33 	ldmdbhi	r0, {r0, r1, r4, r5, sl, fp, ip, pc}
 8000ac0:	50bfa0ff 	ldrshpl	sl, [pc], pc	@ <UNPREDICTABLE>
 8000ac4:	507f8003 	rsbspl	r8, pc, r3
 8000ac8:	105e21af 	subsne	r2, lr, pc, lsr #3
 8000acc:	110c17b4 			@ <UNDEFINED> instruction: 0x110c17b4
 8000ad0:	7f30ff5e 	svcvc	0x0030ff5e
 8000ad4:	12205181 	eorne	r5, r0, #1073741856	@ 0x40000020
 8000ad8:	f5360360 			@ <UNDEFINED> instruction: 0xf5360360
 8000adc:	033031fc 	teqeq	r0, #252, 2	@ 0x3f
 8000ae0:	70ff2161 	rscsvc	r2, pc, r1, ror #2
 8000ae4:	f1fdd07f 			@ <UNDEFINED> instruction: 0xf1fdd07f
 8000ae8:	f07ff17f 			@ <UNDEFINED> instruction: 0xf07ff17f
 8000aec:	f03ff03f 			@ <UNDEFINED> instruction: 0xf03ff03f
 8000af0:	ffbff0bf 			@ <UNDEFINED> instruction: 0xffbff0bf
 8000af4:	bf40bff0 	svclt	0x0040bff0
 8000af8:	014053e0 	cmpeq	r0, r0, ror #7
 8000afc:	4f517c65 	svcmi	0x00517c65
 8000b00:	fbf35fc1 			@ <UNDEFINED> instruction: 0xfbf35fc1
 8000b04:	f001f0ff 			@ <UNDEFINED> instruction: 0xf001f0ff
 8000b08:	f001f001 			@ <UNDEFINED> instruction: 0xf001f001
 8000b0c:	f001f001 			@ <UNDEFINED> instruction: 0xf001f001
 8000b10:	f0fff301 			@ <UNDEFINED> instruction: 0xf0fff301
 8000b14:	01f0ff01 	mvnseq	pc, r1, lsl #30
 8000b18:	fff301f0 			@ <UNDEFINED> instruction: 0xfff301f0
 8000b1c:	01f001f0 	ldrsheq	r0, [r0, #16]!
 8000b20:	01f001f0 	ldrsheq	r0, [r0, #16]!
 8000b24:	f0ff01f0 			@ <UNDEFINED> instruction: 0xf0ff01f0
 8000b28:	e401f001 	str	pc, [r1], #-1
 8000b2c:	86a0f514 			@ <UNDEFINED> instruction: 0x86a0f514
 8000b30:	b6b7fbfc 			@ <UNDEFINED> instruction: 0xb6b7fbfc
 8000b34:	ffbef5da 			@ <UNDEFINED> instruction: 0xffbef5da
 8000b38:	1ef01d87 	cdpne	13, 15, cr1, cr0, cr7, {4}
 8000b3c:	bc135bf6 			@ <UNDEFINED> instruction: 0xbc135bf6
 8000b40:	a71e1df0 			@ <UNDEFINED> instruction: 0xa71e1df0
 8000b44:	9a100d02 	bls	8403f54 <IntrRet+0x40186c>
 8000b48:	a69ef0ff 			@ <UNDEFINED> instruction: 0xa69ef0ff
 8000b4c:	f461f03b 	vld4.8	{d31-d34}, [r1 :256], fp
 8000b50:	1001f034 	andne	pc, r1, r4, lsr r0	@ <UNPREDICTABLE>
 8000b54:	f0b664bf 			@ <UNDEFINED> instruction: 0xf0b664bf
 8000b58:	7f10ff1d 	svcvc	0x0010ff1d
 8000b5c:	6954ed03 	ldmdbvs	r4, {r0, r1, r8, sl, fp, sp, lr, pc}^
 8000b60:	372f01f0 			@ <UNDEFINED> instruction: 0x372f01f0
 8000b64:	fcf6def6 			@ <UNDEFINED> instruction: 0xfcf6def6
 8000b68:	f0ff0b15 			@ <UNDEFINED> instruction: 0xf0ff0b15
 8000b6c:	1f1f101c 	svcne	0x001f101c
 8000b70:	7041f080 	subvc	pc, r1, r0, lsl #1
 8000b74:	451d231e 	ldrmi	r2, [sp, #-798]	@ 0xfffffce2
 8000b78:	ff01f066 			@ <UNDEFINED> instruction: 0xff01f066
 8000b7c:	24003c10 	strcs	r3, [r0], #-3088	@ 0xfffff3f0
 8000b80:	01f00330 	mvnseq	r0, r0, lsr r3
 8000b84:	1335db3f 	teqne	r5, #64512	@ 0xfc00
 8000b88:	556b1cf0 	strbpl	r1, [fp, #-3312]!	@ 0xfffff310
 8000b8c:	945ff1ff 	ldrbls	pc, [pc], #-511	@ 8000b94 <health_gfx+0x450>	@ <UNPREDICTABLE>
 8000b90:	f05355ec 			@ <UNDEFINED> instruction: 0xf05355ec
 8000b94:	f01ea01c 			@ <UNDEFINED> instruction: 0xf01ea01c
 8000b98:	f094351f 			@ <UNDEFINED> instruction: 0xf094351f
 8000b9c:	7eb0ffbe 	mrcvc	15, 5, APSR_nzcv, cr0, cr14, {5}
 8000ba0:	1ef01a30 			@ <UNDEFINED> instruction: 0x1ef01a30
 8000ba4:	bef19d60 	cdplt	13, 15, cr9, cr1, cr0, {3}
 8000ba8:	01f001f0 	ldrsheq	r0, [r0, #16]!
 8000bac:	f0ff01f0 			@ <UNDEFINED> instruction: 0xf0ff01f0
 8000bb0:	f001f001 			@ <UNDEFINED> instruction: 0xf001f001
 8000bb4:	f0fff301 			@ <UNDEFINED> instruction: 0xf0fff301
 8000bb8:	f001f001 			@ <UNDEFINED> instruction: 0xf001f001
 8000bbc:	fffff301 			@ <UNDEFINED> instruction: 0xfffff301
 8000bc0:	01f001f0 	ldrsheq	r0, [r0, #16]!
 8000bc4:	01f001f0 	ldrsheq	r0, [r0, #16]!
 8000bc8:	01f001f0 	ldrsheq	r0, [r0, #16]!
 8000bcc:	4626627d 			@ <UNDEFINED> instruction: 0x4626627d
 8000bd0:	52ffc7df 	rscspl	ip, pc, #58458112	@ 0x37c0000
 8000bd4:	02271e2b 	eoreq	r1, r7, #688	@ 0x2b0
 8000bd8:	fcf6f106 			@ <UNDEFINED> instruction: 0xfcf6f106
 8000bdc:	ea66bef5 	b	99b07b8 <IntrRet+0x19ae0d0>
 8000be0:	7b6ba3ff 	blvc	9ae9be4 <IntrRet+0x1ae74fc>
 8000be4:	8093430d 	addshi	r4, r3, sp, lsl #6
 8000be8:	27a03720 	strcs	r3, [r0, r0, lsr #14]!
 8000bec:	a32a68af 			@ <UNDEFINED> instruction: 0xa32a68af
 8000bf0:	3716ff58 			@ <UNDEFINED> instruction: 0x3716ff58
 8000bf4:	03108f92 	tsteq	r0, #584	@ 0x248
 8000bf8:	13d6f18d 	bicsne	pc, r6, #1073741859	@ 0x40000023
 8000bfc:	6e5618c2 	cdpvs	8, 5, cr1, cr6, cr2, {6}
 8000c00:	60ff1ef0 	ldrshvs	r1, [pc], #224	@ <UNPREDICTABLE>
 8000c04:	a0bb56bf 			@ <UNDEFINED> instruction: 0xa0bb56bf
 8000c08:	2c207003 	stccs	0, cr7, [r0], #-12
 8000c0c:	46d10209 	ldrbmi	r0, [r1], r9, lsl #4
 8000c10:	ffed46d9 			@ <UNDEFINED> instruction: 0xffed46d9
 8000c14:	e5223d91 	str	r3, [r2, #-3473]!	@ 0xfffff26f
 8000c18:	cd000370 	stcgt	3, cr0, [r0, #-448]	@ 0xfffffe40
 8000c1c:	f3489e80 	vcge.f32	d25, d24, d0
 8000c20:	1363ad0b 	cmnne	r3, #704	@ 0x2c0
 8000c24:	ebfa13ff 	bl	7e85c28 <IntrTable+0x4e82738>
 8000c28:	40018008 	andmi	r8, r1, r8
 8000c2c:	b9a050ec 	stmiblt	r0!, {r2, r3, r5, r6, r7, ip, lr}
 8000c30:	80483756 	subhi	r3, r8, r6, asr r7
 8000c34:	5690ff3f 			@ <UNDEFINED> instruction: 0x5690ff3f
 8000c38:	ff234b31 			@ <UNDEFINED> instruction: 0xff234b31
 8000c3c:	1130ff90 	teqpne	r0, r0	@ <illegal shifter operand>	@ p-variant is OBSOLETE
 8000c40:	9fc00a31 	svcls	0x00c00a31
 8000c44:	f1ff4f71 			@ <UNDEFINED> instruction: 0xf1ff4f71
 8000c48:	203f405f 	eorscs	r4, pc, pc, asr r0	@ <UNPREDICTABLE>
 8000c4c:	9f659001 	svcls	0x00659001
 8000c50:	a05a59ee 	subsge	r5, sl, lr, ror #19
 8000c54:	ff808084 			@ <UNDEFINED> instruction: 0xff808084
 8000c58:	44302234 	ldrtmi	r2, [r0], #-564	@ 0xfffffdcc
 8000c5c:	fb57f363 			@ <UNDEFINED> instruction: 0xfb57f363
 8000c60:	4f317ef0 	svcmi	0x00317ef0
 8000c64:	bff1def1 	svclt	0x00f1def1
 8000c68:	f001f0ff 			@ <UNDEFINED> instruction: 0xf001f0ff
 8000c6c:	f001f001 			@ <UNDEFINED> instruction: 0xf001f001
 8000c70:	f001f001 			@ <UNDEFINED> instruction: 0xf001f001
 8000c74:	f301f001 	vhadd.u8	d15, d1, d1
 8000c78:	01f0ffff 	ldrsheq	pc, [r0, #255]!	@ 0xff	@ <UNPREDICTABLE>
 8000c7c:	01f001f0 	ldrsheq	r0, [r0, #16]!
 8000c80:	01f0fff3 	ldrsheq	pc, [r0, #243]!	@ 0xf3	@ <UNPREDICTABLE>
 8000c84:	01f001f0 	ldrsheq	r0, [r0, #16]!
 8000c88:	f0ff01f0 			@ <UNDEFINED> instruction: 0xf0ff01f0
 8000c8c:	f001f001 			@ <UNDEFINED> instruction: 0xf001f001
 8000c90:	f001f001 			@ <UNDEFINED> instruction: 0xf001f001
 8000c94:	ff01f001 			@ <UNDEFINED> instruction: 0xff01f001
 8000c98:	ff538bf7 			@ <UNDEFINED> instruction: 0xff538bf7
 8000c9c:	e893f7ff 	ldm	r3, {r0, r1, r2, r3, r4, r5, r6, r7, r8, r9, sl, ip, sp, lr, pc}
 8000ca0:	01f041f0 	ldrsheq	r4, [r0, #16]!
 8000ca4:	1e5a7bc7 	vnmlane.f64	d23, d26, d7
 8000ca8:	3fe00310 	svccc	0x00e00310
 8000cac:	17cc13ff 			@ <UNDEFINED> instruction: 0x17cc13ff
 8000cb0:	f00310fd 			@ <UNDEFINED> instruction: 0xf00310fd
 8000cb4:	f440305f 	vst4.16	{d19-d22}, [r0 :64]
 8000cb8:	badbd767 	blt	76f6a5c <IntrTable+0x46f356c>
 8000cbc:	5be7ffe3 	blpl	7a00c50 <IntrTable+0x49fd760>
 8000cc0:	fff72e25 			@ <UNDEFINED> instruction: 0xfff72e25
 8000cc4:	bc27ef42 	stclt	15, cr14, [r7], #-264	@ 0xfffffef8
 8000cc8:	fef6c027 			@ <UNDEFINED> instruction: 0xfef6c027
 8000ccc:	93fff924 	mvnsls	pc, #36, 18	@ 0x90000
 8000cd0:	3020f069 	eorcc	pc, r0, r9, rrx
 8000cd4:	807ff0e0 	rsbshi	pc, pc, r0, ror #1
 8000cd8:	f0445de0 			@ <UNDEFINED> instruction: 0xf0445de0
 8000cdc:	ff7b987f 			@ <UNDEFINED> instruction: 0xff7b987f
 8000ce0:	9f313ff8 	svcls	0x00313ff8
 8000ce4:	b323af53 			@ <UNDEFINED> instruction: 0xb323af53
 8000ce8:	420040f0 	andmi	r4, r0, #240	@ 0xf0
 8000cec:	f7050320 			@ <UNDEFINED> instruction: 0xf7050320
 8000cf0:	e91625ff 	ldmdb	r6, {r0, r1, r2, r3, r4, r5, r6, r7, r8, sl, sp}
 8000cf4:	b088f35b 	addlt	pc, r8, fp, asr r3	@ <UNPREDICTABLE>
 8000cf8:	f07c89df 			@ <UNDEFINED> instruction: 0xf07c89df
 8000cfc:	26b42120 	ldrtcs	r2, [r4], r0, lsr #2
 8000d00:	583dff51 	ldmdapl	sp!, {r0, r4, r6, r8, r9, sl, fp, ip, sp, lr, pc}
 8000d04:	01f041f0 	ldrsheq	r4, [r0, #16]!
 8000d08:	01f001f0 	ldrsheq	r0, [r0, #16]!
 8000d0c:	01f001f0 	ldrsheq	r0, [r0, #16]!
 8000d10:	f0ff01f0 			@ <UNDEFINED> instruction: 0xf0ff01f0
 8000d14:	f001f001 			@ <UNDEFINED> instruction: 0xf001f001
 8000d18:	f0fff301 			@ <UNDEFINED> instruction: 0xf0fff301
 8000d1c:	f001f001 			@ <UNDEFINED> instruction: 0xf001f001
 8000d20:	fffff301 			@ <UNDEFINED> instruction: 0xfffff301
 8000d24:	01f001f0 	ldrsheq	r0, [r0, #16]!
 8000d28:	01f001f0 	ldrsheq	r0, [r0, #16]!
 8000d2c:	01f001f0 	ldrsheq	r0, [r0, #16]!
 8000d30:	01f001f0 	ldrsheq	r0, [r0, #16]!
 8000d34:	f201f0ff 	vqadd.s8	<illegal reg q7.5>, <illegal reg q8.5>, <illegal reg q15.5>
 8000d38:	f2f7ff4f 	vext.8	<illegal reg q15.5>, <illegal reg q3.5>, <illegal reg q7.5>, #15
 8000d3c:	f0f7ffae 			@ <UNDEFINED> instruction: 0xf0f7ffae
 8000d40:	6701f001 	strvs	pc, [r1, -r1]
 8000d44:	4f82ff9f 	svcmi	0x0082ff9f
 8000d48:	5f80fa96 	svcpl	0x0080fa96
 8000d4c:	3ff0bca7 	svccc	0x00f0bca7
 8000d50:	40c0ef83 	sbcmi	lr, r0, r3, lsl #31
 8000d54:	dfff95ff 	svcle	0x00ff95ff
 8000d58:	b77c2ed8 			@ <UNDEFINED> instruction: 0xb77c2ed8
 8000d5c:	57caaaa1 	strbpl	sl, [sl, r1, lsr #21]
 8000d60:	c30340d1 	tstgt	r3, #209	@ 0xd1
 8000d64:	ff1ab872 			@ <UNDEFINED> instruction: 0xff1ab872
 8000d68:	3ce9f3f3 	stclcc	3, cr15, [r9], #972	@ 0x3cc
 8000d6c:	7a499fc0 	bvc	9268c74 <IntrRet+0x126658c>
 8000d70:	0310593f 	tsteq	r0, #1032192	@ 0xfc000
 8000d74:	9f57e0c0 	svcls	0x0057e0c0
 8000d78:	a70160ff 			@ <UNDEFINED> instruction: 0xa70160ff
 8000d7c:	3def43db 	stclcc	3, cr4, [pc, #876]!	@ 80010f0 <health_gfx+0x9ac>
 8000d80:	3993fb49 	ldmibcc	r3, {r0, r3, r6, r8, r9, fp, ip, sp, lr, pc}
 8000d84:	7f9d287e 	svcvc	0x009d287e
 8000d88:	a1c0ff97 			@ <UNDEFINED> instruction: 0xa1c0ff97
 8000d8c:	0370d06f 	cmneq	r0, #111	@ 0x6f
 8000d90:	be90bef0 	mrclt	14, 4, fp, cr0, cr0, {7}
 8000d94:	0150ffd1 	ldrsbeq	pc, [r0, #-241]	@ 0xffffff0f	@ <UNPREDICTABLE>
 8000d98:	f1ff3b3a 			@ <UNDEFINED> instruction: 0xf1ff3b3a
 8000d9c:	f001f0ff 			@ <UNDEFINED> instruction: 0xf001f0ff
 8000da0:	f001f001 			@ <UNDEFINED> instruction: 0xf001f001
 8000da4:	f001f001 			@ <UNDEFINED> instruction: 0xf001f001
 8000da8:	ff01f001 			@ <UNDEFINED> instruction: 0xff01f001
 8000dac:	01f001f0 	ldrsheq	r0, [r0, #16]!
 8000db0:	fff301f0 			@ <UNDEFINED> instruction: 0xfff301f0
 8000db4:	01f001f0 	ldrsheq	r0, [r0, #16]!
 8000db8:	fff301f0 			@ <UNDEFINED> instruction: 0xfff301f0
 8000dbc:	f001f0ff 			@ <UNDEFINED> instruction: 0xf001f0ff
 8000dc0:	f001f001 			@ <UNDEFINED> instruction: 0xf001f001
 8000dc4:	f001f001 			@ <UNDEFINED> instruction: 0xf001f001
 8000dc8:	f001f001 			@ <UNDEFINED> instruction: 0xf001f001
 8000dcc:	ecf1ff01 	ldcl	15, cr15, [r1], #4
 8000dd0:	0350974f 	cmpeq	r0, #20709376	@ 0x13c0000
 8000dd4:	8893fbc5 	ldmhi	r3, {r0, r2, r6, r7, r8, r9, fp, ip, sp, lr, pc}
 8000dd8:	fb35abd3 			@ <UNDEFINED> instruction: 0xfb35abd3
 8000ddc:	f6ff03b0 			@ <UNDEFINED> instruction: 0xf6ff03b0
 8000de0:	f2e8f95b 	vqrshrn.s64	d31, <illegal reg q5.5>, #24
 8000de4:	f295226c 	vmlal.s16	q1, d5, d4[3]
 8000de8:	e7dbc7ac 	ldrb	ip, [fp, ip, lsr #15]
 8000dec:	ffb71bdf 			@ <UNDEFINED> instruction: 0xffb71bdf
 8000df0:	aba22cb4 	blge	688c0c8 <IntrTable+0x3888bd8>
 8000df4:	0330a47c 	teqeq	r0, #124, 8	@ 0x7c000000
 8000df8:	e7daabd3 			@ <UNDEFINED> instruction: 0xe7daabd3
 8000dfc:	3fa01604 	svccc	0x00a01604
 8000e00:	403818ff 			@ <UNDEFINED> instruction: 0x403818ff
 8000e04:	339b2039 	orrscc	r2, fp, #57	@ 0x39
 8000e08:	134aa354 	cmpne	sl, #84, 6	@ 0x50000001
 8000e0c:	60def0c1 	sbcsvs	pc, lr, r1, asr #1
 8000e10:	ccd3ffbe 	ldclgt	15, cr15, [r3], {190}	@ 0xbe
 8000e14:	43b4088b 			@ <UNDEFINED> instruction: 0x43b4088b
 8000e18:	03306904 	teqeq	r0, #4, 18	@ 0x10000
 8000e1c:	79289fc0 	stmdbvc	r8!, {r6, r7, r8, r9, sl, fp, ip, pc}
 8000e20:	61ff7901 	mvnsvs	r7, r1, lsl #18
 8000e24:	471fa0a4 	ldrmi	sl, [pc, -r4, lsr #1]
 8000e28:	dfcbabfc 	svcle	0x00cbabfc
 8000e2c:	c4a9a4b9 	strtgt	sl, [r9], #1209	@ 0x4b9
 8000e30:	fffe544c 			@ <UNDEFINED> instruction: 0xfffe544c
 8000e34:	0b566cf5 	bleq	959c210 <IntrRet+0x1599b28>
 8000e38:	0f104ea5 	svceq	0x00104ea5
 8000e3c:	fda87fc0 			@ <UNDEFINED> instruction: 0xfda87fc0
 8000e40:	c6842bf5 			@ <UNDEFINED> instruction: 0xc6842bf5
 8000e44:	f05ef0ff 			@ <UNDEFINED> instruction: 0xf05ef0ff
 8000e48:	f001f001 			@ <UNDEFINED> instruction: 0xf001f001
 8000e4c:	f001f001 			@ <UNDEFINED> instruction: 0xf001f001
 8000e50:	f001f001 			@ <UNDEFINED> instruction: 0xf001f001
 8000e54:	01f0ff01 	mvnseq	pc, r1, lsl #30
 8000e58:	01f0fff3 	ldrsheq	pc, [r0, #243]!	@ 0xf3	@ <UNPREDICTABLE>
 8000e5c:	fff301f0 			@ <UNDEFINED> instruction: 0xfff301f0
 8000e60:	01f001f0 	ldrsheq	r0, [r0, #16]!
 8000e64:	f0ff01f0 			@ <UNDEFINED> instruction: 0xf0ff01f0
 8000e68:	f001f001 			@ <UNDEFINED> instruction: 0xf001f001
 8000e6c:	f001f001 			@ <UNDEFINED> instruction: 0xf001f001
 8000e70:	f3efd901 			@ <UNDEFINED> instruction: 0xf3efd901
 8000e74:	ff1fd74f 			@ <UNDEFINED> instruction: 0xff1fd74f
 8000e78:	fbb5ef63 			@ <UNDEFINED> instruction: 0xfbb5ef63
 8000e7c:	3c601e40 	stclcc	14, cr1, [r0], #-256	@ 0xffffff00
 8000e80:	3ff0b81e 	svccc	0x00f0b81e
 8000e84:	20f010f3 	ldrshcs	r1, [r0], #3	@ <UNPREDICTABLE>
 8000e88:	f720f0ff 			@ <UNDEFINED> instruction: 0xf720f0ff
 8000e8c:	f08030df 			@ <UNDEFINED> instruction: 0xf08030df
 8000e90:	f38ff420 	vraddhn.i16	d15, <illegal reg q7.5>, q8
 8000e94:	ce5df053 	mrcgt	0, 2, APSR_nzcv, cr13, cr3, {2}
 8000e98:	0350ffdf 	cmppeq	r0, #892	@ p-variant is OBSOLETE	@ 0x37c
 8000e9c:	b424dfe0 	strtlt	sp, [r4], #-4064	@ 0xfffff020
 8000ea0:	f82a9344 			@ <UNDEFINED> instruction: 0xf82a9344
 8000ea4:	0370bdf0 	cmneq	r0, #240, 26	@ 0x3c00
 8000ea8:	ffffceb3 			@ <UNDEFINED> instruction: 0xffffceb3
 8000eac:	291df8fe 	ldmdbcs	sp, {r1, r2, r3, r4, r5, r6, r7, fp, ip, sp, lr, pc}
 8000eb0:	fb99874f 			@ <UNDEFINED> instruction: 0xfb99874f
 8000eb4:	fbf78fcf 			@ <UNDEFINED> instruction: 0xfbf78fcf
 8000eb8:	ff1f38ce 			@ <UNDEFINED> instruction: 0xff1f38ce
 8000ebc:	e0f0b084 	rscs	fp, r0, r4, lsl #1
 8000ec0:	20e0fdb4 	strhcs	pc, [r0], #212	@ 0xd4	@ <UNPREDICTABLE>
 8000ec4:	2b64b313 	blcs	992db18 <IntrRet+0x192b430>
 8000ec8:	fbc9a0f0 			@ <UNDEFINED> instruction: 0xfbc9a0f0
 8000ecc:	f33ff0ff 	vqadd.u64	<illegal reg q7.5>, <illegal reg q15.5>, <illegal reg q15.5>
 8000ed0:	f01ef0ef 			@ <UNDEFINED> instruction: 0xf01ef0ef
 8000ed4:	f001f01e 			@ <UNDEFINED> instruction: 0xf001f01e
 8000ed8:	f001f001 			@ <UNDEFINED> instruction: 0xf001f001
 8000edc:	01f0ff01 	mvnseq	pc, r1, lsl #30
 8000ee0:	01f001f0 	ldrsheq	r0, [r0, #16]!
 8000ee4:	01f001f0 	ldrsheq	r0, [r0, #16]!
 8000ee8:	01f0fff3 	ldrsheq	pc, [r0, #243]!	@ 0xf3	@ <UNPREDICTABLE>
 8000eec:	f0ff01f0 			@ <UNDEFINED> instruction: 0xf0ff01f0
 8000ef0:	f051f001 			@ <UNDEFINED> instruction: 0xf051f001
 8000ef4:	f001f001 			@ <UNDEFINED> instruction: 0xf001f001
 8000ef8:	f001f001 			@ <UNDEFINED> instruction: 0xf001f001
 8000efc:	ff01f001 			@ <UNDEFINED> instruction: 0xff01f001
 8000f00:	01f001f0 	ldrsheq	r0, [r0, #16]!
 8000f04:	01f001f0 	ldrsheq	r0, [r0, #16]!
 8000f08:	01f001f0 	ldrsheq	r0, [r0, #16]!
 8000f0c:	01f001f0 	ldrsheq	r0, [r0, #16]!
 8000f10:	f001f0ff 			@ <UNDEFINED> instruction: 0xf001f0ff
 8000f14:	f001f001 			@ <UNDEFINED> instruction: 0xf001f001
 8000f18:	f001f001 			@ <UNDEFINED> instruction: 0xf001f001
 8000f1c:	f001f001 			@ <UNDEFINED> instruction: 0xf001f001
 8000f20:	01f0ff01 	mvnseq	pc, r1, lsl #30
 8000f24:	01f001f0 	ldrsheq	r0, [r0, #16]!
 8000f28:	01f001f0 	ldrsheq	r0, [r0, #16]!
 8000f2c:	01f001f0 	ldrsheq	r0, [r0, #16]!
 8000f30:	f0ff01f0 			@ <UNDEFINED> instruction: 0xf0ff01f0
 8000f34:	f001f001 			@ <UNDEFINED> instruction: 0xf001f001
 8000f38:	f001f001 			@ <UNDEFINED> instruction: 0xf001f001
 8000f3c:	f001f001 			@ <UNDEFINED> instruction: 0xf001f001
 8000f40:	ff01f001 			@ <UNDEFINED> instruction: 0xff01f001
 8000f44:	01f001f0 	ldrsheq	r0, [r0, #16]!
 8000f48:	01f001f0 	ldrsheq	r0, [r0, #16]!
 8000f4c:	01f001f0 	ldrsheq	r0, [r0, #16]!
 8000f50:	01f001f0 	ldrsheq	r0, [r0, #16]!
 8000f54:	f001f0ff 			@ <UNDEFINED> instruction: 0xf001f0ff
 8000f58:	f001f001 			@ <UNDEFINED> instruction: 0xf001f001
 8000f5c:	f001f001 			@ <UNDEFINED> instruction: 0xf001f001
 8000f60:	f0fff301 			@ <UNDEFINED> instruction: 0xf0fff301
 8000f64:	01f0ff01 	mvnseq	pc, r1, lsl #30
 8000f68:	01f0fff3 	ldrsheq	pc, [r0, #243]!	@ 0xf3	@ <UNPREDICTABLE>
 8000f6c:	73df01f0 	bicsvc	r0, pc, #240, 2	@ 0x3c
 8000f70:	31f5eb15 	mvnscc	lr, r5, lsl fp
 8000f74:	16ff5285 	ldrbtne	r5, [pc], r5, lsl #5
 8000f78:	f0ae2df1 			@ <UNDEFINED> instruction: 0xf0ae2df1
 8000f7c:	46841a1d 			@ <UNDEFINED> instruction: 0x46841a1d
 8000f80:	5ef0f6a9 	cdppl	6, 15, cr15, cr0, cr9, {5}
 8000f84:	cf1ef033 	svcgt	0x001ef033
 8000f88:	7e10d396 	mrcvc	3, 0, sp, cr0, cr6, {4}
 8000f8c:	3a1e1e1e 	bcc	878880c <IntrRet+0x786124>
 8000f90:	13365ff0 	teqne	r6, #240, 30	@ 0x3c0
 8000f94:	f0ff076a 			@ <UNDEFINED> instruction: 0xf0ff076a
 8000f98:	fbb3371d 			@ <UNDEFINED> instruction: 0xfbb3371d
 8000f9c:	ff47babe 			@ <UNDEFINED> instruction: 0xff47babe
 8000fa0:	fc80a08a 			@ <UNDEFINED> instruction: 0xfc80a08a
 8000fa4:	ffc6fa7e 			@ <UNDEFINED> instruction: 0xffc6fa7e
 8000fa8:	a76b80f0 			@ <UNDEFINED> instruction: 0xa76b80f0
 8000fac:	40f0c62b 	rscsmi	ip, r0, fp, lsr #12
 8000fb0:	9ff0668c 	svcls	0x00f0668c
 8000fb4:	7ff167bc 	svcvc	0x00f167bc
 8000fb8:	2ce79cff 	stclcs	12, cr9, [r7], #1020	@ 0x3fc
 8000fbc:	f0592f66 			@ <UNDEFINED> instruction: 0xf0592f66
 8000fc0:	f060f01d 			@ <UNDEFINED> instruction: 0xf060f01d
 8000fc4:	f7bb115f 			@ <UNDEFINED> instruction: 0xf7bb115f
 8000fc8:	c6ccffd0 			@ <UNDEFINED> instruction: 0xc6ccffd0
 8000fcc:	ff905ff0 			@ <UNDEFINED> instruction: 0xff905ff0
 8000fd0:	1df09257 	ldclne	2, cr9, [r0, #348]!	@ 0x15c
 8000fd4:	0011be10 	andseq	fp, r1, r0, lsl lr
 8000fd8:	60ffbef0 	ldrshvs	fp, [pc], #224	@ <UNPREDICTABLE>
 8000fdc:	cd5ff09e 	ldclgt	0, cr15, [pc, #-632]	@ 8000d6c <health_gfx+0x628>
 8000fe0:	2cc82cc7 	stclcs	12, cr2, [r8], {199}	@ 0xc7
 8000fe4:	cc01f0cc 	stcgt	0, cr15, [r1], {204}	@ 0xcc
 8000fe8:	ff01f047 			@ <UNDEFINED> instruction: 0xff01f047
 8000fec:	9ef0251a 	mrcls	5, 7, r2, cr0, cr10, {0}
 8000ff0:	5e00ffe0 	cdppl	15, 0, cr15, cr0, cr0, {7}
 8000ff4:	53da6ff9 	bicspl	r6, sl, #996	@ 0x3e4
 8000ff8:	5b201df0 	blpl	88087c0 <IntrRet+0x8060d8>
 8000ffc:	9d02115f 	stcls	1, cr1, [r2, #-380]	@ 0xfffffe84
 8001000:	f00310e1 			@ <UNDEFINED> instruction: 0xf00310e1
 8001004:	f253391d 	vmul.i16	d19, d3, d13
 8001008:	ff60b3e1 			@ <UNDEFINED> instruction: 0xff60b3e1
 800100c:	01f01ff1 	ldrsheq	r1, [r0, #241]!	@ 0xf1
 8001010:	01f0fff3 	ldrsheq	pc, [r0, #243]!	@ 0xf3	@ <UNPREDICTABLE>
 8001014:	fff301f0 			@ <UNDEFINED> instruction: 0xfff301f0
 8001018:	20fa01f0 	ldrshcs	r0, [sl], #16	@ <UNPREDICTABLE>
 800101c:	f0165dff 			@ <UNDEFINED> instruction: 0xf0165dff
 8001020:	42e733eb 	rscmi	r3, r7, #-1409286141	@ 0xac000003
 8001024:	1d1fe050 	ldcne	0, cr14, [pc, #-320]	@ 8000eec <health_gfx+0x7a8>
 8001028:	12025b82 	andne	r5, r2, #133120	@ 0x20800
 800102c:	3ff0ff97 	svccc	0x00f0ff97
 8001030:	8bc35dfb 	blhi	70d8824 <IntrTable+0x40d5334>
 8001034:	0320ee03 			@ <UNDEFINED> instruction: 0x0320ee03
 8001038:	9ef01022 	cdpls	0, 15, cr1, cr0, cr2, {1}
 800103c:	f0fff3ad 			@ <UNDEFINED> instruction: 0xf0fff3ad
 8001040:	f30e7f60 	vpmax.f32	<illegal reg q3.5>, q7, q8
 8001044:	130a33cf 	tstne	sl, #1006632963	@ 0x3c000003
 8001048:	f0ca21eb 			@ <UNDEFINED> instruction: 0xf0ca21eb
 800104c:	ff8c441f 			@ <UNDEFINED> instruction: 0xff8c441f
 8001050:	1ff00d63 	svcne	0x00f00d63
 8001054:	7ef080aa 	cdpvc	0, 15, cr8, cr0, cr10, {5}
 8001058:	eb13c01a 	bl	84f10c8 <IntrRet+0x4ee9e0>
 800105c:	56027f20 	strpl	r7, [r2], -r0, lsr #30
 8001060:	f11ff0ff 			@ <UNDEFINED> instruction: 0xf11ff0ff
 8001064:	f194ff00 			@ <UNDEFINED> instruction: 0xf194ff00
 8001068:	448bc37f 	strmi	ip, [fp], #895	@ 0x37f
 800106c:	f0d0f2d1 			@ <UNDEFINED> instruction: 0xf0d0f2d1
 8001070:	abf2ff60 	blge	7cc0df8 <IntrTable+0x4cbd908>
 8001074:	491ceb73 	ldmdbmi	ip, {r0, r1, r4, r5, r6, r8, r9, fp, sp, lr, pc}
 8001078:	5ff05ff0 	svcpl	0x00f05ff0
 800107c:	e011ebe3 	ands	lr, r1, r3, ror #23
 8001080:	40ff50f3 	ldrshmi	r5, [pc], #3	@ <UNPREDICTABLE>
 8001084:	150011be 	strne	r1, [r0, #-446]	@ 0xfffffe42
 8001088:	f5a80131 			@ <UNDEFINED> instruction: 0xf5a80131
 800108c:	20e753af 	rsccs	r5, r7, pc, lsr #7
 8001090:	ffbefd03 			@ <UNDEFINED> instruction: 0xffbefd03
 8001094:	03208123 			@ <UNDEFINED> instruction: 0x03208123
 8001098:	bff07f20 	svclt	0x00f07f20
 800109c:	03201d60 			@ <UNDEFINED> instruction: 0x03201d60
 80010a0:	1d9c5ff0 	ldcne	15, cr5, [ip, #960]	@ 0x3c0
 80010a4:	e05ef0fd 	ldrsh	pc, [lr], #-13	@ <UNPREDICTABLE>
 80010a8:	82bff0ff 	adcshi	pc, pc, #255	@ 0xff
 80010ac:	f10b0120 			@ <UNDEFINED> instruction: 0xf10b0120
 80010b0:	eb031e1f 	bl	80c8934 <IntrRet+0xc624c>
 80010b4:	308a16ff 			@ <UNDEFINED> instruction: 0x308a16ff
 80010b8:	45bffc43 	ldrmi	pc, [pc, #3139]!	@ 8001d03 <runtime_dispatch+0x27>
 80010bc:	f089500c 			@ <UNDEFINED> instruction: 0xf089500c
 80010c0:	f07ffd1f 			@ <UNDEFINED> instruction: 0xf07ffd1f
 80010c4:	01f0ff01 	mvnseq	pc, r1, lsl #30
 80010c8:	01f0fff3 	ldrsheq	pc, [r0, #243]!	@ 0xf3	@ <UNPREDICTABLE>
 80010cc:	01f001f0 	ldrsheq	r0, [r0, #16]!
 80010d0:	01f051f0 	ldrsheq	r5, [r0, #16]!
 80010d4:	f0f701f0 			@ <UNDEFINED> instruction: 0xf0f701f0
 80010d8:	f001f001 			@ <UNDEFINED> instruction: 0xf001f001
 80010dc:	ed013001 	stc	0, cr3, [r1, #-4]
 80010e0:	04000350 	streq	r0, [r0], #-848	@ 0xfffffcb0
 80010e4:	c08b0310 	addgt	r0, fp, r0, lsl r3
 80010e8:	deeede1d 	mcrle	14, 7, sp, cr14, cr13, {0}
 80010ec:	20de0330 	sbcscs	r0, lr, r0, lsr r3
 80010f0:	f13ef003 			@ <UNDEFINED> instruction: 0xf13ef003
 80010f4:	3b000150 	blcc	800163c <health_gfx+0xef8>
 80010f8:	20f00310 	rscscs	r0, r0, r0, lsl r3
 80010fc:	00eeeedd 			@ <UNDEFINED> instruction: 0x00eeeedd
 8001100:	6760eb02 	strbvs	lr, [r0, -r2, lsl #22]!
 8001104:	4d300180 	ldcmi	1, cr0, [r0, #-512]!	@ 0xfffffe00
 8001108:	dd5f00ed 	ldclle	0, cr0, [pc, #-948]	@ 8000d5c <health_gfx+0x618>
 800110c:	07100300 	ldreq	r0, [r0, -r0, lsl #6]
 8001110:	003fd0ce 	eorseq	sp, pc, lr, asr #1
 8001114:	70dddd3c 	sbcsvc	sp, sp, ip, lsr sp
 8001118:	001fe063 	andseq	lr, pc, r3, rrx
 800111c:	ed7fdd10 	ldcl	13, cr13, [pc, #-64]!	@ 80010e4 <health_gfx+0x9a0>
 8001120:	01404700 	cmpeq	r0, r0, lsl #14
 8001124:	7ef02b00 	vmovvc.f64	d18, #0	@ 0x40000000  2.0
 8001128:	3ff07e10 	svccc	0x00f07e10
 800112c:	40f77c20 	rscsmi	r7, r7, r0, lsr #24
 8001130:	50360003 	eorspl	r0, r6, r3
 8001134:	de3ed042 	cdple	0, 3, cr13, cr14, cr2, {2}
 8001138:	7ef03e00 	cdpvc	14, 15, cr3, cr0, cr0, {0}
 800113c:	f0fb20f0 			@ <UNDEFINED> instruction: 0xf0fb20f0
 8001140:	900140de 			@ <UNDEFINED> instruction: 0x900140de
 8001144:	305ff09e 			@ <UNDEFINED> instruction: 0x305ff09e
 8001148:	3801defc 	stmdacc	r1, {r2, r3, r4, r5, r6, r7, r9, sl, fp, ip, lr, pc}
 800114c:	00f7ffe0 	rscseq	pc, r7, r0, ror #31
 8001150:	f003500d 			@ <UNDEFINED> instruction: 0xf003500d
 8001154:	de81a040 	cdple	0, 8, cr10, cr1, cr0, {2}
 8001158:	3b107911 	blcc	841f5a4 <IntrRet+0x41cebc>
 800115c:	e0ff4a00 	rscs	r4, pc, r0, lsl #20
 8001160:	10fd207e 	rscsne	r2, sp, lr, ror r0
 8001164:	808a2046 	addhi	r2, sl, r6, asr #32
 8001168:	00b0301f 	adcseq	r3, r0, pc, lsl r0
 800116c:	fdd40101 			@ <UNDEFINED> instruction: 0xfdd40101
 8001170:	1c103a10 			@ <UNDEFINED> instruction: 0x1c103a10
 8001174:	3520c0a0 	strcc	ip, [r0, #-160]!	@ 0xffffff60
 8001178:	88407d11 	stmdahi	r0, {r0, r4, r8, sl, fp, ip, sp, lr}^
 800117c:	ff4530dd 			@ <UNDEFINED> instruction: 0xff4530dd
 8001180:	3d11e1f0 	ldccc	1, cr14, [r1, #-960]	@ 0xfffffc40
 8001184:	7fe06340 	svcvc	0x00e06340
 8001188:	37005900 	strcc	r5, [r0, -r0, lsl #18]
 800118c:	0b103630 	bleq	840ea54 <IntrRet+0x40c36c>
 8001190:	12b680e7 	adcsne	r8, r6, #231	@ 0xe7
 8001194:	dd83306f 	stcle	0, cr3, [r3, #444]	@ 0x1bc
 8001198:	f13c12dd 			@ <UNDEFINED> instruction: 0xf13c12dd
 800119c:	ff5e315f 			@ <UNDEFINED> instruction: 0xff5e315f
 80011a0:	0130b600 	teqeq	r0, r0, lsl #12
 80011a4:	b9e22600 	stmiblt	r2!, {r9, sl, sp}^
 80011a8:	bd203822 	stclt	8, cr3, [r0, #-136]!	@ 0xffffff78
 80011ac:	20906520 	addscs	r6, r0, r0, lsr #10
 80011b0:	915c20ff 	ldrshls	r2, [ip, #-15]
 80011b4:	f0231040 			@ <UNDEFINED> instruction: 0xf0231040
 80011b8:	f001f0be 			@ <UNDEFINED> instruction: 0xf001f0be
 80011bc:	f001f001 			@ <UNDEFINED> instruction: 0xf001f001
 80011c0:	fff3ff01 			@ <UNDEFINED> instruction: 0xfff3ff01
 80011c4:	01f001f0 	ldrsheq	r0, [r0, #16]!
 80011c8:	01f0fff3 	ldrsheq	pc, [r0, #243]!	@ 0xf3	@ <UNPREDICTABLE>
 80011cc:	01f001f0 	ldrsheq	r0, [r0, #16]!
 80011d0:	f0f701f0 			@ <UNDEFINED> instruction: 0xf0f701f0
 80011d4:	f1ae4101 			@ <UNDEFINED> instruction: 0xf1ae4101
 80011d8:	edf4a1ca 	ldcl	1, cr10, [r4, #808]!	@ 0x328
 80011dc:	03105201 	tsteq	r0, #268435456	@ 0x10000000
 80011e0:	40ff2cf1 	ldrshmi	r2, [pc], #193	@ <UNPREDICTABLE>
 80011e4:	1288013e 	addne	r0, r8, #-2147483633	@ 0x8000000f
 80011e8:	9240f071 	subls	pc, r0, #113	@ 0x71
 80011ec:	62caf357 	sbcvs	pc, sl, #1543503873	@ 0x5c000001
 80011f0:	ffebf254 			@ <UNDEFINED> instruction: 0xffebf254
 80011f4:	01104ff4 			@ <UNDEFINED> instruction: 0x01104ff4
 80011f8:	b6737ff0 			@ <UNDEFINED> instruction: 0xb6737ff0
 80011fc:	3ff08410 	svccc	0x00f08410
 8001200:	1ff03fb0 	svcne	0x00f03fb0
 8001204:	333a30ff 	teqcc	sl, #255	@ 0xff
 8001208:	a02af446 	eorge	pc, sl, r6, asr #8
 800120c:	f077023e 			@ <UNDEFINED> instruction: 0xf077023e
 8001210:	9236937f 	eorsls	r9, r6, #-67108863	@ 0xfc000001
 8001214:	5ff0ffca 	svcpl	0x00f0ffca
 8001218:	1df06c23 	ldclne	12, cr6, [r0, #140]!	@ 0x8c
 800121c:	20f0fff0 	ldrshcs	pc, [r0], #240	@ 0xf0	@ <UNPREDICTABLE>
 8001220:	7ff0cc62 	svcvc	0x00f0cc62
 8001224:	50ff6030 	rscspl	r6, pc, r0, lsr r0	@ <UNPREDICTABLE>
 8001228:	511ff01d 	tstppl	pc, sp, lsl r0	@ p-variant is OBSOLETE	@ <UNPREDICTABLE>
 800122c:	35531420 	ldrbcc	r1, [r3, #-1056]	@ 0xfffffbe0
 8001230:	631df074 	tstpvs	sp, #116	@ p-variant is OBSOLETE	@ 0x74
 8001234:	ff7f13eb 			@ <UNDEFINED> instruction: 0xff7f13eb
 8001238:	c98301f0 	stmibgt	r3, {r4, r5, r6, r7, r8}
 800123c:	55a31ff0 	strpl	r1, [r3, #4080]!	@ 0xff0
 8001240:	5f905ff0 	svcpl	0x00905ff0
 8001244:	9ef120f1 	mrcls	0, 7, r2, cr1, cr1, {7}
 8001248:	f11df0ff 			@ <UNDEFINED> instruction: 0xf11df0ff
 800124c:	261ff05e 			@ <UNDEFINED> instruction: 0x261ff05e
 8001250:	00f314a4 	rscseq	r1, r3, r4, lsr #9
 8001254:	75c3f084 	strbvc	pc, [r3, #132]	@ 0x84	@ <UNPREDICTABLE>
 8001258:	5ff0ff88 	svcpl	0x00f0ff88
 800125c:	01f001f0 	ldrsheq	r0, [r0, #16]!
 8001260:	01f001f0 	ldrsheq	r0, [r0, #16]!
 8001264:	fff301f0 			@ <UNDEFINED> instruction: 0xfff301f0
 8001268:	f0ff01f0 			@ <UNDEFINED> instruction: 0xf0ff01f0
 800126c:	f301f001 	vhadd.u8	d15, d1, d1
 8001270:	f001f0ff 			@ <UNDEFINED> instruction: 0xf001f0ff
 8001274:	f001f001 			@ <UNDEFINED> instruction: 0xf001f001
 8001278:	ff01f001 			@ <UNDEFINED> instruction: 0xff01f001
 800127c:	01f001f0 	ldrsheq	r0, [r0, #16]!
 8001280:	01f001f0 	ldrsheq	r0, [r0, #16]!
 8001284:	01f001f0 	ldrsheq	r0, [r0, #16]!
 8001288:	01f001f0 	ldrsheq	r0, [r0, #16]!
 800128c:	f001f0ff 			@ <UNDEFINED> instruction: 0xf001f0ff
 8001290:	f001f001 			@ <UNDEFINED> instruction: 0xf001f001
 8001294:	f001f001 			@ <UNDEFINED> instruction: 0xf001f001
 8001298:	f001f001 			@ <UNDEFINED> instruction: 0xf001f001
 800129c:	01f0ff01 	mvnseq	pc, r1, lsl #30
 80012a0:	01f001f0 	ldrsheq	r0, [r0, #16]!
 80012a4:	01f001f0 	ldrsheq	r0, [r0, #16]!
 80012a8:	01f001f0 	ldrsheq	r0, [r0, #16]!
 80012ac:	f0ff01f0 			@ <UNDEFINED> instruction: 0xf0ff01f0
 80012b0:	f001f001 			@ <UNDEFINED> instruction: 0xf001f001
 80012b4:	f001f001 			@ <UNDEFINED> instruction: 0xf001f001
 80012b8:	f001f001 			@ <UNDEFINED> instruction: 0xf001f001
 80012bc:	ff01f001 			@ <UNDEFINED> instruction: 0xff01f001
 80012c0:	01f001f0 	ldrsheq	r0, [r0, #16]!
 80012c4:	01f001f0 	ldrsheq	r0, [r0, #16]!
 80012c8:	01f001f0 	ldrsheq	r0, [r0, #16]!
 80012cc:	01f001f0 	ldrsheq	r0, [r0, #16]!
 80012d0:	f001f0ff 			@ <UNDEFINED> instruction: 0xf001f0ff
 80012d4:	f001f001 			@ <UNDEFINED> instruction: 0xf001f001
 80012d8:	f001f001 			@ <UNDEFINED> instruction: 0xf001f001
 80012dc:	f301f001 	vhadd.u8	d15, d1, d1
 80012e0:	01f0e0ff 	ldrsheq	lr, [r0, #15]!
 80012e4:	01f001f0 	ldrsheq	r0, [r0, #16]!
 80012e8:	7b311ff0 	blvc	8c492b0 <IntrRet+0xc46bc8>
 80012ec:	f0a749ff 			@ <UNDEFINED> instruction: 0xf0a749ff
 80012f0:	f0e3ff5f 			@ <UNDEFINED> instruction: 0xf0e3ff5f
 80012f4:	29c0017f 	stmibcs	r0, {r0, r1, r2, r3, r4, r5, r6, r8}^
 80012f8:	213df07d 	teqpcs	sp, sp, ror r0	@ p-variant is OBSOLETE
 80012fc:	4200ffd6 	andmi	pc, r0, #856	@ 0x358
 8001300:	7df0bb30 			@ <UNDEFINED> instruction: 0x7df0bb30
 8001304:	9d00dfa0 	stcls	15, cr13, [r0, #-640]	@ 0xfffffd80
 8001308:	9f7020f0 	svcls	0x007020f0
 800130c:	60ff60f0 	ldrshvs	r6, [pc], #0	@ <UNPREDICTABLE>
 8001310:	f068193f 			@ <UNDEFINED> instruction: 0xf068193f
 8001314:	001f821f 	andseq	r8, pc, pc, lsl r2	@ <UNPREDICTABLE>
 8001318:	f01e101b 			@ <UNDEFINED> instruction: 0xf01e101b
 800131c:	ff01f01f 			@ <UNDEFINED> instruction: 0xff01f01f
 8001320:	01f001f0 	ldrsheq	r0, [r0, #16]!
 8001324:	fff301f0 			@ <UNDEFINED> instruction: 0xfff301f0
 8001328:	01f001f0 	ldrsheq	r0, [r0, #16]!
 800132c:	fff301f0 			@ <UNDEFINED> instruction: 0xfff301f0
 8001330:	f001f0ff 			@ <UNDEFINED> instruction: 0xf001f0ff
 8001334:	f092f101 			@ <UNDEFINED> instruction: 0xf092f101
 8001338:	1ad1c2e9 	bne	7471ee4 <IntrTable+0x446e9f4>
 800133c:	411af083 	tstpmi	sl, r3, lsl #1	@ p-variant is OBSOLETE
 8001340:	6e7bff87 	cdpvs	15, 7, cr15, cr11, cr7, {4}
 8001344:	ec1301f0 	ldc	1, cr0, [r3], {240}	@ 0xf0
 8001348:	01f0ef41 	mvnseq	lr, r1, asr #30
 800134c:	51ab206c 			@ <UNDEFINED> instruction: 0x51ab206c
 8001350:	22ff6fe4 	rscscs	r6, pc, #228, 30	@ 0x390
 8001354:	637ff08f 	cmnpvs	pc, #143	@ p-variant is OBSOLETE	@ 0x8f
 8001358:	f03e3c06 			@ <UNDEFINED> instruction: 0xf03e3c06
 800135c:	22454b42 	subcs	r4, r5, #67584	@ 0x10800
 8001360:	f31df029 	vhadd.u16	d15, d13, d25
 8001364:	552bdc30 	strpl	sp, [fp, #-3120]!	@ 0xfffff3d0
 8001368:	1ff05a00 	svcne	0x00f05a00
 800136c:	27f1deee 	ldrbcs	sp, [r1, lr, ror #29]!
 8001370:	ed7f01b0 	ldcl	1, cr0, [pc, #-704]!	@ 80010b8 <health_gfx+0x974>
 8001374:	d43ccf24 	ldrtle	ip, [ip], #-3876	@ 0xfffff0dc
 8001378:	3e81abf3 			@ <UNDEFINED> instruction: 0x3e81abf3
 800137c:	3d303af0 	vldmdbcc	r0!, {s6-s245}
 8001380:	f0ff0320 			@ <UNDEFINED> instruction: 0xf0ff0320
 8001384:	fb90e45f 			@ <UNDEFINED> instruction: 0xfb90e45f
 8001388:	f35de0af 	vhadd.u16	d30, d29, d31
 800138c:	255e6d77 	ldrbcs	r6, [lr, #-3447]	@ 0xfffff289
 8001390:	fb1ff08e 			@ <UNDEFINED> instruction: 0xfb1ff08e
 8001394:	98117e20 	ldmdals	r1, {r5, r9, sl, fp, ip, sp, lr}
 8001398:	1ef06723 	cdpne	7, 15, cr6, cr0, cr3, {1}
 800139c:	14defe10 	ldrbne	pc, [lr], #3600	@ 0xe10	@ <UNPREDICTABLE>
 80013a0:	ffc11102 			@ <UNDEFINED> instruction: 0xffc11102
 80013a4:	a9c5d7f3 	stmibge	r5, {r0, r1, r4, r5, r6, r7, r8, r9, sl, ip, lr, pc}^
 80013a8:	0ea5fff0 	mcreq	15, 5, pc, cr5, cr0, {7}	@ <UNPREDICTABLE>
 80013ac:	1ff0e24c 	svcne	0x00f0e24c
 80013b0:	01f0969d 			@ <UNDEFINED> instruction: 0x01f0969d
 80013b4:	f0df50ff 			@ <UNDEFINED> instruction: 0xf0df50ff
 80013b8:	109d20bf 	ldrhne	r2, [sp], pc	@ <UNPREDICTABLE>
 80013bc:	f01730f6 			@ <UNDEFINED> instruction: 0xf01730f6
 80013c0:	308f747e 	addcc	r7, pc, lr, ror r4	@ <UNPREDICTABLE>
 80013c4:	1bf0ffbf 	blne	7c412c8 <IntrTable+0x4c3ddd8>
 80013c8:	5c11bf4e 	ldcpl	15, cr11, [r1], {78}	@ 0x4e
 80013cc:	5fc11ff2 	svcpl	0x00c11ff2
 80013d0:	01f01ef0 	ldrsheq	r1, [r0, #224]!	@ 0xe0
 80013d4:	f0ff01f0 			@ <UNDEFINED> instruction: 0xf0ff01f0
 80013d8:	f0fff301 			@ <UNDEFINED> instruction: 0xf0fff301
 80013dc:	f001f001 			@ <UNDEFINED> instruction: 0xf001f001
 80013e0:	f0fff301 			@ <UNDEFINED> instruction: 0xf0fff301
 80013e4:	ff01f001 			@ <UNDEFINED> instruction: 0xff01f001
 80013e8:	01f001f0 	ldrsheq	r0, [r0, #16]!
 80013ec:	01f001f0 	ldrsheq	r0, [r0, #16]!
 80013f0:	01f001f0 	ldrsheq	r0, [r0, #16]!
 80013f4:	01f001f0 	ldrsheq	r0, [r0, #16]!
 80013f8:	00cca1f9 			@ <UNDEFINED> instruction: 0x00cca1f9
 80013fc:	b3035004 	tstlt	r3, #4
 8001400:	de11001b 	mrcle	0, 0, r0, cr1, cr11, {0}
 8001404:	0f0180de 	svceq	0x000180de
 8001408:	ededeeed 	stcl	14, cr14, [sp, #948]!	@ 0x3b4
 800140c:	3d700310 	ldclcc	3, cr0, [r0, #-64]!	@ 0xffffffc0
 8001410:	03602020 	cmneq	r0, #32
 8001414:	701a20e6 	andsvc	r2, sl, r6, ror #1
 8001418:	dd20001e 	stcle	0, cr0, [r0, #-120]!	@ 0xffffff88
 800141c:	702430ed 	eorvc	r3, r4, sp, ror #1
 8001420:	10cfed01 	sbcne	lr, pc, r1, lsl #26
 8001424:	dd5f6005 	ldclle	0, cr6, [pc, #-20]	@ 8001418 <health_gfx+0xcd4>
 8001428:	603e80ed 	eorsvs	r8, lr, sp, ror #1
 800142c:	10a55303 	adcne	r5, r5, r3, lsl #6
 8001430:	0700de1e 			@ <UNDEFINED> instruction: 0x0700de1e
 8001434:	40dd0110 	sbcsmi	r0, sp, r0, lsl r1
 8001438:	004f0007 	subeq	r0, pc, r7
 800143c:	dd3f4013 	ldcle	0, cr4, [pc, #-76]!	@ 80013f8 <health_gfx+0xcb4>
 8001440:	00ddee3f 	sbcseq	lr, sp, pc, lsr lr
 8001444:	201c0017 	andscs	r0, ip, r7, lsl r0
 8001448:	30033073 	andcc	r3, r3, r3, ror r0
 800144c:	ff41400b 			@ <UNDEFINED> instruction: 0xff41400b
 8001450:	b0204000 	eorlt	r4, r0, r0
 8001454:	93100390 	tstls	r0, #144, 6	@ 0x40000002
 8001458:	24109e60 	ldrcs	r9, [r0], #-3680	@ 0xfffff1a0
 800145c:	130001b0 	tstne	r0, #176, 2	@ 0x2c
 8001460:	107e74ff 	ldrshne	r7, [lr], #-79	@ 0xffffffb1	@ <UNPREDICTABLE>
 8001464:	305a702b 	subscc	r7, sl, fp, lsr #32
 8001468:	f03ff003 			@ <UNDEFINED> instruction: 0xf03ff003
 800146c:	10e7733f 	rscne	r7, r7, pc, lsr r3
 8001470:	1441fb21 	strbne	pc, [r1], #-2849	@ 0xfffff4df	@ <UNPREDICTABLE>
 8001474:	0f300320 	svceq	0x00300320
 8001478:	3ee0cd10 	mcrcc	13, 7, ip, cr0, cr0, {0}
 800147c:	431600de 	tstmi	r6, #222	@ 0xde
 8001480:	e060fe5c 	rsb	pc, r0, ip, asr lr	@ <UNPREDICTABLE>
 8001484:	c7402100 	strbgt	r2, [r0, -r0, lsl #2]
 8001488:	7f606080 	svcvc	0x00606080
 800148c:	18801e00 	stmne	r0, {r9, sl, fp, ip}
 8001490:	9f51ffed 	svcls	0x0051ffed
 8001494:	1f203420 	svcne	0x00203420
 8001498:	4031ec00 	eorsmi	lr, r1, r0, lsl #24
 800149c:	1f514810 	svcne	0x00514810
 80014a0:	70ff7610 	rscsvc	r7, pc, r0, lsl r6	@ <UNPREDICTABLE>
 80014a4:	50175140 	andspl	r5, r7, r0, asr #2
 80014a8:	520b2001 	andpl	r2, fp, #1
 80014ac:	50f7801a 	rscspl	r8, r7, sl, lsl r0
 80014b0:	ff9bc599 			@ <UNDEFINED> instruction: 0xff9bc599
 80014b4:	01f001f0 	ldrsheq	r0, [r0, #16]!
 80014b8:	01f001f0 	ldrsheq	r0, [r0, #16]!
 80014bc:	01f001f0 	ldrsheq	r0, [r0, #16]!
 80014c0:	01f001f0 	ldrsheq	r0, [r0, #16]!
 80014c4:	f001f0fc 			@ <UNDEFINED> instruction: 0xf001f0fc
 80014c8:	f0fff301 			@ <UNDEFINED> instruction: 0xf0fff301
 80014cc:	c001f001 	andgt	pc, r1, r1
 80014d0:	00000001 	andeq	r0, r0, r1
 80014d4:	00006f7b 	andeq	r6, r0, fp, ror pc
	...
 80014ec:	71cb035f 	bicvc	r0, fp, pc, asr r3
 80014f0:	52947fff 	addspl	r7, r4, #1020	@ 0x3fc
 80014f4:	00080010 	andeq	r0, r8, r0, lsl r0
 80014f8:	01000100 	mrseq	r0, (UNDEF: 16)
 80014fc:	03000200 	tsteq	r0, #0, 4
 8001500:	00040000 	andeq	r0, r4, r0
 8001504:	00060005 	andeq	r0, r6, r5
 8001508:	08000007 	stmdaeq	r0, {r0, r1, r2}
 800150c:	0a000900 	beq	8003914 <IntrRet+0x122c>
 8001510:	00000b00 	andeq	r0, r0, r0, lsl #22
 8001514:	000d000c 	andeq	r0, sp, ip
 8001518:	000f000e 	andeq	r0, pc, lr
 800151c:	11001000 	mrsne	r1, (UNDEF: 0)
 8001520:	13001200 	tstne	r0, #0, 4
 8001524:	00140000 	andseq	r0, r4, r0
 8001528:	00160015 	andseq	r0, r6, r5, lsl r0
 800152c:	18000017 	stmdane	r0, {r0, r1, r2, r4}
 8001530:	1a001900 	bne	8007938 <IntrRet+0x5250>
 8001534:	04001b00 	streq	r1, [r0], #-2816	@ 0xfffff500
 8001538:	001d001c 	andseq	r0, sp, ip, lsl r0
 800153c:	20010000 	andcs	r0, r1, r0
 8001540:	00210000 	eoreq	r0, r1, r0
 8001544:	00230022 	eoreq	r0, r3, r2, lsr #32
 8001548:	25000024 	strcs	r0, [r0, #-36]	@ 0xffffffdc
 800154c:	27002600 	strcs	r2, [r0, -r0, lsl #12]
 8001550:	00002800 	andeq	r2, r0, r0, lsl #16
 8001554:	002a0029 	eoreq	r0, sl, r9, lsr #32
 8001558:	002c002b 	eoreq	r0, ip, fp, lsr #32
 800155c:	2e002d00 	cdpcs	13, 0, cr2, cr0, cr0, {0}
 8001560:	30002f00 	andcc	r2, r0, r0, lsl #30
 8001564:	00310000 	eorseq	r0, r1, r0
 8001568:	00330032 	eorseq	r0, r3, r2, lsr r0
 800156c:	35000034 	strcc	r0, [r0, #-52]	@ 0xffffffcc
 8001570:	37003600 	strcc	r3, [r0, -r0, lsl #12]
 8001574:	00003800 	andeq	r3, r0, r0, lsl #16
 8001578:	003a0039 	eorseq	r0, sl, r9, lsr r0
 800157c:	003c003b 	eorseq	r0, ip, fp, lsr r0
 8001580:	3f203d40 	svccc	0x00203d40
 8001584:	00410040 	subeq	r0, r1, r0, asr #32
 8001588:	43000042 	tstmi	r0, #66	@ 0x42
 800158c:	45004400 	strmi	r4, [r0, #-1024]	@ 0xfffffc00
 8001590:	00004600 	andeq	r4, r0, r0, lsl #12
 8001594:	00480047 	subeq	r0, r8, r7, asr #32
 8001598:	004a0049 	subeq	r0, sl, r9, asr #32
 800159c:	4c004b00 			@ <UNDEFINED> instruction: 0x4c004b00
 80015a0:	4e004d00 	cdpmi	13, 0, cr4, cr0, cr0, {0}
 80015a4:	004f0000 	subeq	r0, pc, r0
 80015a8:	00510050 	subseq	r0, r1, r0, asr r0
 80015ac:	53000052 	tstpl	r0, #82	@ 0x52
 80015b0:	55005400 	strpl	r5, [r0, #-1024]	@ 0xfffffc00
 80015b4:	00005600 	andeq	r5, r0, r0, lsl #12
 80015b8:	00580057 	subseq	r0, r8, r7, asr r0
 80015bc:	005a0059 	subseq	r0, sl, r9, asr r0
 80015c0:	5c005b04 			@ <UNDEFINED> instruction: 0x5c005b04
 80015c4:	3f205d00 	svccc	0x00205d00
 80015c8:	61000060 	tstvs	r0, r0, rrx
 80015cc:	63006200 	tstvs	r0, #0, 4
 80015d0:	00006400 	andeq	r6, r0, r0, lsl #8
 80015d4:	00660065 	rsbeq	r0, r6, r5, rrx
 80015d8:	00680067 	rsbeq	r0, r8, r7, rrx
 80015dc:	6a006900 	bvs	801b9e4 <IntrRet+0x192fc>
 80015e0:	6c006b00 			@ <UNDEFINED> instruction: 0x6c006b00
 80015e4:	006d0000 	rsbeq	r0, sp, r0
 80015e8:	006f006e 	rsbeq	r0, pc, lr, rrx
 80015ec:	71000070 	tstvc	r0, r0, ror r0
 80015f0:	73007200 	tstvc	r0, #0, 4
 80015f4:	00007400 	andeq	r7, r0, r0, lsl #8
 80015f8:	00760075 	rsbseq	r0, r6, r5, ror r0
 80015fc:	00780077 	rsbseq	r0, r8, r7, ror r0
 8001600:	7a007900 	bvc	801fa08 <IntrRet+0x1d320>
 8001604:	7c007b00 			@ <UNDEFINED> instruction: 0x7c007b00
 8001608:	207d4000 	rsbscs	r4, sp, r0
 800160c:	8100803f 	tsthi	r0, pc, lsr r0
 8001610:	00008200 	andeq	r8, r0, r0, lsl #4
 8001614:	00840083 	addeq	r0, r4, r3, lsl #1
 8001618:	00860085 	addeq	r0, r6, r5, lsl #1
 800161c:	88008700 	stmdahi	r0, {r8, r9, sl, pc}
 8001620:	8a008900 	bhi	8023a28 <IntrRet+0x21340>
 8001624:	008b0000 	addeq	r0, fp, r0
 8001628:	008d008c 	addeq	r0, sp, ip, lsl #1
 800162c:	8f00008e 	svchi	0x0000008e
 8001630:	91009000 	mrsls	r9, (UNDEF: 0)
 8001634:	00009200 	andeq	r9, r0, r0, lsl #4
 8001638:	00940093 	umullseq	r0, r4, r3, r0
 800163c:	00960095 	umullseq	r0, r6, r5, r0
 8001640:	98009700 	stmdals	r0, {r8, r9, sl, ip, pc}
 8001644:	9a009900 	bls	8027a4c <IntrRet+0x25364>
 8001648:	009b0400 	addseq	r0, fp, r0, lsl #8
 800164c:	209d009c 	umullscs	r0, sp, ip, r0
 8001650:	0000a03f 	andeq	sl, r0, pc, lsr r0
 8001654:	00a200a1 	adceq	r0, r2, r1, lsr #1
 8001658:	00a400a3 	adceq	r0, r4, r3, lsr #1
 800165c:	a600a500 	strge	sl, [r0], -r0, lsl #10
 8001660:	a800a700 	stmdage	r0, {r8, r9, sl, sp, pc}
 8001664:	00a90000 	adceq	r0, r9, r0
 8001668:	00ab00aa 	adceq	r0, fp, sl, lsr #1
 800166c:	ad0000ac 	stcge	0, cr0, [r0, #-688]	@ 0xfffffd50
 8001670:	af00ae00 	svcge	0x0000ae00
 8001674:	0000b000 	andeq	fp, r0, r0
 8001678:	00b200b1 	ldrheq	r0, [r2], r1	@ <UNPREDICTABLE>
 800167c:	00b400b3 	ldrheq	r0, [r4], r3	@ <UNPREDICTABLE>
 8001680:	b600b500 	strlt	fp, [r0], -r0, lsl #10
 8001684:	b800b700 	stmdalt	r0, {r8, r9, sl, ip, sp, pc}
 8001688:	00b90000 	adcseq	r0, r9, r0
 800168c:	00bb00ba 	ldrheq	r0, [fp], sl	@ <UNPREDICTABLE>
 8001690:	bd4000bc 	stcllt	0, cr0, [r0, #-752]	@ 0xfffffd10
 8001694:	00c03f20 	sbceq	r3, r0, r0, lsr #30
 8001698:	00c200c1 	sbceq	r0, r2, r1, asr #1
 800169c:	c400c300 	strgt	ip, [r0], #-768	@ 0xfffffd00
 80016a0:	c600c500 	strgt	ip, [r0], -r0, lsl #10
 80016a4:	00c70000 	sbceq	r0, r7, r0
 80016a8:	00c900c8 	sbceq	r0, r9, r8, asr #1
 80016ac:	cb0000ca 	blgt	80019dc <health_gfx+0x1298>
 80016b0:	cd00cc00 	stcgt	12, cr12, [r0, #-0]
 80016b4:	0000ce00 	andeq	ip, r0, r0, lsl #28
 80016b8:	00d000cf 	sbcseq	r0, r0, pc, asr #1
 80016bc:	00d200d1 	ldrsbeq	r0, [r2], #1
 80016c0:	d400d300 	strle	sp, [r0], #-768	@ 0xfffffd00
 80016c4:	d600d500 	strle	sp, [r0], -r0, lsl #10
 80016c8:	00d70000 	sbcseq	r0, r7, r0
 80016cc:	00d900d8 	ldrsbeq	r0, [r9], #8
 80016d0:	db0400da 	blle	8101a40 <IntrRet+0xff358>
 80016d4:	dd00dc00 	stcle	12, cr13, [r0, #-0]
 80016d8:	00e03f20 	rsceq	r3, r0, r0, lsr #30
 80016dc:	e200e100 	and	lr, r0, #0, 2
 80016e0:	e400e300 	str	lr, [r0], #-768	@ 0xfffffd00
 80016e4:	00e50000 	rsceq	r0, r5, r0
 80016e8:	00e700e6 	rsceq	r0, r7, r6, ror #1
 80016ec:	e90000e8 	stmdb	r0, {r3, r5, r6, r7}
 80016f0:	eb00ea00 	bl	803bef8 <IntrRet+0x39810>
 80016f4:	0000ec00 	andeq	lr, r0, r0, lsl #24
 80016f8:	00ee00ed 	rsceq	r0, lr, sp, ror #1
 80016fc:	00f000ef 	rscseq	r0, r0, pc, ror #1
 8001700:	f200f100 	vrhadd.s8	d15, d0, d0
 8001704:	f400f300 	vst2.8	{d15-d18}, [r0], r0
 8001708:	00f50000 	rscseq	r0, r5, r0
 800170c:	00f700f6 	ldrsheq	r0, [r7], #6	@ <UNPREDICTABLE>
 8001710:	f90000f8 			@ <UNDEFINED> instruction: 0xf90000f8
 8001714:	fb00fa00 			@ <UNDEFINED> instruction: 0xfb00fa00
 8001718:	4000fc00 	andmi	pc, r0, r0, lsl #24
 800171c:	003f20fd 	ldrsheq	r2, [pc], -sp	@ <UNPREDICTABLE>
 8001720:	02010101 	andeq	r0, r1, #1073741824	@ 0x40000000
 8001724:	01030001 	tsteq	r3, r1
 8001728:	01050104 	tsteq	r5, r4, lsl #2
 800172c:	07000106 	streq	r0, [r0, -r6, lsl #2]
 8001730:	09010801 	stmdbeq	r1, {r0, fp}
 8001734:	00010a01 	andeq	r0, r1, r1, lsl #20
 8001738:	010c010b 	tsteq	ip, fp, lsl #2
 800173c:	010e010d 	tsteq	lr, sp, lsl #2
 8001740:	10010f00 	andne	r0, r1, r0, lsl #30
 8001744:	12011101 	andne	r1, r1, #1073741824	@ 0x40000000
 8001748:	01130001 	tsteq	r3, r1
 800174c:	01150114 	tsteq	r5, r4, lsl r1
 8001750:	17000116 			@ <UNDEFINED> instruction: 0x17000116
 8001754:	19011801 	stmdbne	r1, {r0, fp, ip}
 8001758:	02011a01 	andeq	r1, r1, #4096	@ 0x1000
 800175c:	011c011b 	tsteq	ip, fp, lsl r1
 8001760:	ff21011d 			@ <UNDEFINED> instruction: 0xff21011d
 8001764:	01210001 			@ <UNDEFINED> instruction: 0x01210001
 8001768:	01230122 			@ <UNDEFINED> instruction: 0x01230122
 800176c:	25000124 	strcs	r0, [r0, #-292]	@ 0xfffffedc
 8001770:	27012601 	strcs	r2, [r1, -r1, lsl #12]
 8001774:	00012801 	andeq	r2, r1, r1, lsl #16
 8001778:	012a0129 			@ <UNDEFINED> instruction: 0x012a0129
 800177c:	012c012b 			@ <UNDEFINED> instruction: 0x012c012b
 8001780:	2e012d00 	cdpcs	13, 0, cr2, cr1, cr0, {0}
 8001784:	30012f01 	andcc	r2, r1, r1, lsl #30
 8001788:	01310001 	teqeq	r1, r1
 800178c:	01330132 	teqeq	r3, r2, lsr r1
 8001790:	35000134 	strcc	r0, [r0, #-308]	@ 0xfffffecc
 8001794:	37013601 	strcc	r3, [r1, -r1, lsl #12]
 8001798:	00013801 	andeq	r3, r1, r1, lsl #16
 800179c:	013a0139 	teqeq	sl, r9, lsr r1
 80017a0:	013c013b 	teqeq	ip, fp, lsr r1
 80017a4:	3f203d40 	svccc	0x00203d40
 80017a8:	01410140 	cmpeq	r1, r0, asr #2
 80017ac:	43000142 	tstmi	r0, #-2147483632	@ 0x80000010
 80017b0:	45014401 	strmi	r4, [r1, #-1025]	@ 0xfffffbff
 80017b4:	00014601 	andeq	r4, r1, r1, lsl #12
 80017b8:	01480147 	cmpeq	r8, r7, asr #2
 80017bc:	014a0149 	cmpeq	sl, r9, asr #2
 80017c0:	4c014b00 			@ <UNDEFINED> instruction: 0x4c014b00
 80017c4:	4e014d01 	cdpmi	13, 0, cr4, cr1, cr1, {0}
 80017c8:	014f0001 	cmpeq	pc, r1
 80017cc:	01510150 	cmpeq	r1, r0, asr r1
 80017d0:	53000152 	tstpl	r0, #-2147483628	@ 0x80000014
 80017d4:	55015401 	strpl	r5, [r1, #-1025]	@ 0xfffffbff
 80017d8:	00015601 	andeq	r5, r1, r1, lsl #12
 80017dc:	01580157 	cmpeq	r8, r7, asr r1
 80017e0:	015a0159 	cmpeq	sl, r9, asr r1
 80017e4:	5c015b04 			@ <UNDEFINED> instruction: 0x5c015b04
 80017e8:	3f205d01 	svccc	0x00205d01
 80017ec:	61000160 	tstvs	r0, r0, ror #2
 80017f0:	63016201 	tstvs	r1, #268435456	@ 0x10000000
 80017f4:	00016401 	andeq	r6, r1, r1, lsl #8
 80017f8:	01660165 	cmneq	r6, r5, ror #2
 80017fc:	01680167 	cmneq	r8, r7, ror #2
 8001800:	6a016900 	bvs	805bc08 <IntrRet+0x59520>
 8001804:	6c016b01 			@ <UNDEFINED> instruction: 0x6c016b01
 8001808:	016d0001 	cmneq	sp, r1
 800180c:	016f016e 	cmneq	pc, lr, ror #2
 8001810:	71000170 	tstvc	r0, r0, ror r1
 8001814:	73017201 	tstvc	r1, #268435456	@ 0x10000000
 8001818:	00017401 	andeq	r7, r1, r1, lsl #8
 800181c:	01760175 	cmneq	r6, r5, ror r1
 8001820:	01780177 	cmneq	r8, r7, ror r1
 8001824:	7a017900 	bvc	805fc2c <IntrRet+0x5d544>
 8001828:	7c017b01 			@ <UNDEFINED> instruction: 0x7c017b01
 800182c:	207d4001 	rsbscs	r4, sp, r1
 8001830:	8101803f 	tsthi	r1, pc, lsr r0
 8001834:	00018201 	andeq	r8, r1, r1, lsl #4
 8001838:	01840183 	orreq	r0, r4, r3, lsl #3
 800183c:	01860185 	orreq	r0, r6, r5, lsl #3
 8001840:	88018700 	stmdahi	r1, {r8, r9, sl, pc}
 8001844:	8a018901 	bhi	8063c50 <IntrRet+0x61568>
 8001848:	018b0001 	orreq	r0, fp, r1
 800184c:	018d018c 	orreq	r0, sp, ip, lsl #3
 8001850:	8f00018e 	svchi	0x0000018e
 8001854:	91019001 	tstls	r1, r1
 8001858:	00019201 	andeq	r9, r1, r1, lsl #4
 800185c:	01940193 			@ <UNDEFINED> instruction: 0x01940193
 8001860:	01960195 			@ <UNDEFINED> instruction: 0x01960195
 8001864:	98019700 	stmdals	r1, {r8, r9, sl, ip, pc}
 8001868:	9a019901 	bls	8067c74 <IntrRet+0x6558c>
 800186c:	019b0401 	orrseq	r0, fp, r1, lsl #8
 8001870:	209d019c 	umullscs	r0, sp, ip, r1
 8001874:	0001a03f 	andeq	sl, r1, pc, lsr r0
 8001878:	01a201a1 			@ <UNDEFINED> instruction: 0x01a201a1
 800187c:	01a401a3 			@ <UNDEFINED> instruction: 0x01a401a3
 8001880:	a601a500 	strge	sl, [r1], -r0, lsl #10
 8001884:	a801a701 	stmdage	r1, {r0, r8, r9, sl, sp, pc}
 8001888:	01a90001 			@ <UNDEFINED> instruction: 0x01a90001
 800188c:	01ab01aa 			@ <UNDEFINED> instruction: 0x01ab01aa
 8001890:	ad0001ac 	stcge	1, cr0, [r0, #-688]	@ 0xfffffd50
 8001894:	af01ae01 	svcge	0x0001ae01
 8001898:	0001b001 	andeq	fp, r1, r1
 800189c:	01b201b1 			@ <UNDEFINED> instruction: 0x01b201b1
 80018a0:	01b401b3 			@ <UNDEFINED> instruction: 0x01b401b3
 80018a4:	b601b500 	strlt	fp, [r1], -r0, lsl #10
 80018a8:	b801b701 	stmdalt	r1, {r0, r8, r9, sl, ip, sp, pc}
 80018ac:	01b90001 			@ <UNDEFINED> instruction: 0x01b90001
 80018b0:	01bb01ba 			@ <UNDEFINED> instruction: 0x01bb01ba
 80018b4:	bd4001bc 	stcllt	1, cr0, [r0, #-752]	@ 0xfffffd10
 80018b8:	01c03f20 	biceq	r3, r0, r0, lsr #30
 80018bc:	01c201c1 	biceq	r0, r2, r1, asr #3
 80018c0:	c401c300 	strgt	ip, [r1], #-768	@ 0xfffffd00
 80018c4:	c601c501 	strgt	ip, [r1], -r1, lsl #10
 80018c8:	01c70001 	biceq	r0, r7, r1
 80018cc:	01c901c8 	biceq	r0, r9, r8, asr #3
 80018d0:	cb0001ca 	blgt	8002000 <irqSet+0x5c>
 80018d4:	cd01cc01 	stcgt	12, cr12, [r1, #-4]
 80018d8:	0001ce01 	andeq	ip, r1, r1, lsl #28
 80018dc:	01d001cf 	bicseq	r0, r0, pc, asr #3
 80018e0:	01d201d1 	ldrsbeq	r0, [r2, #17]
 80018e4:	d401d300 	strle	sp, [r1], #-768	@ 0xfffffd00
 80018e8:	d601d501 	strle	sp, [r1], -r1, lsl #10
 80018ec:	01d70001 	bicseq	r0, r7, r1
 80018f0:	01d901d8 	ldrsbeq	r0, [r9, #24]
 80018f4:	db0401da 	blle	8102064 <IntrRet+0xff97c>
 80018f8:	dd01dc01 	stcle	12, cr13, [r1, #-4]
 80018fc:	01e03f20 	mvneq	r3, r0, lsr #30
 8001900:	e201e100 	and	lr, r1, #0, 2
 8001904:	e401e301 	str	lr, [r1], #-769	@ 0xfffffcff
 8001908:	01e50001 	mvneq	r0, r1
 800190c:	01e701e6 	mvneq	r0, r6, ror #3
 8001910:	e90001e8 	stmdb	r0, {r3, r5, r6, r7, r8}
 8001914:	eb01ea01 	bl	807c120 <IntrRet+0x79a38>
 8001918:	0001ec01 	andeq	lr, r1, r1, lsl #24
 800191c:	01ee01ed 	mvneq	r0, sp, ror #3
 8001920:	01f001ef 	mvnseq	r0, pc, ror #3
 8001924:	f201f100 	vrhadd.s8	d15, d1, d0
 8001928:	f401f301 	vst2.8	{d15-d18}, [r1], r1
 800192c:	01f50001 	mvnseq	r0, r1
 8001930:	01f701f6 	ldrsheq	r0, [r7, #22]!
 8001934:	f90001f8 			@ <UNDEFINED> instruction: 0xf90001f8
 8001938:	fb01fa01 			@ <UNDEFINED> instruction: 0xfb01fa01
 800193c:	4001fc01 	andmi	pc, r1, r1, lsl #24
 8001940:	003f20fd 	ldrsheq	r2, [pc], -sp	@ <UNPREDICTABLE>
 8001944:	02020102 	andeq	r0, r2, #-2147483648	@ 0x80000000
 8001948:	02030002 	andeq	r0, r3, #2
 800194c:	02050204 	andeq	r0, r5, #4, 4	@ 0x40000000
 8001950:	07000206 	streq	r0, [r0, -r6, lsl #4]
 8001954:	09020802 	stmdbeq	r2, {r1, fp}
 8001958:	00020a02 	andeq	r0, r2, r2, lsl #20
 800195c:	020c020b 	andeq	r0, ip, #-1342177280	@ 0xb0000000
 8001960:	020e020d 	andeq	r0, lr, #-805306368	@ 0xd0000000
 8001964:	10020f00 	andne	r0, r2, r0, lsl #30
 8001968:	12021102 	andne	r1, r2, #-2147483648	@ 0x80000000
 800196c:	02130002 	andseq	r0, r3, #2
 8001970:	02150214 	andseq	r0, r5, #20, 4	@ 0x40000001
 8001974:	17000216 			@ <UNDEFINED> instruction: 0x17000216
 8001978:	19021802 	stmdbne	r2, {r1, fp, ip}
 800197c:	03021a02 	tsteq	r2, #8192	@ 0x2000
 8001980:	021c021b 	andseq	r0, ip, #-1342177279	@ 0xb0000001
 8001984:	3e22021d 	mcrcc	2, 1, r0, cr2, cr13, {0}
 8001988:	f0ff01f0 			@ <UNDEFINED> instruction: 0xf0ff01f0
 800198c:	2001f001 	andcs	pc, r1, r1
 8001990:	f03ff001 			@ <UNDEFINED> instruction: 0xf03ff001
 8001994:	f001f001 			@ <UNDEFINED> instruction: 0xf001f001
 8001998:	ff01f03f 			@ <UNDEFINED> instruction: 0xff01f03f
 800199c:	01f001f0 	ldrsheq	r0, [r0, #16]!
 80019a0:	01f03f30 	mvnseq	r3, r0, lsr pc
 80019a4:	01f001f0 	ldrsheq	r0, [r0, #16]!
 80019a8:	01f001f0 	ldrsheq	r0, [r0, #16]!
 80019ac:	f001f0ff 			@ <UNDEFINED> instruction: 0xf001f0ff
 80019b0:	f001f001 			@ <UNDEFINED> instruction: 0xf001f001
 80019b4:	f001f001 			@ <UNDEFINED> instruction: 0xf001f001
 80019b8:	f001f001 			@ <UNDEFINED> instruction: 0xf001f001
 80019bc:	01f0ff01 	mvnseq	pc, r1, lsl #30
 80019c0:	01f001f0 	ldrsheq	r0, [r0, #16]!
 80019c4:	01f001f0 	ldrsheq	r0, [r0, #16]!
 80019c8:	01f001f0 	ldrsheq	r0, [r0, #16]!
 80019cc:	f0ff01f0 			@ <UNDEFINED> instruction: 0xf0ff01f0
 80019d0:	f001f001 			@ <UNDEFINED> instruction: 0xf001f001
 80019d4:	f001f001 			@ <UNDEFINED> instruction: 0xf001f001
 80019d8:	f001f001 			@ <UNDEFINED> instruction: 0xf001f001
 80019dc:	ff01f001 			@ <UNDEFINED> instruction: 0xff01f001
 80019e0:	01f001f0 	ldrsheq	r0, [r0, #16]!
 80019e4:	01f001f0 	ldrsheq	r0, [r0, #16]!
 80019e8:	01f001f0 	ldrsheq	r0, [r0, #16]!
 80019ec:	01f001f0 	ldrsheq	r0, [r0, #16]!
 80019f0:	f001f0fc 			@ <UNDEFINED> instruction: 0xf001f0fc
 80019f4:	f001f001 			@ <UNDEFINED> instruction: 0xf001f001
 80019f8:	9001f001 	andls	pc, r1, r1
 80019fc:	00000001 	andeq	r0, r0, r1
 8001a00:	00080010 	andeq	r0, r8, r0, lsl r0
 8001a04:	2000002c 	andcs	r0, r0, ip, lsr #32
 8001a08:	03f01101 	mvnseq	r1, #1073741824	@ 0x40000000
 8001a0c:	11000360 	tstne	r0, r0, ror #6
 8001a10:	11050080 	tstne	r5, r0, lsl #1
 8001a14:	00000111 	andeq	r0, r0, r1, lsl r1
 8001a18:	117c0110 	cmnne	ip, r0, lsl r1
 8001a1c:	0f000350 	svceq	0x00000350
 8001a20:	1f300300 	svcne	0x00300300
 8001a24:	01100150 	tsteq	r0, r0, asr r1
 8001a28:	1660105f 			@ <UNDEFINED> instruction: 0x1660105f
 8001a2c:	a03e3001 	eorsge	r3, lr, r1
 8001a30:	2038001f 	eorscs	r0, r8, pc, lsl r0
 8001a34:	ff46501f 			@ <UNDEFINED> instruction: 0xff46501f
 8001a38:	6ff00b10 	svcvs	0x00f00b10
 8001a3c:	1bf053b0 	blne	7c16904 <IntrTable+0x4c13414>
 8001a40:	9d201fd0 	stcls	15, cr1, [r0, #-832]!	@ 0xfffffcc0
 8001a44:	04001a50 	streq	r1, [r0], #-2640	@ 0xfffff5b0
 8001a48:	73e0107f 	mvnvc	r1, #127	@ 0x7f
 8001a4c:	b6400b60 	strblt	r0, [r0], -r0, ror #22
 8001a50:	2b705fc0 	blcs	9c19958 <IntrRet+0x1c17270>
 8001a54:	4f50bf40 	svcmi	0x0050bf40
 8001a58:	b00100ff 			@ <UNDEFINED> instruction: 0xb00100ff
 8001a5c:	1002014b 	andne	r0, r2, fp, asr #2
 8001a60:	b0989003 	addslt	r9, r8, r3
 8001a64:	31311089 	teqcc	r1, r9, lsl #1
 8001a68:	0d51f728 	ldcleq	7, cr15, [r1, #-160]	@ 0xffffff60
 8001a6c:	8a001fa0 	bhi	80098f4 <IntrRet+0x720c>
 8001a70:	81018120 	tsthi	r1, r0, lsr #2
 8001a74:	30250048 	eorcc	r0, r5, r8, asr #32
 8001a78:	9f40ff2d 	svcls	0x0040ff2d
 8001a7c:	4d4073f0 	stclmi	3, cr7, [r0, #-960]	@ 0xfffffc40
 8001a80:	73f07f40 	mvnsvc	r7, #64, 30	@ 0x100
 8001a84:	73e094a1 	mvnvc	r9, #-1593835520	@ 0xa1000000
 8001a88:	40fbb491 	smlalsmi	fp, fp, r1, r4	@ <UNPREDICTABLE>
 8001a8c:	f0f9f003 			@ <UNDEFINED> instruction: 0xf0f9f003
 8001a90:	612bb02b 			@ <UNDEFINED> instruction: 0x612bb02b
 8001a94:	6f41105f 	svcvs	0x0041105f
 8001a98:	b0ff8940 	rscslt	r8, pc, r0, asr #18
 8001a9c:	c031218d 	eorsgt	r2, r1, sp, lsl #3
 8001aa0:	21195241 	tstcs	r9, r1, asr #4
 8001aa4:	00fb310f 	rscseq	r3, fp, pc, lsl #2
 8001aa8:	ff017003 			@ <UNDEFINED> instruction: 0xff017003
 8001aac:	2730b7b0 			@ <UNDEFINED> instruction: 0x2730b7b0
 8001ab0:	fef15c52 			@ <UNDEFINED> instruction: 0xfef15c52
 8001ab4:	6b90dff1 	blvs	6439a80 <IntrTable+0x3436590>
 8001ab8:	1fd03530 	svcne	0x00d03530
 8001abc:	306740fd 			@ <UNDEFINED> instruction: 0x306740fd
 8001ac0:	f16b1103 			@ <UNDEFINED> instruction: 0xf16b1103
 8001ac4:	006041ff 			@ <UNDEFINED> instruction: 0x006041ff
 8001ac8:	0310013e 	tsteq	r0, #-2147483633	@ 0x8000000f
 8001acc:	c17061ff 	ldrshgt	r6, [r0, #-31]!	@ 0xffffffe1
 8001ad0:	b1a3002a 			@ <UNDEFINED> instruction: 0xb1a3002a
 8001ad4:	f120c06f 			@ <UNDEFINED> instruction: 0xf120c06f
 8001ad8:	611f50df 	ldrsbvs	r5, [pc, -pc]
 8001adc:	4923fbc1 	stmdbmi	r3!, {r0, r6, r7, r8, r9, fp, ip, sp, lr, pc}
 8001ae0:	03000f70 	tsteq	r0, #112, 30	@ 0x1c0
 8001ae4:	9e000a80 	vmlals.f32	s0, s1, s0
 8001ae8:	f19e0001 			@ <UNDEFINED> instruction: 0xf19e0001
 8001aec:	dfb1ffbf 	svcle	0x00b1ffbf
 8001af0:	b3f1b3f1 	mvnslt	fp, #-1006632957	@ 0xc4000003
 8001af4:	0330dcf0 	teqeq	r0, #240, 24	@ 0xf000
 8001af8:	0180b4f1 			@ <UNDEFINED> instruction: 0x0180b4f1
 8001afc:	107fbe83 	rsbsne	fp, pc, r3, lsl #29
 8001b00:	4cf00360 	ldclmi	3, cr0, [r0], #384	@ 0x180
 8001b04:	8ee20653 	mcrhi	6, 7, r0, cr2, cr3, {2}
 8001b08:	63101e31 	tstvs	r0, #784	@ 0x310
 8001b0c:	43ff40f1 	mvnsmi	r4, #241	@ 0xf1
 8001b10:	00fd115f 	rscseq	r1, sp, pc, asr r1
 8001b14:	00032025 	andeq	r2, r3, r5, lsr #32
 8001b18:	608d21ea 	addvs	r2, sp, sl, ror #3
 8001b1c:	ffe0f06b 			@ <UNDEFINED> instruction: 0xffe0f06b
 8001b20:	6ff09300 	svcvs	0x00f09300
 8001b24:	6b7093c0 	blvs	9c26a2c <IntrRet+0x1c24344>
 8001b28:	93d45b10 	bicsls	r5, r4, #16, 22	@ 0x4000
 8001b2c:	7d426770 	stclvc	7, cr6, [r2, #-448]	@ 0xfffffe40
 8001b30:	f08300ff 			@ <UNDEFINED> instruction: 0xf08300ff
 8001b34:	105c42f9 	ldrshne	r4, [ip], #-41	@ 0xffffffd7
 8001b38:	809b207c 	addshi	r2, fp, ip, ror r0
 8001b3c:	21628001 	cmncs	r2, r1
 8001b40:	6ed1f7bc 	mrcvs	7, 6, APSR_nzcv, cr1, cr12, {5}
 8001b44:	def31fa2 	cdple	15, 15, cr1, cr3, cr2, {5}
 8001b48:	e110aac0 	tst	r0, r0, asr #21
 8001b4c:	b001f0ae 	andlt	pc, r1, lr, lsr #1
 8001b50:	fe91ffdf 			@ <UNDEFINED> instruction: 0xfe91ffdf
 8001b54:	1ff00340 	svcne	0x00f00340
 8001b58:	3ff003a0 	svccc	0x00f003a0
 8001b5c:	7c331c63 	ldcvc	12, cr1, [r3], #-396	@ 0xfffffe74
 8001b60:	85fffef0 	ldrbhi	pc, [pc, #3824]!	@ 8002a58 <IntrRet+0x370>	@ <UNPREDICTABLE>
 8001b64:	c4708449 	ldrbtgt	r8, [r0], #-1097	@ 0xfffffbb7
 8001b68:	c501f04a 	strgt	pc, [r1, #-74]	@ 0xffffffb6
 8001b6c:	f0c643e1 			@ <UNDEFINED> instruction: 0xf0c643e1
 8001b70:	cfcb715f 	svcgt	0x00cb715f
 8001b74:	01900320 	orrseq	r0, r0, r0, lsr #6
 8001b78:	01f0ffff 	ldrsheq	pc, [r0, #255]!	@ 0xff	@ <UNPREDICTABLE>
 8001b7c:	45f00190 	ldrbmi	r0, [r0, #400]!	@ 0x190
 8001b80:	f0ff01f0 			@ <UNDEFINED> instruction: 0xf0ff01f0
 8001b84:	f001f001 			@ <UNDEFINED> instruction: 0xf001f001
 8001b88:	f001f001 			@ <UNDEFINED> instruction: 0xf001f001
 8001b8c:	f001f001 			@ <UNDEFINED> instruction: 0xf001f001
 8001b90:	ff01f001 			@ <UNDEFINED> instruction: 0xff01f001
 8001b94:	01f001f0 	ldrsheq	r0, [r0, #16]!
 8001b98:	01f001f0 	ldrsheq	r0, [r0, #16]!
 8001b9c:	01f001f0 	ldrsheq	r0, [r0, #16]!
 8001ba0:	01f001f0 	ldrsheq	r0, [r0, #16]!
 8001ba4:	7001f0c0 	andvc	pc, r1, r0, asr #1
 8001ba8:	f001f001 			@ <UNDEFINED> instruction: 0xf001f001
 8001bac:	f001f001 			@ <UNDEFINED> instruction: 0xf001f001
 8001bb0:	01f0ff01 	mvnseq	pc, r1, lsl #30
 8001bb4:	01f001f0 	ldrsheq	r0, [r0, #16]!
 8001bb8:	01f001f0 	ldrsheq	r0, [r0, #16]!
 8001bbc:	01f001f0 	ldrsheq	r0, [r0, #16]!
 8001bc0:	f0fc01f0 			@ <UNDEFINED> instruction: 0xf0fc01f0
 8001bc4:	f001f001 			@ <UNDEFINED> instruction: 0xf001f001
 8001bc8:	f001f001 			@ <UNDEFINED> instruction: 0xf001f001
 8001bcc:	00017001 	andeq	r7, r1, r1
 8001bd0:	00080001 	andeq	r0, r8, r1
 8001bd4:	00000038 	andeq	r0, r0, r8, lsr r0
 8001bd8:	00000001 	andeq	r0, r0, r1
 8001bdc:	40e80007 	rscmi	r0, r8, r7
 8001be0:	00008198 	muleq	r0, r8, r1
 8001be4:	81b840e8 			@ <UNDEFINED> instruction: 0x81b840e8
 8001be8:	40e80008 	rscmi	r0, r8, r8
 8001bec:	001081d8 			@ <UNDEFINED> instruction: 0x001081d8
 8001bf0:	81f840e8 	mvnshi	r4, r8, ror #1
 8001bf4:	40e80018 	rscmi	r0, r8, r8, lsl r0
 8001bf8:	00208018 	eoreq	r8, r0, r8, lsl r0
 8001bfc:	803840e8 	eorshi	r4, r8, r8, ror #1
 8001c00:	00e80028 	rsceq	r0, r8, r8, lsr #32
 8001c04:	00304058 	eorseq	r4, r0, r8, asr r0
 8001c08:	00400002 	subeq	r0, r0, r2
 8001c0c:	00000040 	andeq	r0, r0, r0, asr #32
 8001c10:	00400040 	subeq	r0, r0, r0, asr #32
 8001c14:	00000001 	andeq	r0, r0, r1

08001c18 <rt_mode_gameplay>:
 8001c18:	e92d4010 	push	{r4, lr}
 8001c1c:	e3a00000 	mov	r0, #0
 8001c20:	ebfff95e 	bl	80001a0 <bugcheck>
 8001c24:	e8bd4010 	pop	{r4, lr}
 8001c28:	e12fff1e 	bx	lr

08001c2c <rt_mode_unused>:
 8001c2c:	e92d4010 	push	{r4, lr}
 8001c30:	e3a00000 	mov	r0, #0
 8001c34:	ebfff959 	bl	80001a0 <bugcheck>
 8001c38:	e8bd4010 	pop	{r4, lr}
 8001c3c:	e12fff1e 	bx	lr

08001c40 <hns_load_graphics>:
 8001c40:	e92d4010 	push	{r4, lr}
 8001c44:	e3a01000 	mov	r1, #0
 8001c48:	e59f0058 	ldr	r0, [pc, #88]	@ 8001ca8 <hns_load_graphics+0x68>
 8001c4c:	ebfffa79 	bl	8000638 <index_asset_tbl>
 8001c50:	e59f1054 	ldr	r1, [pc, #84]	@ 8001cac <hns_load_graphics+0x6c>
 8001c54:	ebfff99c 	bl	80002cc <lz777_uncomp_vram>
 8001c58:	e3a01002 	mov	r1, #2
 8001c5c:	e59f0044 	ldr	r0, [pc, #68]	@ 8001ca8 <hns_load_graphics+0x68>
 8001c60:	ebfffa74 	bl	8000638 <index_asset_tbl>
 8001c64:	e3a01406 	mov	r1, #100663296	@ 0x6000000
 8001c68:	ebfff997 	bl	80002cc <lz777_uncomp_vram>
 8001c6c:	e3a01003 	mov	r1, #3
 8001c70:	e59f0030 	ldr	r0, [pc, #48]	@ 8001ca8 <hns_load_graphics+0x68>
 8001c74:	ebfffa6f 	bl	8000638 <index_asset_tbl>
 8001c78:	e59f1030 	ldr	r1, [pc, #48]	@ 8001cb0 <hns_load_graphics+0x70>
 8001c7c:	ebfff992 	bl	80002cc <lz777_uncomp_vram>
 8001c80:	e3a01004 	mov	r1, #4
 8001c84:	e59f001c 	ldr	r0, [pc, #28]	@ 8001ca8 <hns_load_graphics+0x68>
 8001c88:	ebfffa6a 	bl	8000638 <index_asset_tbl>
 8001c8c:	e59f3020 	ldr	r3, [pc, #32]	@ 8001cb4 <hns_load_graphics+0x74>
 8001c90:	e3a01001 	mov	r1, #1
 8001c94:	e5830000 	str	r0, [r3]
 8001c98:	e59f0008 	ldr	r0, [pc, #8]	@ 8001ca8 <hns_load_graphics+0x68>
 8001c9c:	ebfffa65 	bl	8000638 <index_asset_tbl>
 8001ca0:	e8bd4010 	pop	{r4, lr}
 8001ca4:	e12fff1e 	bx	lr
 8001ca8:	08000744 	stmdaeq	r0, {r2, r6, r8, r9, sl}
 8001cac:	06008000 	streq	r8, [r0], -r0
 8001cb0:	06010000 	streq	r0, [r1], -r0
 8001cb4:	030034ec 	tsteq	r0, #236, 8	@ 0xec000000

08001cb8 <hns_main>:
 8001cb8:	e92d4010 	push	{r4, lr}
 8001cbc:	ebffffdf 	bl	8001c40 <hns_load_graphics>
 8001cc0:	eafffffe 	b	8001cc0 <hns_main+0x8>

08001cc4 <hns_body>:
 8001cc4:	e92d4010 	push	{r4, lr}
 8001cc8:	ebfffa90 	bl	8000710 <init_subsystems>
 8001ccc:	ebffffdb 	bl	8001c40 <hns_load_graphics>
 8001cd0:	eafffffe 	b	8001cd0 <hns_body+0xc>

08001cd4 <rt_mode_hns>:
 8001cd4:	e92d4010 	push	{r4, lr}
 8001cd8:	ebfffff9 	bl	8001cc4 <hns_body>

08001cdc <runtime_dispatch>:
 8001cdc:	e3a06002 	mov	r6, #2
 8001ce0:	e92d4010 	push	{r4, lr}
 8001ce4:	e59f5078 	ldr	r5, [pc, #120]	@ 8001d64 <runtime_dispatch+0x88>
 8001ce8:	e59f4078 	ldr	r4, [pc, #120]	@ 8001d68 <runtime_dispatch+0x8c>
 8001cec:	e5d43000 	ldrb	r3, [r4]
 8001cf0:	e353000e 	cmp	r3, #14
 8001cf4:	8a000003 	bhi	8001d08 <runtime_dispatch+0x2c>
 8001cf8:	e7d53003 	ldrb	r3, [r5, r3]
 8001cfc:	e08ff103 	add	pc, pc, r3, lsl #2
 8001d00:	e1a00000 	nop			@ (mov r0, r0)
 8001d04:	ebffffc3 	bl	8001c18 <rt_mode_gameplay>
 8001d08:	ebfff90e 	bl	8000148 <install_ivt1>
 8001d0c:	eafffff6 	b	8001cec <runtime_dispatch+0x10>
 8001d10:	ebffffc5 	bl	8001c2c <rt_mode_unused>
 8001d14:	ebffffbf 	bl	8001c18 <rt_mode_gameplay>
 8001d18:	e5c46000 	strb	r6, [r4]
 8001d1c:	eafffff9 	b	8001d08 <runtime_dispatch+0x2c>
 8001d20:	eb000016 	bl	8001d80 <rt_mode_naming>
 8001d24:	ebffffbb 	bl	8001c18 <rt_mode_gameplay>
 8001d28:	eafffffa 	b	8001d18 <runtime_dispatch+0x3c>
 8001d2c:	eb00001d 	bl	8001da8 <rt_mode_ft_disclaimer>
 8001d30:	eafffff4 	b	8001d08 <runtime_dispatch+0x2c>
 8001d34:	ebffffe6 	bl	8001cd4 <rt_mode_hns>
 8001d38:	eafffff2 	b	8001d08 <runtime_dispatch+0x2c>
 8001d3c:	eb000014 	bl	8001d94 <rt_mode_sndplyr>
 8001d40:	eafffff0 	b	8001d08 <runtime_dispatch+0x2c>
 8001d44:	eb000026 	bl	8001de4 <rt_mode_credits>
 8001d48:	eaffffee 	b	8001d08 <runtime_dispatch+0x2c>
 8001d4c:	eb00001a 	bl	8001dbc <rt_mode_main_menu>
 8001d50:	eaffffec 	b	8001d08 <runtime_dispatch+0x2c>
 8001d54:	eb00001d 	bl	8001dd0 <rt_mode_menu>
 8001d58:	eaffffea 	b	8001d08 <runtime_dispatch+0x2c>
 8001d5c:	eb000002 	bl	8001d6c <rt_mode_battle>
 8001d60:	eaffffe8 	b	8001d08 <runtime_dispatch+0x2c>
 8001d64:	08002650 	stmdaeq	r0, {r4, r6, r9, sl, sp}
 8001d68:	03000000 	tsteq	r0, #0

08001d6c <rt_mode_battle>:
 8001d6c:	e92d4010 	push	{r4, lr}
 8001d70:	e3a00000 	mov	r0, #0
 8001d74:	ebfff909 	bl	80001a0 <bugcheck>
 8001d78:	e8bd4010 	pop	{r4, lr}
 8001d7c:	e12fff1e 	bx	lr

08001d80 <rt_mode_naming>:
 8001d80:	e92d4010 	push	{r4, lr}
 8001d84:	e3a00000 	mov	r0, #0
 8001d88:	ebfff904 	bl	80001a0 <bugcheck>
 8001d8c:	e8bd4010 	pop	{r4, lr}
 8001d90:	e12fff1e 	bx	lr

08001d94 <rt_mode_sndplyr>:
 8001d94:	e92d4010 	push	{r4, lr}
 8001d98:	e3a00000 	mov	r0, #0
 8001d9c:	ebfff8ff 	bl	80001a0 <bugcheck>
 8001da0:	e8bd4010 	pop	{r4, lr}
 8001da4:	e12fff1e 	bx	lr

08001da8 <rt_mode_ft_disclaimer>:
 8001da8:	e92d4010 	push	{r4, lr}
 8001dac:	e3a00000 	mov	r0, #0
 8001db0:	ebfff8fa 	bl	80001a0 <bugcheck>
 8001db4:	e8bd4010 	pop	{r4, lr}
 8001db8:	e12fff1e 	bx	lr

08001dbc <rt_mode_main_menu>:
 8001dbc:	e92d4010 	push	{r4, lr}
 8001dc0:	e3a00000 	mov	r0, #0
 8001dc4:	ebfff8f5 	bl	80001a0 <bugcheck>
 8001dc8:	e8bd4010 	pop	{r4, lr}
 8001dcc:	e12fff1e 	bx	lr

08001dd0 <rt_mode_menu>:
 8001dd0:	e92d4010 	push	{r4, lr}
 8001dd4:	e3a00000 	mov	r0, #0
 8001dd8:	ebfff8f0 	bl	80001a0 <bugcheck>
 8001ddc:	e8bd4010 	pop	{r4, lr}
 8001de0:	e12fff1e 	bx	lr

08001de4 <rt_mode_credits>:
 8001de4:	e92d4010 	push	{r4, lr}
 8001de8:	e3a00000 	mov	r0, #0
 8001dec:	ebfff8eb 	bl	80001a0 <bugcheck>
 8001df0:	e8bd4010 	pop	{r4, lr}
 8001df4:	e12fff1e 	bx	lr

08001df8 <CpuSet>:
 8001df8:	df0b      	svc	11
 8001dfa:	4770      	bx	lr

08001dfc <CpuFastSet>:
 8001dfc:	df0c      	svc	12
 8001dfe:	4770      	bx	lr

08001e00 <dummy>:
 8001e00:	4770      	bx	lr
 8001e02:	46c0      	nop			@ (mov r8, r8)

08001e04 <InitInterrupt>:
 8001e04:	2200      	movs	r2, #0
 8001e06:	4b12      	ldr	r3, [pc, #72]	@ (8001e50 <InitInterrupt+0x4c>)
 8001e08:	4912      	ldr	r1, [pc, #72]	@ (8001e54 <InitInterrupt+0x50>)
 8001e0a:	605a      	str	r2, [r3, #4]
 8001e0c:	6019      	str	r1, [r3, #0]
 8001e0e:	6099      	str	r1, [r3, #8]
 8001e10:	60da      	str	r2, [r3, #12]
 8001e12:	6119      	str	r1, [r3, #16]
 8001e14:	615a      	str	r2, [r3, #20]
 8001e16:	6199      	str	r1, [r3, #24]
 8001e18:	61da      	str	r2, [r3, #28]
 8001e1a:	6219      	str	r1, [r3, #32]
 8001e1c:	625a      	str	r2, [r3, #36]	@ 0x24
 8001e1e:	6299      	str	r1, [r3, #40]	@ 0x28
 8001e20:	62da      	str	r2, [r3, #44]	@ 0x2c
 8001e22:	6319      	str	r1, [r3, #48]	@ 0x30
 8001e24:	635a      	str	r2, [r3, #52]	@ 0x34
 8001e26:	6399      	str	r1, [r3, #56]	@ 0x38
 8001e28:	63da      	str	r2, [r3, #60]	@ 0x3c
 8001e2a:	6419      	str	r1, [r3, #64]	@ 0x40
 8001e2c:	645a      	str	r2, [r3, #68]	@ 0x44
 8001e2e:	6499      	str	r1, [r3, #72]	@ 0x48
 8001e30:	64da      	str	r2, [r3, #76]	@ 0x4c
 8001e32:	6519      	str	r1, [r3, #80]	@ 0x50
 8001e34:	655a      	str	r2, [r3, #84]	@ 0x54
 8001e36:	6599      	str	r1, [r3, #88]	@ 0x58
 8001e38:	65da      	str	r2, [r3, #92]	@ 0x5c
 8001e3a:	6619      	str	r1, [r3, #96]	@ 0x60
 8001e3c:	665a      	str	r2, [r3, #100]	@ 0x64
 8001e3e:	6699      	str	r1, [r3, #104]	@ 0x68
 8001e40:	66da      	str	r2, [r3, #108]	@ 0x6c
 8001e42:	6719      	str	r1, [r3, #112]	@ 0x70
 8001e44:	675a      	str	r2, [r3, #116]	@ 0x74
 8001e46:	4b04      	ldr	r3, [pc, #16]	@ (8001e58 <InitInterrupt+0x54>)
 8001e48:	4a04      	ldr	r2, [pc, #16]	@ (8001e5c <InitInterrupt+0x58>)
 8001e4a:	6013      	str	r3, [r2, #0]
 8001e4c:	4770      	bx	lr
 8001e4e:	46c0      	nop			@ (mov r8, r8)
 8001e50:	030034f0 	tsteq	r0, #240, 8	@ 0xf0000000
 8001e54:	08001e01 	stmdaeq	r0, {r0, r9, sl, fp, ip}
 8001e58:	08002660 	stmdaeq	r0, {r5, r6, r9, sl, sp}
 8001e5c:	03007ffc 	tsteq	r0, #252, 30	@ 0x3f0

08001e60 <irqInit>:
 8001e60:	2200      	movs	r2, #0
 8001e62:	4b12      	ldr	r3, [pc, #72]	@ (8001eac <irqInit+0x4c>)
 8001e64:	4912      	ldr	r1, [pc, #72]	@ (8001eb0 <irqInit+0x50>)
 8001e66:	605a      	str	r2, [r3, #4]
 8001e68:	6019      	str	r1, [r3, #0]
 8001e6a:	6099      	str	r1, [r3, #8]
 8001e6c:	60da      	str	r2, [r3, #12]
 8001e6e:	6119      	str	r1, [r3, #16]
 8001e70:	615a      	str	r2, [r3, #20]
 8001e72:	6199      	str	r1, [r3, #24]
 8001e74:	61da      	str	r2, [r3, #28]
 8001e76:	6219      	str	r1, [r3, #32]
 8001e78:	625a      	str	r2, [r3, #36]	@ 0x24
 8001e7a:	6299      	str	r1, [r3, #40]	@ 0x28
 8001e7c:	62da      	str	r2, [r3, #44]	@ 0x2c
 8001e7e:	6319      	str	r1, [r3, #48]	@ 0x30
 8001e80:	635a      	str	r2, [r3, #52]	@ 0x34
 8001e82:	6399      	str	r1, [r3, #56]	@ 0x38
 8001e84:	63da      	str	r2, [r3, #60]	@ 0x3c
 8001e86:	6419      	str	r1, [r3, #64]	@ 0x40
 8001e88:	645a      	str	r2, [r3, #68]	@ 0x44
 8001e8a:	6499      	str	r1, [r3, #72]	@ 0x48
 8001e8c:	64da      	str	r2, [r3, #76]	@ 0x4c
 8001e8e:	6519      	str	r1, [r3, #80]	@ 0x50
 8001e90:	655a      	str	r2, [r3, #84]	@ 0x54
 8001e92:	6599      	str	r1, [r3, #88]	@ 0x58
 8001e94:	65da      	str	r2, [r3, #92]	@ 0x5c
 8001e96:	6619      	str	r1, [r3, #96]	@ 0x60
 8001e98:	665a      	str	r2, [r3, #100]	@ 0x64
 8001e9a:	6699      	str	r1, [r3, #104]	@ 0x68
 8001e9c:	66da      	str	r2, [r3, #108]	@ 0x6c
 8001e9e:	6719      	str	r1, [r3, #112]	@ 0x70
 8001ea0:	675a      	str	r2, [r3, #116]	@ 0x74
 8001ea2:	4b04      	ldr	r3, [pc, #16]	@ (8001eb4 <irqInit+0x54>)
 8001ea4:	4a04      	ldr	r2, [pc, #16]	@ (8001eb8 <irqInit+0x58>)
 8001ea6:	6013      	str	r3, [r2, #0]
 8001ea8:	4770      	bx	lr
 8001eaa:	46c0      	nop			@ (mov r8, r8)
 8001eac:	030034f0 	tsteq	r0, #240, 8	@ 0xf0000000
 8001eb0:	08001e01 	stmdaeq	r0, {r0, r9, sl, fp, ip}
 8001eb4:	08002660 	stmdaeq	r0, {r5, r6, r9, sl, sp}
 8001eb8:	03007ffc 	tsteq	r0, #252, 30	@ 0x3f0

08001ebc <SetInterrupt>:
 8001ebc:	4b38      	ldr	r3, [pc, #224]	@ (8001fa0 <SetInterrupt+0xe4>)
 8001ebe:	0002      	movs	r2, r0
 8001ec0:	6858      	ldr	r0, [r3, #4]
 8001ec2:	b510      	push	{r4, lr}
 8001ec4:	2800      	cmp	r0, #0
 8001ec6:	d057      	beq.n	8001f78 <SetInterrupt+0xbc>
 8001ec8:	4290      	cmp	r0, r2
 8001eca:	d058      	beq.n	8001f7e <SetInterrupt+0xc2>
 8001ecc:	68d8      	ldr	r0, [r3, #12]
 8001ece:	2800      	cmp	r0, #0
 8001ed0:	d048      	beq.n	8001f64 <SetInterrupt+0xa8>
 8001ed2:	4290      	cmp	r0, r2
 8001ed4:	d046      	beq.n	8001f64 <SetInterrupt+0xa8>
 8001ed6:	6958      	ldr	r0, [r3, #20]
 8001ed8:	2800      	cmp	r0, #0
 8001eda:	d045      	beq.n	8001f68 <SetInterrupt+0xac>
 8001edc:	4290      	cmp	r0, r2
 8001ede:	d043      	beq.n	8001f68 <SetInterrupt+0xac>
 8001ee0:	69d8      	ldr	r0, [r3, #28]
 8001ee2:	2800      	cmp	r0, #0
 8001ee4:	d042      	beq.n	8001f6c <SetInterrupt+0xb0>
 8001ee6:	4290      	cmp	r0, r2
 8001ee8:	d040      	beq.n	8001f6c <SetInterrupt+0xb0>
 8001eea:	6a58      	ldr	r0, [r3, #36]	@ 0x24
 8001eec:	2800      	cmp	r0, #0
 8001eee:	d03f      	beq.n	8001f70 <SetInterrupt+0xb4>
 8001ef0:	4282      	cmp	r2, r0
 8001ef2:	d03d      	beq.n	8001f70 <SetInterrupt+0xb4>
 8001ef4:	6ad8      	ldr	r0, [r3, #44]	@ 0x2c
 8001ef6:	2800      	cmp	r0, #0
 8001ef8:	d03c      	beq.n	8001f74 <SetInterrupt+0xb8>
 8001efa:	4282      	cmp	r2, r0
 8001efc:	d03a      	beq.n	8001f74 <SetInterrupt+0xb8>
 8001efe:	6b58      	ldr	r0, [r3, #52]	@ 0x34
 8001f00:	2800      	cmp	r0, #0
 8001f02:	d02d      	beq.n	8001f60 <SetInterrupt+0xa4>
 8001f04:	4282      	cmp	r2, r0
 8001f06:	d02b      	beq.n	8001f60 <SetInterrupt+0xa4>
 8001f08:	6bd8      	ldr	r0, [r3, #60]	@ 0x3c
 8001f0a:	2800      	cmp	r0, #0
 8001f0c:	d039      	beq.n	8001f82 <SetInterrupt+0xc6>
 8001f0e:	4282      	cmp	r2, r0
 8001f10:	d037      	beq.n	8001f82 <SetInterrupt+0xc6>
 8001f12:	6c58      	ldr	r0, [r3, #68]	@ 0x44
 8001f14:	2800      	cmp	r0, #0
 8001f16:	d036      	beq.n	8001f86 <SetInterrupt+0xca>
 8001f18:	4282      	cmp	r2, r0
 8001f1a:	d034      	beq.n	8001f86 <SetInterrupt+0xca>
 8001f1c:	6cd8      	ldr	r0, [r3, #76]	@ 0x4c
 8001f1e:	2800      	cmp	r0, #0
 8001f20:	d033      	beq.n	8001f8a <SetInterrupt+0xce>
 8001f22:	4282      	cmp	r2, r0
 8001f24:	d031      	beq.n	8001f8a <SetInterrupt+0xce>
 8001f26:	6d58      	ldr	r0, [r3, #84]	@ 0x54
 8001f28:	2800      	cmp	r0, #0
 8001f2a:	d030      	beq.n	8001f8e <SetInterrupt+0xd2>
 8001f2c:	4282      	cmp	r2, r0
 8001f2e:	d02e      	beq.n	8001f8e <SetInterrupt+0xd2>
 8001f30:	6dd8      	ldr	r0, [r3, #92]	@ 0x5c
 8001f32:	2800      	cmp	r0, #0
 8001f34:	d02d      	beq.n	8001f92 <SetInterrupt+0xd6>
 8001f36:	4282      	cmp	r2, r0
 8001f38:	d02b      	beq.n	8001f92 <SetInterrupt+0xd6>
 8001f3a:	6e58      	ldr	r0, [r3, #100]	@ 0x64
 8001f3c:	2800      	cmp	r0, #0
 8001f3e:	d02a      	beq.n	8001f96 <SetInterrupt+0xda>
 8001f40:	4282      	cmp	r2, r0
 8001f42:	d028      	beq.n	8001f96 <SetInterrupt+0xda>
 8001f44:	6ed8      	ldr	r0, [r3, #108]	@ 0x6c
 8001f46:	2800      	cmp	r0, #0
 8001f48:	d027      	beq.n	8001f9a <SetInterrupt+0xde>
 8001f4a:	4282      	cmp	r2, r0
 8001f4c:	d025      	beq.n	8001f9a <SetInterrupt+0xde>
 8001f4e:	240e      	movs	r4, #14
 8001f50:	00e4      	lsls	r4, r4, #3
 8001f52:	1918      	adds	r0, r3, r4
 8001f54:	5119      	str	r1, [r3, r4]
 8001f56:	191b      	adds	r3, r3, r4
 8001f58:	605a      	str	r2, [r3, #4]
 8001f5a:	bc10      	pop	{r4}
 8001f5c:	bc02      	pop	{r1}
 8001f5e:	4708      	bx	r1
 8001f60:	2406      	movs	r4, #6
 8001f62:	e7f5      	b.n	8001f50 <SetInterrupt+0x94>
 8001f64:	2401      	movs	r4, #1
 8001f66:	e7f3      	b.n	8001f50 <SetInterrupt+0x94>
 8001f68:	2402      	movs	r4, #2
 8001f6a:	e7f1      	b.n	8001f50 <SetInterrupt+0x94>
 8001f6c:	2403      	movs	r4, #3
 8001f6e:	e7ef      	b.n	8001f50 <SetInterrupt+0x94>
 8001f70:	2404      	movs	r4, #4
 8001f72:	e7ed      	b.n	8001f50 <SetInterrupt+0x94>
 8001f74:	2405      	movs	r4, #5
 8001f76:	e7eb      	b.n	8001f50 <SetInterrupt+0x94>
 8001f78:	0018      	movs	r0, r3
 8001f7a:	2400      	movs	r4, #0
 8001f7c:	e7ea      	b.n	8001f54 <SetInterrupt+0x98>
 8001f7e:	2400      	movs	r4, #0
 8001f80:	e7e6      	b.n	8001f50 <SetInterrupt+0x94>
 8001f82:	2407      	movs	r4, #7
 8001f84:	e7e4      	b.n	8001f50 <SetInterrupt+0x94>
 8001f86:	2408      	movs	r4, #8
 8001f88:	e7e2      	b.n	8001f50 <SetInterrupt+0x94>
 8001f8a:	2409      	movs	r4, #9
 8001f8c:	e7e0      	b.n	8001f50 <SetInterrupt+0x94>
 8001f8e:	240a      	movs	r4, #10
 8001f90:	e7de      	b.n	8001f50 <SetInterrupt+0x94>
 8001f92:	240b      	movs	r4, #11
 8001f94:	e7dc      	b.n	8001f50 <SetInterrupt+0x94>
 8001f96:	240c      	movs	r4, #12
 8001f98:	e7da      	b.n	8001f50 <SetInterrupt+0x94>
 8001f9a:	240d      	movs	r4, #13
 8001f9c:	e7d8      	b.n	8001f50 <SetInterrupt+0x94>
 8001f9e:	46c0      	nop			@ (mov r8, r8)
 8001fa0:	030034f0 	tsteq	r0, #240, 8	@ 0xf0000000

08001fa4 <irqSet>:
 8001fa4:	4b38      	ldr	r3, [pc, #224]	@ (8002088 <irqSet+0xe4>)
 8001fa6:	0002      	movs	r2, r0
 8001fa8:	6858      	ldr	r0, [r3, #4]
 8001faa:	b510      	push	{r4, lr}
 8001fac:	2800      	cmp	r0, #0
 8001fae:	d057      	beq.n	8002060 <irqSet+0xbc>
 8001fb0:	4290      	cmp	r0, r2
 8001fb2:	d058      	beq.n	8002066 <irqSet+0xc2>
 8001fb4:	68d8      	ldr	r0, [r3, #12]
 8001fb6:	2800      	cmp	r0, #0
 8001fb8:	d048      	beq.n	800204c <irqSet+0xa8>
 8001fba:	4290      	cmp	r0, r2
 8001fbc:	d046      	beq.n	800204c <irqSet+0xa8>
 8001fbe:	6958      	ldr	r0, [r3, #20]
 8001fc0:	2800      	cmp	r0, #0
 8001fc2:	d045      	beq.n	8002050 <irqSet+0xac>
 8001fc4:	4290      	cmp	r0, r2
 8001fc6:	d043      	beq.n	8002050 <irqSet+0xac>
 8001fc8:	69d8      	ldr	r0, [r3, #28]
 8001fca:	2800      	cmp	r0, #0
 8001fcc:	d042      	beq.n	8002054 <irqSet+0xb0>
 8001fce:	4290      	cmp	r0, r2
 8001fd0:	d040      	beq.n	8002054 <irqSet+0xb0>
 8001fd2:	6a58      	ldr	r0, [r3, #36]	@ 0x24
 8001fd4:	2800      	cmp	r0, #0
 8001fd6:	d03f      	beq.n	8002058 <irqSet+0xb4>
 8001fd8:	4282      	cmp	r2, r0
 8001fda:	d03d      	beq.n	8002058 <irqSet+0xb4>
 8001fdc:	6ad8      	ldr	r0, [r3, #44]	@ 0x2c
 8001fde:	2800      	cmp	r0, #0
 8001fe0:	d03c      	beq.n	800205c <irqSet+0xb8>
 8001fe2:	4282      	cmp	r2, r0
 8001fe4:	d03a      	beq.n	800205c <irqSet+0xb8>
 8001fe6:	6b58      	ldr	r0, [r3, #52]	@ 0x34
 8001fe8:	2800      	cmp	r0, #0
 8001fea:	d02d      	beq.n	8002048 <irqSet+0xa4>
 8001fec:	4282      	cmp	r2, r0
 8001fee:	d02b      	beq.n	8002048 <irqSet+0xa4>
 8001ff0:	6bd8      	ldr	r0, [r3, #60]	@ 0x3c
 8001ff2:	2800      	cmp	r0, #0
 8001ff4:	d039      	beq.n	800206a <irqSet+0xc6>
 8001ff6:	4282      	cmp	r2, r0
 8001ff8:	d037      	beq.n	800206a <irqSet+0xc6>
 8001ffa:	6c58      	ldr	r0, [r3, #68]	@ 0x44
 8001ffc:	2800      	cmp	r0, #0
 8001ffe:	d036      	beq.n	800206e <irqSet+0xca>
 8002000:	4282      	cmp	r2, r0
 8002002:	d034      	beq.n	800206e <irqSet+0xca>
 8002004:	6cd8      	ldr	r0, [r3, #76]	@ 0x4c
 8002006:	2800      	cmp	r0, #0
 8002008:	d033      	beq.n	8002072 <irqSet+0xce>
 800200a:	4282      	cmp	r2, r0
 800200c:	d031      	beq.n	8002072 <irqSet+0xce>
 800200e:	6d58      	ldr	r0, [r3, #84]	@ 0x54
 8002010:	2800      	cmp	r0, #0
 8002012:	d030      	beq.n	8002076 <irqSet+0xd2>
 8002014:	4282      	cmp	r2, r0
 8002016:	d02e      	beq.n	8002076 <irqSet+0xd2>
 8002018:	6dd8      	ldr	r0, [r3, #92]	@ 0x5c
 800201a:	2800      	cmp	r0, #0
 800201c:	d02d      	beq.n	800207a <irqSet+0xd6>
 800201e:	4282      	cmp	r2, r0
 8002020:	d02b      	beq.n	800207a <irqSet+0xd6>
 8002022:	6e58      	ldr	r0, [r3, #100]	@ 0x64
 8002024:	2800      	cmp	r0, #0
 8002026:	d02a      	beq.n	800207e <irqSet+0xda>
 8002028:	4282      	cmp	r2, r0
 800202a:	d028      	beq.n	800207e <irqSet+0xda>
 800202c:	6ed8      	ldr	r0, [r3, #108]	@ 0x6c
 800202e:	2800      	cmp	r0, #0
 8002030:	d027      	beq.n	8002082 <irqSet+0xde>
 8002032:	4282      	cmp	r2, r0
 8002034:	d025      	beq.n	8002082 <irqSet+0xde>
 8002036:	240e      	movs	r4, #14
 8002038:	00e4      	lsls	r4, r4, #3
 800203a:	1918      	adds	r0, r3, r4
 800203c:	5119      	str	r1, [r3, r4]
 800203e:	191b      	adds	r3, r3, r4
 8002040:	605a      	str	r2, [r3, #4]
 8002042:	bc10      	pop	{r4}
 8002044:	bc02      	pop	{r1}
 8002046:	4708      	bx	r1
 8002048:	2406      	movs	r4, #6
 800204a:	e7f5      	b.n	8002038 <irqSet+0x94>
 800204c:	2401      	movs	r4, #1
 800204e:	e7f3      	b.n	8002038 <irqSet+0x94>
 8002050:	2402      	movs	r4, #2
 8002052:	e7f1      	b.n	8002038 <irqSet+0x94>
 8002054:	2403      	movs	r4, #3
 8002056:	e7ef      	b.n	8002038 <irqSet+0x94>
 8002058:	2404      	movs	r4, #4
 800205a:	e7ed      	b.n	8002038 <irqSet+0x94>
 800205c:	2405      	movs	r4, #5
 800205e:	e7eb      	b.n	8002038 <irqSet+0x94>
 8002060:	0018      	movs	r0, r3
 8002062:	2400      	movs	r4, #0
 8002064:	e7ea      	b.n	800203c <irqSet+0x98>
 8002066:	2400      	movs	r4, #0
 8002068:	e7e6      	b.n	8002038 <irqSet+0x94>
 800206a:	2407      	movs	r4, #7
 800206c:	e7e4      	b.n	8002038 <irqSet+0x94>
 800206e:	2408      	movs	r4, #8
 8002070:	e7e2      	b.n	8002038 <irqSet+0x94>
 8002072:	2409      	movs	r4, #9
 8002074:	e7e0      	b.n	8002038 <irqSet+0x94>
 8002076:	240a      	movs	r4, #10
 8002078:	e7de      	b.n	8002038 <irqSet+0x94>
 800207a:	240b      	movs	r4, #11
 800207c:	e7dc      	b.n	8002038 <irqSet+0x94>
 800207e:	240c      	movs	r4, #12
 8002080:	e7da      	b.n	8002038 <irqSet+0x94>
 8002082:	240d      	movs	r4, #13
 8002084:	e7d8      	b.n	8002038 <irqSet+0x94>
 8002086:	46c0      	nop			@ (mov r8, r8)
 8002088:	030034f0 	tsteq	r0, #240, 8	@ 0xf0000000

0800208c <EnableInterrupt>:
 800208c:	2200      	movs	r2, #0
 800208e:	4b0f      	ldr	r3, [pc, #60]	@ (80020cc <EnableInterrupt+0x40>)
 8002090:	801a      	strh	r2, [r3, #0]
 8002092:	07c3      	lsls	r3, r0, #31
 8002094:	d504      	bpl.n	80020a0 <EnableInterrupt+0x14>
 8002096:	2108      	movs	r1, #8
 8002098:	4a0d      	ldr	r2, [pc, #52]	@ (80020d0 <EnableInterrupt+0x44>)
 800209a:	8813      	ldrh	r3, [r2, #0]
 800209c:	430b      	orrs	r3, r1
 800209e:	8013      	strh	r3, [r2, #0]
 80020a0:	0783      	lsls	r3, r0, #30
 80020a2:	d504      	bpl.n	80020ae <EnableInterrupt+0x22>
 80020a4:	2110      	movs	r1, #16
 80020a6:	4a0a      	ldr	r2, [pc, #40]	@ (80020d0 <EnableInterrupt+0x44>)
 80020a8:	8813      	ldrh	r3, [r2, #0]
 80020aa:	430b      	orrs	r3, r1
 80020ac:	8013      	strh	r3, [r2, #0]
 80020ae:	0743      	lsls	r3, r0, #29
 80020b0:	d504      	bpl.n	80020bc <EnableInterrupt+0x30>
 80020b2:	2120      	movs	r1, #32
 80020b4:	4a06      	ldr	r2, [pc, #24]	@ (80020d0 <EnableInterrupt+0x44>)
 80020b6:	8813      	ldrh	r3, [r2, #0]
 80020b8:	430b      	orrs	r3, r1
 80020ba:	8013      	strh	r3, [r2, #0]
 80020bc:	4b05      	ldr	r3, [pc, #20]	@ (80020d4 <EnableInterrupt+0x48>)
 80020be:	881a      	ldrh	r2, [r3, #0]
 80020c0:	4310      	orrs	r0, r2
 80020c2:	2201      	movs	r2, #1
 80020c4:	8018      	strh	r0, [r3, #0]
 80020c6:	4b01      	ldr	r3, [pc, #4]	@ (80020cc <EnableInterrupt+0x40>)
 80020c8:	801a      	strh	r2, [r3, #0]
 80020ca:	4770      	bx	lr
 80020cc:	04000208 	streq	r0, [r0], #-520	@ 0xfffffdf8
 80020d0:	04000004 	streq	r0, [r0], #-4
 80020d4:	04000200 	streq	r0, [r0], #-512	@ 0xfffffe00

080020d8 <irqEnable>:
 80020d8:	2100      	movs	r1, #0
 80020da:	4a11      	ldr	r2, [pc, #68]	@ (8002120 <irqEnable+0x48>)
 80020dc:	0003      	movs	r3, r0
 80020de:	8011      	strh	r1, [r2, #0]
 80020e0:	07c2      	lsls	r2, r0, #31
 80020e2:	d504      	bpl.n	80020ee <irqEnable+0x16>
 80020e4:	2008      	movs	r0, #8
 80020e6:	490f      	ldr	r1, [pc, #60]	@ (8002124 <irqEnable+0x4c>)
 80020e8:	880a      	ldrh	r2, [r1, #0]
 80020ea:	4302      	orrs	r2, r0
 80020ec:	800a      	strh	r2, [r1, #0]
 80020ee:	079a      	lsls	r2, r3, #30
 80020f0:	d504      	bpl.n	80020fc <irqEnable+0x24>
 80020f2:	2010      	movs	r0, #16
 80020f4:	490b      	ldr	r1, [pc, #44]	@ (8002124 <irqEnable+0x4c>)
 80020f6:	880a      	ldrh	r2, [r1, #0]
 80020f8:	4302      	orrs	r2, r0
 80020fa:	800a      	strh	r2, [r1, #0]
 80020fc:	075a      	lsls	r2, r3, #29
 80020fe:	d504      	bpl.n	800210a <irqEnable+0x32>
 8002100:	2020      	movs	r0, #32
 8002102:	4908      	ldr	r1, [pc, #32]	@ (8002124 <irqEnable+0x4c>)
 8002104:	880a      	ldrh	r2, [r1, #0]
 8002106:	4302      	orrs	r2, r0
 8002108:	800a      	strh	r2, [r1, #0]
 800210a:	4a07      	ldr	r2, [pc, #28]	@ (8002128 <irqEnable+0x50>)
 800210c:	8810      	ldrh	r0, [r2, #0]
 800210e:	4318      	orrs	r0, r3
 8002110:	0400      	lsls	r0, r0, #16
 8002112:	0c00      	lsrs	r0, r0, #16
 8002114:	8010      	strh	r0, [r2, #0]
 8002116:	2201      	movs	r2, #1
 8002118:	4b01      	ldr	r3, [pc, #4]	@ (8002120 <irqEnable+0x48>)
 800211a:	801a      	strh	r2, [r3, #0]
 800211c:	4770      	bx	lr
 800211e:	46c0      	nop			@ (mov r8, r8)
 8002120:	04000208 	streq	r0, [r0], #-520	@ 0xfffffdf8
 8002124:	04000004 	streq	r0, [r0], #-4
 8002128:	04000200 	streq	r0, [r0], #-512	@ 0xfffffe00

0800212c <DisableInterrupt>:
 800212c:	2200      	movs	r2, #0
 800212e:	4b0f      	ldr	r3, [pc, #60]	@ (800216c <DisableInterrupt+0x40>)
 8002130:	801a      	strh	r2, [r3, #0]
 8002132:	07c3      	lsls	r3, r0, #31
 8002134:	d504      	bpl.n	8002140 <DisableInterrupt+0x14>
 8002136:	2108      	movs	r1, #8
 8002138:	4a0d      	ldr	r2, [pc, #52]	@ (8002170 <DisableInterrupt+0x44>)
 800213a:	8813      	ldrh	r3, [r2, #0]
 800213c:	438b      	bics	r3, r1
 800213e:	8013      	strh	r3, [r2, #0]
 8002140:	0783      	lsls	r3, r0, #30
 8002142:	d504      	bpl.n	800214e <DisableInterrupt+0x22>
 8002144:	2110      	movs	r1, #16
 8002146:	4a0a      	ldr	r2, [pc, #40]	@ (8002170 <DisableInterrupt+0x44>)
 8002148:	8813      	ldrh	r3, [r2, #0]
 800214a:	438b      	bics	r3, r1
 800214c:	8013      	strh	r3, [r2, #0]
 800214e:	0743      	lsls	r3, r0, #29
 8002150:	d504      	bpl.n	800215c <DisableInterrupt+0x30>
 8002152:	2120      	movs	r1, #32
 8002154:	4a06      	ldr	r2, [pc, #24]	@ (8002170 <DisableInterrupt+0x44>)
 8002156:	8813      	ldrh	r3, [r2, #0]
 8002158:	438b      	bics	r3, r1
 800215a:	8013      	strh	r3, [r2, #0]
 800215c:	4a05      	ldr	r2, [pc, #20]	@ (8002174 <DisableInterrupt+0x48>)
 800215e:	8813      	ldrh	r3, [r2, #0]
 8002160:	4383      	bics	r3, r0
 8002162:	8013      	strh	r3, [r2, #0]
 8002164:	2201      	movs	r2, #1
 8002166:	4b01      	ldr	r3, [pc, #4]	@ (800216c <DisableInterrupt+0x40>)
 8002168:	801a      	strh	r2, [r3, #0]
 800216a:	4770      	bx	lr
 800216c:	04000208 	streq	r0, [r0], #-520	@ 0xfffffdf8
 8002170:	04000004 	streq	r0, [r0], #-4
 8002174:	04000200 	streq	r0, [r0], #-512	@ 0xfffffe00

08002178 <irqDisable>:
 8002178:	2200      	movs	r2, #0
 800217a:	4b0f      	ldr	r3, [pc, #60]	@ (80021b8 <irqDisable+0x40>)
 800217c:	801a      	strh	r2, [r3, #0]
 800217e:	07c3      	lsls	r3, r0, #31
 8002180:	d504      	bpl.n	800218c <irqDisable+0x14>
 8002182:	2108      	movs	r1, #8
 8002184:	4a0d      	ldr	r2, [pc, #52]	@ (80021bc <irqDisable+0x44>)
 8002186:	8813      	ldrh	r3, [r2, #0]
 8002188:	438b      	bics	r3, r1
 800218a:	8013      	strh	r3, [r2, #0]
 800218c:	0783      	lsls	r3, r0, #30
 800218e:	d504      	bpl.n	800219a <irqDisable+0x22>
 8002190:	2110      	movs	r1, #16
 8002192:	4a0a      	ldr	r2, [pc, #40]	@ (80021bc <irqDisable+0x44>)
 8002194:	8813      	ldrh	r3, [r2, #0]
 8002196:	438b      	bics	r3, r1
 8002198:	8013      	strh	r3, [r2, #0]
 800219a:	0743      	lsls	r3, r0, #29
 800219c:	d504      	bpl.n	80021a8 <irqDisable+0x30>
 800219e:	2120      	movs	r1, #32
 80021a0:	4a06      	ldr	r2, [pc, #24]	@ (80021bc <irqDisable+0x44>)
 80021a2:	8813      	ldrh	r3, [r2, #0]
 80021a4:	438b      	bics	r3, r1
 80021a6:	8013      	strh	r3, [r2, #0]
 80021a8:	4a05      	ldr	r2, [pc, #20]	@ (80021c0 <irqDisable+0x48>)
 80021aa:	8813      	ldrh	r3, [r2, #0]
 80021ac:	4383      	bics	r3, r0
 80021ae:	8013      	strh	r3, [r2, #0]
 80021b0:	2201      	movs	r2, #1
 80021b2:	4b01      	ldr	r3, [pc, #4]	@ (80021b8 <irqDisable+0x40>)
 80021b4:	801a      	strh	r2, [r3, #0]
 80021b6:	4770      	bx	lr
 80021b8:	04000208 	streq	r0, [r0], #-520	@ 0xfffffdf8
 80021bc:	04000004 	streq	r0, [r0], #-4
 80021c0:	04000200 	streq	r0, [r0], #-512	@ 0xfffffe00

080021c4 <RegisterRamReset>:
 80021c4:	df01      	svc	1
 80021c6:	4770      	bx	lr

080021c8 <SoftReset>:
 80021c8:	4b04      	ldr	r3, [pc, #16]	@ (80021dc <SoftReset+0x14>)
 80021ca:	7018      	strb	r0, [r3, #0]
 80021cc:	4b04      	ldr	r3, [pc, #16]	@ (80021e0 <SoftReset+0x18>)
 80021ce:	2200      	movs	r2, #0
 80021d0:	701a      	strb	r2, [r3, #0]
 80021d2:	4904      	ldr	r1, [pc, #16]	@ (80021e4 <SoftReset+0x1c>)
 80021d4:	468d      	mov	sp, r1
 80021d6:	df01      	svc	1
 80021d8:	df00      	svc	0
 80021da:	7ffa0000 	svcvc	0x00fa0000
 80021de:	02080300 	andeq	r0, r8, #0, 6
 80021e2:	7f000400 	svcvc	0x00000400
 80021e6:	 	andgt	r0, r0, r0, lsl #6

080021e8 <__irqInit_from_arm>:
 80021e8:	e59fc000 	ldr	ip, [pc]	@ 80021f0 <__irqInit_from_arm+0x8>
 80021ec:	e12fff1c 	bx	ip
 80021f0:	08001e61 	stmdaeq	r0, {r0, r5, r6, r9, sl, fp, ip}

080021f4 <__irqSet_from_arm>:
 80021f4:	e59fc000 	ldr	ip, [pc]	@ 80021fc <__irqSet_from_arm+0x8>
 80021f8:	e12fff1c 	bx	ip
 80021fc:	08001fa5 	stmdaeq	r0, {r0, r2, r5, r7, r8, r9, sl, fp, ip}

08002200 <__irqEnable_from_arm>:
 8002200:	e59fc000 	ldr	ip, [pc]	@ 8002208 <__irqEnable_from_arm+0x8>
 8002204:	e12fff1c 	bx	ip
 8002208:	080020d9 	stmdaeq	r0, {r0, r3, r4, r6, r7, sp}

0800220c <__SoftReset_from_arm>:
 800220c:	e59fc000 	ldr	ip, [pc]	@ 8002214 <__SoftReset_from_arm+0x8>
 8002210:	e12fff1c 	bx	ip
 8002214:	080021c9 	stmdaeq	r0, {r0, r3, r6, r7, r8, sp}

08002218 <__CpuSet_from_arm>:
 8002218:	e59fc000 	ldr	ip, [pc]	@ 8002220 <__CpuSet_from_arm+0x8>
 800221c:	e12fff1c 	bx	ip
 8002220:	08001df9 	stmdaeq	r0, {r0, r3, r4, r5, r6, r7, r8, sl, fp, ip}

08002224 <__CpuFastSet_from_arm>:
 8002224:	e59fc000 	ldr	ip, [pc]	@ 800222c <__CpuFastSet_from_arm+0x8>
 8002228:	e12fff1c 	bx	ip
 800222c:	08001dfd 	stmdaeq	r0, {r0, r2, r3, r4, r5, r6, r7, r8, sl, fp, ip}
	...

08002248 <reset_check_str>:
 8002248:	4720334d 	strmi	r3, [r0, -sp, asr #6]!
 800224c:	4e4f5342 	cdpmi	3, 4, cr5, cr15, cr2, {2}

08002250 <rand_correction>:
	...
 8002260:	000000df 			@ <UNDEFINED> instruction: 0x000000df
 8002264:	000000b0 	strheq	r0, [r0], -r0	@ <UNPREDICTABLE>
 8002268:	00000008 	andeq	r0, r0, r8
 800226c:	00000099 	muleq	r0, r9, r0
	...
 8002650:	00000307 	andeq	r0, r0, r7, lsl #6
 8002654:	00000000 	andeq	r0, r0, r0
 8002658:	10121416 	andsne	r1, r2, r6, lsl r4
 800265c:	Address 0x800265c is out of bounds.


Disassembly of section .iwram:

08002660 <IntrMain>:
 8002660:	e3a03301 	mov	r3, #67108864	@ 0x4000000
 8002664:	e5932200 	ldr	r2, [r3, #512]	@ 0x200
 8002668:	e5931208 	ldr	r1, [r3, #520]	@ 0x208
 800266c:	e5833208 	str	r3, [r3, #520]	@ 0x208
 8002670:	e14f0000 	mrs	r0, SPSR
 8002674:	e92d400b 	push	{r0, r1, r3, lr}
 8002678:	e0021822 	and	r1, r2, r2, lsr #16
 800267c:	e15320b8 	ldrh	r2, [r3, #-8]
 8002680:	e1822001 	orr	r2, r2, r1
 8002684:	e14320b8 	strh	r2, [r3, #-8]
 8002688:	e59f2084 	ldr	r2, [pc, #132]	@ 8002714 <IntrRet+0x2c>
 800268c:	e2833c02 	add	r3, r3, #512	@ 0x200

08002690 <findIRQ>:
 8002690:	e5920004 	ldr	r0, [r2, #4]
 8002694:	e3500000 	cmp	r0, #0
 8002698:	0a000003 	beq	80026ac <no_handler>
 800269c:	e0100001 	ands	r0, r0, r1
 80026a0:	1a000005 	bne	80026bc <jump_intr>
 80026a4:	e2822008 	add	r2, r2, #8
 80026a8:	eafffff8 	b	8002690 <findIRQ>

080026ac <no_handler>:
 80026ac:	e1c310b2 	strh	r1, [r3, #2]
 80026b0:	e8bd400b 	pop	{r0, r1, r3, lr}
 80026b4:	e5831208 	str	r1, [r3, #520]	@ 0x208
 80026b8:	e1a0f00e 	mov	pc, lr

080026bc <jump_intr>:
 80026bc:	e5922000 	ldr	r2, [r2]
 80026c0:	e3520000 	cmp	r2, #0
 80026c4:	0afffff8 	beq	80026ac <no_handler>

080026c8 <got_handler>:
 80026c8:	e10f1000 	mrs	r1, CPSR
 80026cc:	e3c110df 	bic	r1, r1, #223	@ 0xdf
 80026d0:	e381101f 	orr	r1, r1, #31
 80026d4:	e129f001 	msr	CPSR_fc, r1
 80026d8:	e1c300b2 	strh	r0, [r3, #2]
 80026dc:	e52de004 	push	{lr}		@ (str lr, [sp, #-4]!)
 80026e0:	e28fe000 	add	lr, pc, #0
 80026e4:	e12fff12 	bx	r2

080026e8 <IntrRet>:
 80026e8:	e49de004 	pop	{lr}		@ (ldr lr, [sp], #4)
 80026ec:	e3a03301 	mov	r3, #67108864	@ 0x4000000
 80026f0:	e5833208 	str	r3, [r3, #520]	@ 0x208
 80026f4:	e10f3000 	mrs	r3, CPSR
 80026f8:	e3c330df 	bic	r3, r3, #223	@ 0xdf
 80026fc:	e3833092 	orr	r3, r3, #146	@ 0x92
 8002700:	e129f003 	msr	CPSR_fc, r3
 8002704:	e8bd400b 	pop	{r0, r1, r3, lr}
 8002708:	e5831208 	str	r1, [r3, #520]	@ 0x208
 800270c:	e169f000 	msr	SPSR_fc, r0
 8002710:	e1a0f00e 	mov	pc, lr
 8002714:	030034f0 	tsteq	r0, #240, 8	@ 0xf0000000
